
Atmega128.elf:     file format elf32-avr

Sections:
Idx Name          Size      VMA       LMA       File off  Algn
  0 .data         0000008e  00800100  000034d6  0000356a  2**0
                  CONTENTS, ALLOC, LOAD, DATA
  1 .text         000034d6  00000000  00000000  00000094  2**1
                  CONTENTS, ALLOC, LOAD, READONLY, CODE
  2 .bss          00000133  0080018e  0080018e  000035f8  2**0
                  ALLOC
  3 .comment      00000030  00000000  00000000  000035f8  2**0
                  CONTENTS, READONLY
  4 .note.gnu.avr.deviceinfo 0000003c  00000000  00000000  00003628  2**2
                  CONTENTS, READONLY
  5 .debug_aranges 000006a0  00000000  00000000  00003664  2**0
                  CONTENTS, READONLY, DEBUGGING
  6 .debug_info   00007f1f  00000000  00000000  00003d04  2**0
                  CONTENTS, READONLY, DEBUGGING
  7 .debug_abbrev 00001c28  00000000  00000000  0000bc23  2**0
                  CONTENTS, READONLY, DEBUGGING
  8 .debug_line   00004399  00000000  00000000  0000d84b  2**0
                  CONTENTS, READONLY, DEBUGGING
  9 .debug_frame  00001334  00000000  00000000  00011be4  2**2
                  CONTENTS, READONLY, DEBUGGING
 10 .debug_str    00001626  00000000  00000000  00012f18  2**0
                  CONTENTS, READONLY, DEBUGGING
 11 .debug_loc    000068bb  00000000  00000000  0001453e  2**0
                  CONTENTS, READONLY, DEBUGGING
 12 .debug_ranges 00000630  00000000  00000000  0001adf9  2**0
                  CONTENTS, READONLY, DEBUGGING

Disassembly of section .text:

00000000 <__vectors>:
       0:	67 c0       	rjmp	.+206    	; 0xd0 <__ctors_end>
       2:	00 00       	nop
       4:	84 c0       	rjmp	.+264    	; 0x10e <__bad_interrupt>
       6:	00 00       	nop
       8:	82 c0       	rjmp	.+260    	; 0x10e <__bad_interrupt>
       a:	00 00       	nop
       c:	80 c0       	rjmp	.+256    	; 0x10e <__bad_interrupt>
       e:	00 00       	nop
      10:	7e c0       	rjmp	.+252    	; 0x10e <__bad_interrupt>
      12:	00 00       	nop
      14:	7c c0       	rjmp	.+248    	; 0x10e <__bad_interrupt>
      16:	00 00       	nop
      18:	7a c0       	rjmp	.+244    	; 0x10e <__bad_interrupt>
      1a:	00 00       	nop
      1c:	78 c0       	rjmp	.+240    	; 0x10e <__bad_interrupt>
      1e:	00 00       	nop
      20:	76 c0       	rjmp	.+236    	; 0x10e <__bad_interrupt>
      22:	00 00       	nop
      24:	74 c0       	rjmp	.+232    	; 0x10e <__bad_interrupt>
      26:	00 00       	nop
      28:	63 c3       	rjmp	.+1734   	; 0x6f0 <__vector_10>
      2a:	00 00       	nop
      2c:	2f c3       	rjmp	.+1630   	; 0x68c <__vector_11>
      2e:	00 00       	nop
      30:	37 c3       	rjmp	.+1646   	; 0x6a0 <__vector_12>
      32:	00 00       	nop
      34:	3f c3       	rjmp	.+1662   	; 0x6b4 <__vector_13>
      36:	00 00       	nop
      38:	51 c3       	rjmp	.+1698   	; 0x6dc <__vector_14>
      3a:	00 00       	nop
      3c:	68 c0       	rjmp	.+208    	; 0x10e <__bad_interrupt>
      3e:	00 00       	nop
      40:	1b c3       	rjmp	.+1590   	; 0x678 <__vector_16>
      42:	00 00       	nop
      44:	64 c0       	rjmp	.+200    	; 0x10e <__bad_interrupt>
      46:	00 00       	nop
      48:	8f c3       	rjmp	.+1822   	; 0x768 <__vector_18>
      4a:	00 00       	nop
      4c:	c5 c3       	rjmp	.+1930   	; 0x7d8 <__vector_19>
      4e:	00 00       	nop
      50:	5e c0       	rjmp	.+188    	; 0x10e <__bad_interrupt>
      52:	00 00       	nop
      54:	fd c0       	rjmp	.+506    	; 0x250 <__vector_21>
      56:	00 00       	nop
      58:	5a c0       	rjmp	.+180    	; 0x10e <__bad_interrupt>
      5a:	00 00       	nop
      5c:	58 c0       	rjmp	.+176    	; 0x10e <__bad_interrupt>
      5e:	00 00       	nop
      60:	33 c3       	rjmp	.+1638   	; 0x6c8 <__vector_24>
      62:	00 00       	nop
      64:	4f c3       	rjmp	.+1694   	; 0x704 <__vector_25>
      66:	00 00       	nop
      68:	57 c3       	rjmp	.+1710   	; 0x718 <__vector_26>
      6a:	00 00       	nop
      6c:	5f c3       	rjmp	.+1726   	; 0x72c <__vector_27>
      6e:	00 00       	nop
      70:	67 c3       	rjmp	.+1742   	; 0x740 <__vector_28>
      72:	00 00       	nop
      74:	6f c3       	rjmp	.+1758   	; 0x754 <__vector_29>
      76:	00 00       	nop
      78:	d8 c3       	rjmp	.+1968   	; 0x82a <__vector_30>
      7a:	00 00       	nop
      7c:	11 c4       	rjmp	.+2082   	; 0x8a0 <__vector_31>
      7e:	00 00       	nop
      80:	46 c0       	rjmp	.+140    	; 0x10e <__bad_interrupt>
      82:	00 00       	nop
      84:	44 c0       	rjmp	.+136    	; 0x10e <__bad_interrupt>
      86:	00 00       	nop
      88:	42 c0       	rjmp	.+132    	; 0x10e <__bad_interrupt>
      8a:	00 00       	nop
      8c:	5d 02       	muls	r21, r29
      8e:	61 02       	muls	r22, r17
      90:	65 02       	muls	r22, r21
      92:	69 02       	muls	r22, r25
      94:	6d 02       	muls	r22, r29
      96:	74 02       	muls	r23, r20
      98:	7b 02       	muls	r23, r27
      9a:	82 02       	muls	r24, r18
      9c:	86 02       	muls	r24, r22
      9e:	8d 02       	muls	r24, r29
      a0:	94 02       	muls	r25, r20
      a2:	9b 02       	muls	r25, r27
      a4:	9f 02       	muls	r25, r31
      a6:	a6 02       	muls	r26, r22
      a8:	ad 02       	muls	r26, r29
      aa:	c9 02       	muls	r28, r25
      ac:	cd 02       	muls	r28, r29
      ae:	d1 02       	muls	r29, r17
      b0:	d5 02       	muls	r29, r21
      b2:	db 02       	muls	r29, r27
      b4:	df 02       	muls	r29, r31
      b6:	e3 02       	muls	r30, r19
      b8:	e7 02       	muls	r30, r23
      ba:	f0 02       	muls	r31, r16
      bc:	f4 02       	muls	r31, r20
      be:	f8 02       	muls	r31, r24
      c0:	01 03       	mulsu	r16, r17
      c2:	89 15       	cp	r24, r9
      c4:	c3 16       	cp	r12, r19
      c6:	3c 17       	cp	r19, r28
      c8:	b4 17       	cp	r27, r20
      ca:	2c 18       	sub	r2, r12
      cc:	a4 18       	sub	r10, r4
      ce:	1c 19       	sub	r17, r12

000000d0 <__ctors_end>:
      d0:	11 24       	eor	r1, r1
      d2:	1f be       	out	0x3f, r1	; 63
      d4:	cf ef       	ldi	r28, 0xFF	; 255
      d6:	d0 e1       	ldi	r29, 0x10	; 16
      d8:	de bf       	out	0x3e, r29	; 62
      da:	cd bf       	out	0x3d, r28	; 61

000000dc <__do_copy_data>:
      dc:	11 e0       	ldi	r17, 0x01	; 1
      de:	a0 e0       	ldi	r26, 0x00	; 0
      e0:	b1 e0       	ldi	r27, 0x01	; 1
      e2:	e6 ed       	ldi	r30, 0xD6	; 214
      e4:	f4 e3       	ldi	r31, 0x34	; 52
      e6:	00 e0       	ldi	r16, 0x00	; 0
      e8:	0b bf       	out	0x3b, r16	; 59
      ea:	02 c0       	rjmp	.+4      	; 0xf0 <__do_copy_data+0x14>
      ec:	07 90       	elpm	r0, Z+
      ee:	0d 92       	st	X+, r0
      f0:	ae 38       	cpi	r26, 0x8E	; 142
      f2:	b1 07       	cpc	r27, r17
      f4:	d9 f7       	brne	.-10     	; 0xec <__do_copy_data+0x10>

000000f6 <__do_clear_bss>:
      f6:	22 e0       	ldi	r18, 0x02	; 2
      f8:	ae e8       	ldi	r26, 0x8E	; 142
      fa:	b1 e0       	ldi	r27, 0x01	; 1
      fc:	01 c0       	rjmp	.+2      	; 0x100 <.do_clear_bss_start>

000000fe <.do_clear_bss_loop>:
      fe:	1d 92       	st	X+, r1

00000100 <.do_clear_bss_start>:
     100:	a1 3c       	cpi	r26, 0xC1	; 193
     102:	b2 07       	cpc	r27, r18
     104:	e1 f7       	brne	.-8      	; 0xfe <.do_clear_bss_loop>
     106:	0e 94 ed 10 	call	0x21da	; 0x21da <main>
     10a:	0c 94 69 1a 	jmp	0x34d2	; 0x34d2 <_exit>

0000010e <__bad_interrupt>:
     10e:	78 cf       	rjmp	.-272    	; 0x0 <__vectors>

00000110 <ANALOG_read>:
* Returns selected Channel ADC_VALUE
*/
{
	uint8_t ADSC_FLAG;
	ADSC_FLAG=(1<<ADSC);
	if( !(ADC_CONTROL & ADSC_FLAG) ){
     110:	36 9b       	sbis	0x06, 6	; 6
		//ADC_SELECT
		/***/
		ADC_CONTROL|=(1<<ADSC);
     112:	36 9a       	sbi	0x06, 6	; 6
	}	
	return ADC_VALUE[selection];
     114:	fc 01       	movw	r30, r24
     116:	ee 0f       	add	r30, r30
     118:	ff 1f       	adc	r31, r31
     11a:	e9 55       	subi	r30, 0x59	; 89
     11c:	fe 4f       	sbci	r31, 0xFE	; 254
     11e:	80 81       	ld	r24, Z
     120:	91 81       	ldd	r25, Z+1	; 0x01
}
     122:	08 95       	ret

00000124 <ANALOGenable>:
ANALOG ANALOGenable( uint8_t Vreff, uint8_t Divfactor, int n_channel, ... )
/*
* Interrupt running mode setup
* setup, and list of channels to be probed
*/
{
     124:	0f 93       	push	r16
     126:	1f 93       	push	r17
     128:	cf 93       	push	r28
     12a:	df 93       	push	r29
     12c:	cd b7       	in	r28, 0x3d	; 61
     12e:	de b7       	in	r29, 0x3e	; 62
     130:	9f 81       	ldd	r25, Y+7	; 0x07
     132:	68 85       	ldd	r22, Y+8	; 0x08
     134:	49 85       	ldd	r20, Y+9	; 0x09
     136:	5a 85       	ldd	r21, Y+10	; 0x0a
	/***LOCAL VARIABLES***/
	uint8_t tSREG;
	va_list list;
	int i;
	//inic variables
	tSREG=SREG;
     138:	1f b7       	in	r17, 0x3f	; 63
	SREG&=~(1<<GLOBAL_INTERRUPT_ENABLE);
     13a:	8f b7       	in	r24, 0x3f	; 63
     13c:	8f 77       	andi	r24, 0x7F	; 127
     13e:	8f bf       	out	0x3f, r24	; 63
	/***GLOBAL VARIABLES INICIALIZE***/
	ADC_N_CHANNEL=n_channel;
     140:	50 93 96 01 	sts	0x0196, r21	; 0x800196 <ADC_N_CHANNEL+0x1>
     144:	40 93 95 01 	sts	0x0195, r20	; 0x800195 <ADC_N_CHANNEL>
	ADC_SELECTOR=0;
     148:	10 92 94 01 	sts	0x0194, r1	; 0x800194 <ADC_SELECTOR+0x1>
     14c:	10 92 93 01 	sts	0x0193, r1	; 0x800193 <ADC_SELECTOR>
	adc_n_sample=0;
     150:	10 92 8e 01 	sts	0x018E, r1	; 0x80018e <__data_end>
	//import parametros
	//inic parameters
	//Direccionar apontadores para PROTOTIPOS
	analog.read=ANALOG_read;
		/******/
		ADC_SELECT&=~(3<<REFS0);
     154:	87 b1       	in	r24, 0x07	; 7
     156:	8f 73       	andi	r24, 0x3F	; 63
     158:	87 b9       	out	0x07, r24	; 7
		switch( Vreff ){
     15a:	91 30       	cpi	r25, 0x01	; 1
     15c:	19 f0       	breq	.+6      	; 0x164 <ANALOGenable+0x40>
     15e:	93 30       	cpi	r25, 0x03	; 3
     160:	21 f0       	breq	.+8      	; 0x16a <ANALOGenable+0x46>
     162:	08 c0       	rjmp	.+16     	; 0x174 <ANALOGenable+0x50>
			case 0:
				analog.VREFF=0;
				break;
			case 1:
				ADC_SELECT|=(1<<REFS0);
     164:	3e 9a       	sbi	0x07, 6	; 7
				analog.VREFF=1;
     166:	01 e0       	ldi	r16, 0x01	; 1
				break;
     168:	06 c0       	rjmp	.+12     	; 0x176 <ANALOGenable+0x52>
			case 3:
				ADC_SELECT|=(3<<REFS0);
     16a:	87 b1       	in	r24, 0x07	; 7
     16c:	80 6c       	ori	r24, 0xC0	; 192
     16e:	87 b9       	out	0x07, r24	; 7
				analog.VREFF=3;
     170:	03 e0       	ldi	r16, 0x03	; 3
				break;
     172:	01 c0       	rjmp	.+2      	; 0x176 <ANALOGenable+0x52>
	analog.read=ANALOG_read;
		/******/
		ADC_SELECT&=~(3<<REFS0);
		switch( Vreff ){
			case 0:
				analog.VREFF=0;
     174:	00 e0       	ldi	r16, 0x00	; 0
			default:
				analog.VREFF=0;
				break;
		}
		//
		ADC_SELECT&=~(1<<ADLAR);
     176:	3d 98       	cbi	0x07, 5	; 7
		/******/
		va_start(list, n_channel);
		for(i=0;i<n_channel;i++){
     178:	14 16       	cp	r1, r20
     17a:	15 06       	cpc	r1, r21
     17c:	8c f4       	brge	.+34     	; 0x1a0 <ANALOGenable+0x7c>
     17e:	de 01       	movw	r26, r28
     180:	1b 96       	adiw	r26, 0x0b	; 11
     182:	80 e0       	ldi	r24, 0x00	; 0
     184:	90 e0       	ldi	r25, 0x00	; 0
			ADC_CHANNEL_GAIN[i] = va_arg(list, int);
     186:	2d 91       	ld	r18, X+
     188:	3d 91       	ld	r19, X+
     18a:	fc 01       	movw	r30, r24
     18c:	ee 0f       	add	r30, r30
     18e:	ff 1f       	adc	r31, r31
     190:	e9 56       	subi	r30, 0x69	; 105
     192:	fe 4f       	sbci	r31, 0xFE	; 254
     194:	31 83       	std	Z+1, r19	; 0x01
     196:	20 83       	st	Z, r18
		}
		//
		ADC_SELECT&=~(1<<ADLAR);
		/******/
		va_start(list, n_channel);
		for(i=0;i<n_channel;i++){
     198:	01 96       	adiw	r24, 0x01	; 1
     19a:	48 17       	cp	r20, r24
     19c:	59 07       	cpc	r21, r25
     19e:	99 f7       	brne	.-26     	; 0x186 <ANALOGenable+0x62>
			ADC_CHANNEL_GAIN[i] = va_arg(list, int);
		}
		va_end(list);
		ADC_SELECT&=~MUX_MASK;
     1a0:	87 b1       	in	r24, 0x07	; 7
     1a2:	80 7e       	andi	r24, 0xE0	; 224
     1a4:	87 b9       	out	0x07, r24	; 7
		ADC_SELECT|=(MUX_MASK & ADC_CHANNEL_GAIN[ADC_SELECTOR]);
     1a6:	e0 91 93 01 	lds	r30, 0x0193	; 0x800193 <ADC_SELECTOR>
     1aa:	f0 91 94 01 	lds	r31, 0x0194	; 0x800194 <ADC_SELECTOR+0x1>
     1ae:	ee 0f       	add	r30, r30
     1b0:	ff 1f       	adc	r31, r31
     1b2:	e9 56       	subi	r30, 0x69	; 105
     1b4:	fe 4f       	sbci	r31, 0xFE	; 254
     1b6:	80 81       	ld	r24, Z
     1b8:	91 81       	ldd	r25, Z+1	; 0x01
     1ba:	27 b1       	in	r18, 0x07	; 7
     1bc:	8f 71       	andi	r24, 0x1F	; 31
     1be:	99 27       	eor	r25, r25
     1c0:	82 2b       	or	r24, r18
     1c2:	87 b9       	out	0x07, r24	; 7
		/******/
		ADC_CONTROL|=(1<<ADEN);
     1c4:	37 9a       	sbi	0x06, 7	; 6
		ADC_CONTROL|=(1<<ADSC);
     1c6:	36 9a       	sbi	0x06, 6	; 6
		ADC_CONTROL&=~(1<<ADFR);
     1c8:	35 98       	cbi	0x06, 5	; 6
		ADC_CONTROL|=(1<<ADIE);
     1ca:	33 9a       	sbi	0x06, 3	; 6
		/******/
		ADC_CONTROL&=~(7<<ADPS0);
     1cc:	86 b1       	in	r24, 0x06	; 6
     1ce:	88 7f       	andi	r24, 0xF8	; 248
     1d0:	86 b9       	out	0x06, r24	; 6
		switch( Divfactor ){
     1d2:	60 31       	cpi	r22, 0x10	; 16
     1d4:	d1 f0       	breq	.+52     	; 0x20a <ANALOGenable+0xe6>
     1d6:	38 f4       	brcc	.+14     	; 0x1e6 <ANALOGenable+0xc2>
     1d8:	64 30       	cpi	r22, 0x04	; 4
     1da:	79 f0       	breq	.+30     	; 0x1fa <ANALOGenable+0xd6>
     1dc:	68 30       	cpi	r22, 0x08	; 8
     1de:	81 f0       	breq	.+32     	; 0x200 <ANALOGenable+0xdc>
     1e0:	62 30       	cpi	r22, 0x02	; 2
     1e2:	29 f5       	brne	.+74     	; 0x22e <ANALOGenable+0x10a>
     1e4:	07 c0       	rjmp	.+14     	; 0x1f4 <ANALOGenable+0xd0>
     1e6:	60 34       	cpi	r22, 0x40	; 64
     1e8:	c1 f0       	breq	.+48     	; 0x21a <ANALOGenable+0xf6>
     1ea:	60 38       	cpi	r22, 0x80	; 128
     1ec:	d9 f0       	breq	.+54     	; 0x224 <ANALOGenable+0x100>
     1ee:	60 32       	cpi	r22, 0x20	; 32
     1f0:	f1 f4       	brne	.+60     	; 0x22e <ANALOGenable+0x10a>
     1f2:	0e c0       	rjmp	.+28     	; 0x210 <ANALOGenable+0xec>
			case 2://1
				ADC_CONTROL|=(1<<ADPS0);
     1f4:	30 9a       	sbi	0x06, 0	; 6
				analog.DIVISION_FACTOR=2;
     1f6:	22 e0       	ldi	r18, 0x02	; 2
				break;
     1f8:	1e c0       	rjmp	.+60     	; 0x236 <ANALOGenable+0x112>
			case 4://2
				ADC_CONTROL|=(1<<ADPS1);
     1fa:	31 9a       	sbi	0x06, 1	; 6
				analog.DIVISION_FACTOR=4;
     1fc:	24 e0       	ldi	r18, 0x04	; 4
				break;
     1fe:	1b c0       	rjmp	.+54     	; 0x236 <ANALOGenable+0x112>
			case 8://3
				ADC_CONTROL|=(3<<ADPS0);
     200:	86 b1       	in	r24, 0x06	; 6
     202:	83 60       	ori	r24, 0x03	; 3
     204:	86 b9       	out	0x06, r24	; 6
				analog.DIVISION_FACTOR=8;
     206:	28 e0       	ldi	r18, 0x08	; 8
				break;
     208:	16 c0       	rjmp	.+44     	; 0x236 <ANALOGenable+0x112>
			case 16://4
				ADC_CONTROL|=(1<<ADPS2);
     20a:	32 9a       	sbi	0x06, 2	; 6
				analog.DIVISION_FACTOR=16;
     20c:	20 e1       	ldi	r18, 0x10	; 16
				break;
     20e:	13 c0       	rjmp	.+38     	; 0x236 <ANALOGenable+0x112>
			case 32://5
				ADC_CONTROL|=(5<<ADPS0);
     210:	86 b1       	in	r24, 0x06	; 6
     212:	85 60       	ori	r24, 0x05	; 5
     214:	86 b9       	out	0x06, r24	; 6
				analog.DIVISION_FACTOR=32;
     216:	20 e2       	ldi	r18, 0x20	; 32
				break;
     218:	0e c0       	rjmp	.+28     	; 0x236 <ANALOGenable+0x112>
			case 64://6
				ADC_CONTROL|=(6<<ADPS0);
     21a:	86 b1       	in	r24, 0x06	; 6
     21c:	86 60       	ori	r24, 0x06	; 6
     21e:	86 b9       	out	0x06, r24	; 6
				analog.DIVISION_FACTOR=64;
     220:	20 e4       	ldi	r18, 0x40	; 64
				break;
     222:	09 c0       	rjmp	.+18     	; 0x236 <ANALOGenable+0x112>
			case 128://7
				ADC_CONTROL|=(7<<ADPS0);
     224:	86 b1       	in	r24, 0x06	; 6
     226:	87 60       	ori	r24, 0x07	; 7
     228:	86 b9       	out	0x06, r24	; 6
				analog.DIVISION_FACTOR=128;
     22a:	20 e8       	ldi	r18, 0x80	; 128
				break;
     22c:	04 c0       	rjmp	.+8      	; 0x236 <ANALOGenable+0x112>
			default:
				ADC_CONTROL|=(7<<ADPS0);
     22e:	86 b1       	in	r24, 0x06	; 6
     230:	87 60       	ori	r24, 0x07	; 7
     232:	86 b9       	out	0x06, r24	; 6
				analog.DIVISION_FACTOR=128;
     234:	20 e8       	ldi	r18, 0x80	; 128
				break;
		}		
		
	SREG=tSREG;
     236:	1f bf       	out	0x3f, r17	; 63
	SREG|=(1<<GLOBAL_INTERRUPT_ENABLE);
     238:	8f b7       	in	r24, 0x3f	; 63
     23a:	80 68       	ori	r24, 0x80	; 128
     23c:	8f bf       	out	0x3f, r24	; 63
	/******/
	return analog;
     23e:	60 2f       	mov	r22, r16
     240:	72 2f       	mov	r23, r18
     242:	88 e8       	ldi	r24, 0x88	; 136
     244:	90 e0       	ldi	r25, 0x00	; 0
}
     246:	df 91       	pop	r29
     248:	cf 91       	pop	r28
     24a:	1f 91       	pop	r17
     24c:	0f 91       	pop	r16
     24e:	08 95       	ret

00000250 <__vector_21>:
ISR(ANALOG_INTERRUPT)
/*************************************************************************
Function: ANALOG interrupt
Purpose:  Read Analog Input
**************************************************************************/
{
     250:	1f 92       	push	r1
     252:	0f 92       	push	r0
     254:	0f b6       	in	r0, 0x3f	; 63
     256:	0f 92       	push	r0
     258:	11 24       	eor	r1, r1
     25a:	0b b6       	in	r0, 0x3b	; 59
     25c:	0f 92       	push	r0
     25e:	2f 93       	push	r18
     260:	3f 93       	push	r19
     262:	8f 93       	push	r24
     264:	9f 93       	push	r25
     266:	ef 93       	push	r30
     268:	ff 93       	push	r31
	adc_tmp=ADCL;
     26a:	84 b1       	in	r24, 0x04	; 4
     26c:	90 e0       	ldi	r25, 0x00	; 0
     26e:	90 93 90 01 	sts	0x0190, r25	; 0x800190 <adc_tmp+0x1>
     272:	80 93 8f 01 	sts	0x018F, r24	; 0x80018f <adc_tmp>
	adc_tmp|=(ADCH<<8);
     276:	25 b1       	in	r18, 0x05	; 5
     278:	80 91 8f 01 	lds	r24, 0x018F	; 0x80018f <adc_tmp>
     27c:	90 91 90 01 	lds	r25, 0x0190	; 0x800190 <adc_tmp+0x1>
     280:	92 2b       	or	r25, r18
     282:	90 93 90 01 	sts	0x0190, r25	; 0x800190 <adc_tmp+0x1>
     286:	80 93 8f 01 	sts	0x018F, r24	; 0x80018f <adc_tmp>
	if(adc_n_sample < (1<<ADC_NUMBER_SAMPLE)){
     28a:	80 91 8e 01 	lds	r24, 0x018E	; 0x80018e <__data_end>
     28e:	84 30       	cpi	r24, 0x04	; 4
     290:	a0 f4       	brcc	.+40     	; 0x2ba <__vector_21+0x6a>
		adc_n_sample++;
     292:	80 91 8e 01 	lds	r24, 0x018E	; 0x80018e <__data_end>
     296:	8f 5f       	subi	r24, 0xFF	; 255
     298:	80 93 8e 01 	sts	0x018E, r24	; 0x80018e <__data_end>
		adc_sample+=adc_tmp;
     29c:	20 91 8f 01 	lds	r18, 0x018F	; 0x80018f <adc_tmp>
     2a0:	30 91 90 01 	lds	r19, 0x0190	; 0x800190 <adc_tmp+0x1>
     2a4:	80 91 91 01 	lds	r24, 0x0191	; 0x800191 <adc_sample>
     2a8:	90 91 92 01 	lds	r25, 0x0192	; 0x800192 <adc_sample+0x1>
     2ac:	82 0f       	add	r24, r18
     2ae:	93 1f       	adc	r25, r19
     2b0:	90 93 92 01 	sts	0x0192, r25	; 0x800192 <adc_sample+0x1>
     2b4:	80 93 91 01 	sts	0x0191, r24	; 0x800191 <adc_sample>
     2b8:	43 c0       	rjmp	.+134    	; 0x340 <__vector_21+0xf0>
	}else{
		ADC_VALUE[ADC_SELECTOR]=adc_sample>>ADC_NUMBER_SAMPLE;
     2ba:	e0 91 93 01 	lds	r30, 0x0193	; 0x800193 <ADC_SELECTOR>
     2be:	f0 91 94 01 	lds	r31, 0x0194	; 0x800194 <ADC_SELECTOR+0x1>
     2c2:	80 91 91 01 	lds	r24, 0x0191	; 0x800191 <adc_sample>
     2c6:	90 91 92 01 	lds	r25, 0x0192	; 0x800192 <adc_sample+0x1>
     2ca:	95 95       	asr	r25
     2cc:	87 95       	ror	r24
     2ce:	95 95       	asr	r25
     2d0:	87 95       	ror	r24
     2d2:	ee 0f       	add	r30, r30
     2d4:	ff 1f       	adc	r31, r31
     2d6:	e9 55       	subi	r30, 0x59	; 89
     2d8:	fe 4f       	sbci	r31, 0xFE	; 254
     2da:	91 83       	std	Z+1, r25	; 0x01
     2dc:	80 83       	st	Z, r24
		adc_n_sample=adc_sample=0;
     2de:	10 92 92 01 	sts	0x0192, r1	; 0x800192 <adc_sample+0x1>
     2e2:	10 92 91 01 	sts	0x0191, r1	; 0x800191 <adc_sample>
     2e6:	10 92 8e 01 	sts	0x018E, r1	; 0x80018e <__data_end>
		/******/
		if(ADC_SELECTOR < ADC_N_CHANNEL)
     2ea:	20 91 93 01 	lds	r18, 0x0193	; 0x800193 <ADC_SELECTOR>
     2ee:	30 91 94 01 	lds	r19, 0x0194	; 0x800194 <ADC_SELECTOR+0x1>
     2f2:	80 91 95 01 	lds	r24, 0x0195	; 0x800195 <ADC_N_CHANNEL>
     2f6:	90 91 96 01 	lds	r25, 0x0196	; 0x800196 <ADC_N_CHANNEL+0x1>
     2fa:	28 17       	cp	r18, r24
     2fc:	39 07       	cpc	r19, r25
     2fe:	54 f4       	brge	.+20     	; 0x314 <__vector_21+0xc4>
			ADC_SELECTOR++;
     300:	80 91 93 01 	lds	r24, 0x0193	; 0x800193 <ADC_SELECTOR>
     304:	90 91 94 01 	lds	r25, 0x0194	; 0x800194 <ADC_SELECTOR+0x1>
     308:	01 96       	adiw	r24, 0x01	; 1
     30a:	90 93 94 01 	sts	0x0194, r25	; 0x800194 <ADC_SELECTOR+0x1>
     30e:	80 93 93 01 	sts	0x0193, r24	; 0x800193 <ADC_SELECTOR>
     312:	04 c0       	rjmp	.+8      	; 0x31c <__vector_21+0xcc>
		else
			ADC_SELECTOR=0;
     314:	10 92 94 01 	sts	0x0194, r1	; 0x800194 <ADC_SELECTOR+0x1>
     318:	10 92 93 01 	sts	0x0193, r1	; 0x800193 <ADC_SELECTOR>
		ADC_SELECT &= ~MUX_MASK;
     31c:	87 b1       	in	r24, 0x07	; 7
     31e:	80 7e       	andi	r24, 0xE0	; 224
     320:	87 b9       	out	0x07, r24	; 7
		ADC_SELECT |= (ADC_CHANNEL_GAIN[ADC_SELECTOR] & MUX_MASK);
     322:	e0 91 93 01 	lds	r30, 0x0193	; 0x800193 <ADC_SELECTOR>
     326:	f0 91 94 01 	lds	r31, 0x0194	; 0x800194 <ADC_SELECTOR+0x1>
     32a:	ee 0f       	add	r30, r30
     32c:	ff 1f       	adc	r31, r31
     32e:	e9 56       	subi	r30, 0x69	; 105
     330:	fe 4f       	sbci	r31, 0xFE	; 254
     332:	80 81       	ld	r24, Z
     334:	91 81       	ldd	r25, Z+1	; 0x01
     336:	27 b1       	in	r18, 0x07	; 7
     338:	8f 71       	andi	r24, 0x1F	; 31
     33a:	99 27       	eor	r25, r25
     33c:	82 2b       	or	r24, r18
     33e:	87 b9       	out	0x07, r24	; 7
	}		
}
     340:	ff 91       	pop	r31
     342:	ef 91       	pop	r30
     344:	9f 91       	pop	r25
     346:	8f 91       	pop	r24
     348:	3f 91       	pop	r19
     34a:	2f 91       	pop	r18
     34c:	0f 90       	pop	r0
     34e:	0b be       	out	0x3b, r0	; 59
     350:	0f 90       	pop	r0
     352:	0f be       	out	0x3f, r0	; 63
     354:	0f 90       	pop	r0
     356:	1f 90       	pop	r1
     358:	18 95       	reti

0000035a <TIMER_COUNTER1_start>:
		timer3.compareC=TIMER_COUNTER3_compareC;
		timer3.start=TIMER_COUNTER3_start;
		timer3.stop=TIMER_COUNTER3_stop;
		//
		return timer3;
	}
     35a:	20 91 41 02 	lds	r18, 0x0241	; 0x800241 <timer1_state>
     35e:	21 11       	cpse	r18, r1
     360:	42 c0       	rjmp	.+132    	; 0x3e6 <TIMER_COUNTER1_start+0x8c>
     362:	2f ef       	ldi	r18, 0xFF	; 255
     364:	3f ef       	ldi	r19, 0xFF	; 255
     366:	3b bd       	out	0x2b, r19	; 43
     368:	2a bd       	out	0x2a, r18	; 42
     36a:	2e b5       	in	r18, 0x2e	; 46
     36c:	28 7f       	andi	r18, 0xF8	; 248
     36e:	2e bd       	out	0x2e, r18	; 46
     370:	88 30       	cpi	r24, 0x08	; 8
     372:	91 05       	cpc	r25, r1
     374:	d1 f0       	breq	.+52     	; 0x3aa <TIMER_COUNTER1_start+0x50>
     376:	48 f4       	brcc	.+18     	; 0x38a <TIMER_COUNTER1_start+0x30>
     378:	83 30       	cpi	r24, 0x03	; 3
     37a:	91 05       	cpc	r25, r1
     37c:	31 f1       	breq	.+76     	; 0x3ca <TIMER_COUNTER1_start+0x70>
     37e:	85 30       	cpi	r24, 0x05	; 5
     380:	91 05       	cpc	r25, r1
     382:	39 f1       	breq	.+78     	; 0x3d2 <TIMER_COUNTER1_start+0x78>
     384:	01 97       	sbiw	r24, 0x01	; 1
     386:	49 f5       	brne	.+82     	; 0x3da <TIMER_COUNTER1_start+0x80>
     388:	0c c0       	rjmp	.+24     	; 0x3a2 <TIMER_COUNTER1_start+0x48>
     38a:	81 15       	cp	r24, r1
     38c:	21 e0       	ldi	r18, 0x01	; 1
     38e:	92 07       	cpc	r25, r18
     390:	a1 f0       	breq	.+40     	; 0x3ba <TIMER_COUNTER1_start+0x60>
     392:	81 15       	cp	r24, r1
     394:	24 e0       	ldi	r18, 0x04	; 4
     396:	92 07       	cpc	r25, r18
     398:	a1 f0       	breq	.+40     	; 0x3c2 <TIMER_COUNTER1_start+0x68>
     39a:	80 34       	cpi	r24, 0x40	; 64
     39c:	91 05       	cpc	r25, r1
     39e:	e9 f4       	brne	.+58     	; 0x3da <TIMER_COUNTER1_start+0x80>
     3a0:	08 c0       	rjmp	.+16     	; 0x3b2 <TIMER_COUNTER1_start+0x58>
     3a2:	8e b5       	in	r24, 0x2e	; 46
     3a4:	81 60       	ori	r24, 0x01	; 1
     3a6:	8e bd       	out	0x2e, r24	; 46
     3a8:	1b c0       	rjmp	.+54     	; 0x3e0 <TIMER_COUNTER1_start+0x86>
     3aa:	8e b5       	in	r24, 0x2e	; 46
     3ac:	82 60       	ori	r24, 0x02	; 2
     3ae:	8e bd       	out	0x2e, r24	; 46
     3b0:	17 c0       	rjmp	.+46     	; 0x3e0 <TIMER_COUNTER1_start+0x86>
     3b2:	8e b5       	in	r24, 0x2e	; 46
     3b4:	83 60       	ori	r24, 0x03	; 3
     3b6:	8e bd       	out	0x2e, r24	; 46
     3b8:	13 c0       	rjmp	.+38     	; 0x3e0 <TIMER_COUNTER1_start+0x86>
     3ba:	8e b5       	in	r24, 0x2e	; 46
     3bc:	84 60       	ori	r24, 0x04	; 4
     3be:	8e bd       	out	0x2e, r24	; 46
     3c0:	0f c0       	rjmp	.+30     	; 0x3e0 <TIMER_COUNTER1_start+0x86>
     3c2:	8e b5       	in	r24, 0x2e	; 46
     3c4:	85 60       	ori	r24, 0x05	; 5
     3c6:	8e bd       	out	0x2e, r24	; 46
     3c8:	0b c0       	rjmp	.+22     	; 0x3e0 <TIMER_COUNTER1_start+0x86>
     3ca:	8e b5       	in	r24, 0x2e	; 46
     3cc:	86 60       	ori	r24, 0x06	; 6
     3ce:	8e bd       	out	0x2e, r24	; 46
     3d0:	07 c0       	rjmp	.+14     	; 0x3e0 <TIMER_COUNTER1_start+0x86>
     3d2:	8e b5       	in	r24, 0x2e	; 46
     3d4:	87 60       	ori	r24, 0x07	; 7
     3d6:	8e bd       	out	0x2e, r24	; 46
     3d8:	03 c0       	rjmp	.+6      	; 0x3e0 <TIMER_COUNTER1_start+0x86>
     3da:	8e b5       	in	r24, 0x2e	; 46
     3dc:	85 60       	ori	r24, 0x05	; 5
     3de:	8e bd       	out	0x2e, r24	; 46
     3e0:	81 e0       	ldi	r24, 0x01	; 1
     3e2:	80 93 41 02 	sts	0x0241, r24	; 0x800241 <timer1_state>
     3e6:	08 95       	ret

000003e8 <TIMER_COUNTER1_compoutmodeA>:
     3e8:	9f b5       	in	r25, 0x2f	; 47
     3ea:	9f 73       	andi	r25, 0x3F	; 63
     3ec:	9f bd       	out	0x2f, r25	; 47
     3ee:	82 30       	cpi	r24, 0x02	; 2
     3f0:	41 f0       	breq	.+16     	; 0x402 <__LOCK_REGION_LENGTH__+0x2>
     3f2:	83 30       	cpi	r24, 0x03	; 3
     3f4:	51 f0       	breq	.+20     	; 0x40a <__LOCK_REGION_LENGTH__+0xa>
     3f6:	81 30       	cpi	r24, 0x01	; 1
     3f8:	59 f4       	brne	.+22     	; 0x410 <__LOCK_REGION_LENGTH__+0x10>
     3fa:	8f b5       	in	r24, 0x2f	; 47
     3fc:	80 64       	ori	r24, 0x40	; 64
     3fe:	8f bd       	out	0x2f, r24	; 47
     400:	08 95       	ret
     402:	8f b5       	in	r24, 0x2f	; 47
     404:	80 68       	ori	r24, 0x80	; 128
     406:	8f bd       	out	0x2f, r24	; 47
     408:	08 95       	ret
     40a:	8f b5       	in	r24, 0x2f	; 47
     40c:	80 6c       	ori	r24, 0xC0	; 192
     40e:	8f bd       	out	0x2f, r24	; 47
     410:	08 95       	ret

00000412 <TIMER_COUNTER1_compoutmodeB>:
     412:	9f b5       	in	r25, 0x2f	; 47
     414:	9f 7c       	andi	r25, 0xCF	; 207
     416:	9f bd       	out	0x2f, r25	; 47
     418:	82 30       	cpi	r24, 0x02	; 2
     41a:	41 f0       	breq	.+16     	; 0x42c <TIMER_COUNTER1_compoutmodeB+0x1a>
     41c:	83 30       	cpi	r24, 0x03	; 3
     41e:	51 f0       	breq	.+20     	; 0x434 <TIMER_COUNTER1_compoutmodeB+0x22>
     420:	81 30       	cpi	r24, 0x01	; 1
     422:	59 f4       	brne	.+22     	; 0x43a <TIMER_COUNTER1_compoutmodeB+0x28>
     424:	8f b5       	in	r24, 0x2f	; 47
     426:	80 61       	ori	r24, 0x10	; 16
     428:	8f bd       	out	0x2f, r24	; 47
     42a:	08 95       	ret
     42c:	8f b5       	in	r24, 0x2f	; 47
     42e:	80 62       	ori	r24, 0x20	; 32
     430:	8f bd       	out	0x2f, r24	; 47
     432:	08 95       	ret
     434:	8f b5       	in	r24, 0x2f	; 47
     436:	80 63       	ori	r24, 0x30	; 48
     438:	8f bd       	out	0x2f, r24	; 47
     43a:	08 95       	ret

0000043c <TIMER_COUNTER1_compoutmodeC>:
     43c:	9f b5       	in	r25, 0x2f	; 47
     43e:	93 7f       	andi	r25, 0xF3	; 243
     440:	9f bd       	out	0x2f, r25	; 47
     442:	82 30       	cpi	r24, 0x02	; 2
     444:	41 f0       	breq	.+16     	; 0x456 <TIMER_COUNTER1_compoutmodeC+0x1a>
     446:	83 30       	cpi	r24, 0x03	; 3
     448:	51 f0       	breq	.+20     	; 0x45e <TIMER_COUNTER1_compoutmodeC+0x22>
     44a:	81 30       	cpi	r24, 0x01	; 1
     44c:	59 f4       	brne	.+22     	; 0x464 <TIMER_COUNTER1_compoutmodeC+0x28>
     44e:	8f b5       	in	r24, 0x2f	; 47
     450:	84 60       	ori	r24, 0x04	; 4
     452:	8f bd       	out	0x2f, r24	; 47
     454:	08 95       	ret
     456:	8f b5       	in	r24, 0x2f	; 47
     458:	88 60       	ori	r24, 0x08	; 8
     45a:	8f bd       	out	0x2f, r24	; 47
     45c:	08 95       	ret
     45e:	8f b5       	in	r24, 0x2f	; 47
     460:	8c 60       	ori	r24, 0x0C	; 12
     462:	8f bd       	out	0x2f, r24	; 47
     464:	08 95       	ret

00000466 <TIMER_COUNTER1_compareA>:
     466:	9b bd       	out	0x2b, r25	; 43
     468:	8a bd       	out	0x2a, r24	; 42
     46a:	08 95       	ret

0000046c <TIMER_COUNTER1_compareB>:
     46c:	99 bd       	out	0x29, r25	; 41
     46e:	88 bd       	out	0x28, r24	; 40
     470:	08 95       	ret

00000472 <TIMER_COUNTER1_compareC>:
     472:	90 93 79 00 	sts	0x0079, r25	; 0x800079 <__TEXT_REGION_LENGTH__+0x7e0079>
     476:	80 93 78 00 	sts	0x0078, r24	; 0x800078 <__TEXT_REGION_LENGTH__+0x7e0078>
     47a:	08 95       	ret

0000047c <TIMER_COUNTER1_stop>:
     47c:	8e b5       	in	r24, 0x2e	; 46
     47e:	88 7f       	andi	r24, 0xF8	; 248
     480:	8e bd       	out	0x2e, r24	; 46
     482:	1d bc       	out	0x2d, r1	; 45
     484:	1c bc       	out	0x2c, r1	; 44
     486:	10 92 41 02 	sts	0x0241, r1	; 0x800241 <timer1_state>
     48a:	08 95       	ret

0000048c <TIMER_COUNTER1enable>:
     48c:	0f 93       	push	r16
     48e:	1f 93       	push	r17
     490:	dc 01       	movw	r26, r24
     492:	10 92 41 02 	sts	0x0241, r1	; 0x800241 <timer1_state>
     496:	8f b5       	in	r24, 0x2f	; 47
     498:	8c 7f       	andi	r24, 0xFC	; 252
     49a:	8f bd       	out	0x2f, r24	; 47
     49c:	8e b5       	in	r24, 0x2e	; 46
     49e:	87 7e       	andi	r24, 0xE7	; 231
     4a0:	8e bd       	out	0x2e, r24	; 46
     4a2:	06 2f       	mov	r16, r22
     4a4:	10 e0       	ldi	r17, 0x00	; 0
     4a6:	f8 01       	movw	r30, r16
     4a8:	31 97       	sbiw	r30, 0x01	; 1
     4aa:	ef 30       	cpi	r30, 0x0F	; 15
     4ac:	f1 05       	cpc	r31, r1
     4ae:	08 f0       	brcs	.+2      	; 0x4b2 <TIMER_COUNTER1enable+0x26>
     4b0:	5a c0       	rjmp	.+180    	; 0x566 <TIMER_COUNTER1enable+0xda>
     4b2:	ea 5b       	subi	r30, 0xBA	; 186
     4b4:	ff 4f       	sbci	r31, 0xFF	; 255
     4b6:	0c 94 28 1a 	jmp	0x3450	; 0x3450 <__tablejump2__>
     4ba:	8f b5       	in	r24, 0x2f	; 47
     4bc:	81 60       	ori	r24, 0x01	; 1
     4be:	8f bd       	out	0x2f, r24	; 47
     4c0:	52 c0       	rjmp	.+164    	; 0x566 <TIMER_COUNTER1enable+0xda>
     4c2:	8f b5       	in	r24, 0x2f	; 47
     4c4:	82 60       	ori	r24, 0x02	; 2
     4c6:	8f bd       	out	0x2f, r24	; 47
     4c8:	4e c0       	rjmp	.+156    	; 0x566 <TIMER_COUNTER1enable+0xda>
     4ca:	8f b5       	in	r24, 0x2f	; 47
     4cc:	83 60       	ori	r24, 0x03	; 3
     4ce:	8f bd       	out	0x2f, r24	; 47
     4d0:	4a c0       	rjmp	.+148    	; 0x566 <TIMER_COUNTER1enable+0xda>
     4d2:	8e b5       	in	r24, 0x2e	; 46
     4d4:	88 60       	ori	r24, 0x08	; 8
     4d6:	8e bd       	out	0x2e, r24	; 46
     4d8:	46 c0       	rjmp	.+140    	; 0x566 <TIMER_COUNTER1enable+0xda>
     4da:	8f b5       	in	r24, 0x2f	; 47
     4dc:	81 60       	ori	r24, 0x01	; 1
     4de:	8f bd       	out	0x2f, r24	; 47
     4e0:	8e b5       	in	r24, 0x2e	; 46
     4e2:	88 60       	ori	r24, 0x08	; 8
     4e4:	8e bd       	out	0x2e, r24	; 46
     4e6:	3f c0       	rjmp	.+126    	; 0x566 <TIMER_COUNTER1enable+0xda>
     4e8:	8f b5       	in	r24, 0x2f	; 47
     4ea:	82 60       	ori	r24, 0x02	; 2
     4ec:	8f bd       	out	0x2f, r24	; 47
     4ee:	8e b5       	in	r24, 0x2e	; 46
     4f0:	88 60       	ori	r24, 0x08	; 8
     4f2:	8e bd       	out	0x2e, r24	; 46
     4f4:	38 c0       	rjmp	.+112    	; 0x566 <TIMER_COUNTER1enable+0xda>
     4f6:	8f b5       	in	r24, 0x2f	; 47
     4f8:	83 60       	ori	r24, 0x03	; 3
     4fa:	8f bd       	out	0x2f, r24	; 47
     4fc:	8e b5       	in	r24, 0x2e	; 46
     4fe:	88 60       	ori	r24, 0x08	; 8
     500:	8e bd       	out	0x2e, r24	; 46
     502:	31 c0       	rjmp	.+98     	; 0x566 <TIMER_COUNTER1enable+0xda>
     504:	8e b5       	in	r24, 0x2e	; 46
     506:	80 61       	ori	r24, 0x10	; 16
     508:	8e bd       	out	0x2e, r24	; 46
     50a:	2d c0       	rjmp	.+90     	; 0x566 <TIMER_COUNTER1enable+0xda>
     50c:	8f b5       	in	r24, 0x2f	; 47
     50e:	81 60       	ori	r24, 0x01	; 1
     510:	8f bd       	out	0x2f, r24	; 47
     512:	8e b5       	in	r24, 0x2e	; 46
     514:	80 61       	ori	r24, 0x10	; 16
     516:	8e bd       	out	0x2e, r24	; 46
     518:	26 c0       	rjmp	.+76     	; 0x566 <TIMER_COUNTER1enable+0xda>
     51a:	8f b5       	in	r24, 0x2f	; 47
     51c:	82 60       	ori	r24, 0x02	; 2
     51e:	8f bd       	out	0x2f, r24	; 47
     520:	8e b5       	in	r24, 0x2e	; 46
     522:	80 61       	ori	r24, 0x10	; 16
     524:	8e bd       	out	0x2e, r24	; 46
     526:	1f c0       	rjmp	.+62     	; 0x566 <TIMER_COUNTER1enable+0xda>
     528:	8f b5       	in	r24, 0x2f	; 47
     52a:	83 60       	ori	r24, 0x03	; 3
     52c:	8f bd       	out	0x2f, r24	; 47
     52e:	8e b5       	in	r24, 0x2e	; 46
     530:	80 61       	ori	r24, 0x10	; 16
     532:	8e bd       	out	0x2e, r24	; 46
     534:	18 c0       	rjmp	.+48     	; 0x566 <TIMER_COUNTER1enable+0xda>
     536:	8e b5       	in	r24, 0x2e	; 46
     538:	88 61       	ori	r24, 0x18	; 24
     53a:	8e bd       	out	0x2e, r24	; 46
     53c:	14 c0       	rjmp	.+40     	; 0x566 <TIMER_COUNTER1enable+0xda>
     53e:	8f b5       	in	r24, 0x2f	; 47
     540:	81 60       	ori	r24, 0x01	; 1
     542:	8f bd       	out	0x2f, r24	; 47
     544:	8e b5       	in	r24, 0x2e	; 46
     546:	88 61       	ori	r24, 0x18	; 24
     548:	8e bd       	out	0x2e, r24	; 46
     54a:	0d c0       	rjmp	.+26     	; 0x566 <TIMER_COUNTER1enable+0xda>
     54c:	8f b5       	in	r24, 0x2f	; 47
     54e:	82 60       	ori	r24, 0x02	; 2
     550:	8f bd       	out	0x2f, r24	; 47
     552:	8e b5       	in	r24, 0x2e	; 46
     554:	88 61       	ori	r24, 0x18	; 24
     556:	8e bd       	out	0x2e, r24	; 46
     558:	06 c0       	rjmp	.+12     	; 0x566 <TIMER_COUNTER1enable+0xda>
     55a:	8f b5       	in	r24, 0x2f	; 47
     55c:	83 60       	ori	r24, 0x03	; 3
     55e:	8f bd       	out	0x2f, r24	; 47
     560:	8e b5       	in	r24, 0x2e	; 46
     562:	88 61       	ori	r24, 0x18	; 24
     564:	8e bd       	out	0x2e, r24	; 46
     566:	8f b5       	in	r24, 0x2f	; 47
     568:	83 70       	andi	r24, 0x03	; 3
     56a:	8f bd       	out	0x2f, r24	; 47
     56c:	87 b7       	in	r24, 0x37	; 55
     56e:	83 7c       	andi	r24, 0xC3	; 195
     570:	87 bf       	out	0x37, r24	; 55
     572:	ed e7       	ldi	r30, 0x7D	; 125
     574:	f0 e0       	ldi	r31, 0x00	; 0
     576:	80 81       	ld	r24, Z
     578:	8e 7f       	andi	r24, 0xFE	; 254
     57a:	80 83       	st	Z, r24
     57c:	50 e0       	ldi	r21, 0x00	; 0
     57e:	fa 01       	movw	r30, r20
     580:	31 97       	sbiw	r30, 0x01	; 1
     582:	ec 30       	cpi	r30, 0x0C	; 12
     584:	f1 05       	cpc	r31, r1
     586:	08 f0       	brcs	.+2      	; 0x58a <TIMER_COUNTER1enable+0xfe>
     588:	44 c0       	rjmp	.+136    	; 0x612 <TIMER_COUNTER1enable+0x186>
     58a:	eb 5a       	subi	r30, 0xAB	; 171
     58c:	ff 4f       	sbci	r31, 0xFF	; 255
     58e:	0c 94 28 1a 	jmp	0x3450	; 0x3450 <__tablejump2__>
     592:	87 b7       	in	r24, 0x37	; 55
     594:	84 60       	ori	r24, 0x04	; 4
     596:	87 bf       	out	0x37, r24	; 55
     598:	3c c0       	rjmp	.+120    	; 0x612 <TIMER_COUNTER1enable+0x186>
     59a:	87 b7       	in	r24, 0x37	; 55
     59c:	80 61       	ori	r24, 0x10	; 16
     59e:	87 bf       	out	0x37, r24	; 55
     5a0:	38 c0       	rjmp	.+112    	; 0x612 <TIMER_COUNTER1enable+0x186>
     5a2:	87 b7       	in	r24, 0x37	; 55
     5a4:	88 60       	ori	r24, 0x08	; 8
     5a6:	87 bf       	out	0x37, r24	; 55
     5a8:	34 c0       	rjmp	.+104    	; 0x612 <TIMER_COUNTER1enable+0x186>
     5aa:	ed e7       	ldi	r30, 0x7D	; 125
     5ac:	f0 e0       	ldi	r31, 0x00	; 0
     5ae:	80 81       	ld	r24, Z
     5b0:	81 60       	ori	r24, 0x01	; 1
     5b2:	80 83       	st	Z, r24
     5b4:	2e c0       	rjmp	.+92     	; 0x612 <TIMER_COUNTER1enable+0x186>
     5b6:	87 b7       	in	r24, 0x37	; 55
     5b8:	80 62       	ori	r24, 0x20	; 32
     5ba:	87 bf       	out	0x37, r24	; 55
     5bc:	2a c0       	rjmp	.+84     	; 0x612 <TIMER_COUNTER1enable+0x186>
     5be:	87 b7       	in	r24, 0x37	; 55
     5c0:	84 61       	ori	r24, 0x14	; 20
     5c2:	87 bf       	out	0x37, r24	; 55
     5c4:	26 c0       	rjmp	.+76     	; 0x612 <TIMER_COUNTER1enable+0x186>
     5c6:	87 b7       	in	r24, 0x37	; 55
     5c8:	8c 60       	ori	r24, 0x0C	; 12
     5ca:	87 bf       	out	0x37, r24	; 55
     5cc:	22 c0       	rjmp	.+68     	; 0x612 <TIMER_COUNTER1enable+0x186>
     5ce:	87 b7       	in	r24, 0x37	; 55
     5d0:	84 60       	ori	r24, 0x04	; 4
     5d2:	87 bf       	out	0x37, r24	; 55
     5d4:	ed e7       	ldi	r30, 0x7D	; 125
     5d6:	f0 e0       	ldi	r31, 0x00	; 0
     5d8:	80 81       	ld	r24, Z
     5da:	81 60       	ori	r24, 0x01	; 1
     5dc:	80 83       	st	Z, r24
     5de:	19 c0       	rjmp	.+50     	; 0x612 <TIMER_COUNTER1enable+0x186>
     5e0:	87 b7       	in	r24, 0x37	; 55
     5e2:	84 62       	ori	r24, 0x24	; 36
     5e4:	87 bf       	out	0x37, r24	; 55
     5e6:	15 c0       	rjmp	.+42     	; 0x612 <TIMER_COUNTER1enable+0x186>
     5e8:	87 b7       	in	r24, 0x37	; 55
     5ea:	8c 61       	ori	r24, 0x1C	; 28
     5ec:	87 bf       	out	0x37, r24	; 55
     5ee:	11 c0       	rjmp	.+34     	; 0x612 <TIMER_COUNTER1enable+0x186>
     5f0:	87 b7       	in	r24, 0x37	; 55
     5f2:	8c 61       	ori	r24, 0x1C	; 28
     5f4:	87 bf       	out	0x37, r24	; 55
     5f6:	ed e7       	ldi	r30, 0x7D	; 125
     5f8:	f0 e0       	ldi	r31, 0x00	; 0
     5fa:	80 81       	ld	r24, Z
     5fc:	81 60       	ori	r24, 0x01	; 1
     5fe:	80 83       	st	Z, r24
     600:	08 c0       	rjmp	.+16     	; 0x612 <TIMER_COUNTER1enable+0x186>
     602:	87 b7       	in	r24, 0x37	; 55
     604:	88 61       	ori	r24, 0x18	; 24
     606:	87 bf       	out	0x37, r24	; 55
     608:	ed e7       	ldi	r30, 0x7D	; 125
     60a:	f0 e0       	ldi	r31, 0x00	; 0
     60c:	80 81       	ld	r24, Z
     60e:	81 60       	ori	r24, 0x01	; 1
     610:	80 83       	st	Z, r24
     612:	84 ef       	ldi	r24, 0xF4	; 244
     614:	91 e0       	ldi	r25, 0x01	; 1
     616:	11 96       	adiw	r26, 0x01	; 1
     618:	9c 93       	st	X, r25
     61a:	8e 93       	st	-X, r24
     61c:	89 e0       	ldi	r24, 0x09	; 9
     61e:	92 e0       	ldi	r25, 0x02	; 2
     620:	13 96       	adiw	r26, 0x03	; 3
     622:	9c 93       	st	X, r25
     624:	8e 93       	st	-X, r24
     626:	12 97       	sbiw	r26, 0x02	; 2
     628:	8e e1       	ldi	r24, 0x1E	; 30
     62a:	92 e0       	ldi	r25, 0x02	; 2
     62c:	15 96       	adiw	r26, 0x05	; 5
     62e:	9c 93       	st	X, r25
     630:	8e 93       	st	-X, r24
     632:	14 97       	sbiw	r26, 0x04	; 4
     634:	83 e3       	ldi	r24, 0x33	; 51
     636:	92 e0       	ldi	r25, 0x02	; 2
     638:	17 96       	adiw	r26, 0x07	; 7
     63a:	9c 93       	st	X, r25
     63c:	8e 93       	st	-X, r24
     63e:	16 97       	sbiw	r26, 0x06	; 6
     640:	86 e3       	ldi	r24, 0x36	; 54
     642:	92 e0       	ldi	r25, 0x02	; 2
     644:	19 96       	adiw	r26, 0x09	; 9
     646:	9c 93       	st	X, r25
     648:	8e 93       	st	-X, r24
     64a:	18 97       	sbiw	r26, 0x08	; 8
     64c:	89 e3       	ldi	r24, 0x39	; 57
     64e:	92 e0       	ldi	r25, 0x02	; 2
     650:	1b 96       	adiw	r26, 0x0b	; 11
     652:	9c 93       	st	X, r25
     654:	8e 93       	st	-X, r24
     656:	1a 97       	sbiw	r26, 0x0a	; 10
     658:	8d ea       	ldi	r24, 0xAD	; 173
     65a:	91 e0       	ldi	r25, 0x01	; 1
     65c:	1d 96       	adiw	r26, 0x0d	; 13
     65e:	9c 93       	st	X, r25
     660:	8e 93       	st	-X, r24
     662:	1c 97       	sbiw	r26, 0x0c	; 12
     664:	8e e3       	ldi	r24, 0x3E	; 62
     666:	92 e0       	ldi	r25, 0x02	; 2
     668:	1f 96       	adiw	r26, 0x0f	; 15
     66a:	9c 93       	st	X, r25
     66c:	8e 93       	st	-X, r24
     66e:	1e 97       	sbiw	r26, 0x0e	; 14
     670:	cd 01       	movw	r24, r26
     672:	1f 91       	pop	r17
     674:	0f 91       	pop	r16
     676:	08 95       	ret

00000678 <__vector_16>:
/*
** interrupt
*/
// So that main will not freeze when not defined, but rather exclude.
//ISR(TIMER0_COMP_vect){ }
ISR(TIMER0_OVF_vect){ }
     678:	1f 92       	push	r1
     67a:	0f 92       	push	r0
     67c:	0f b6       	in	r0, 0x3f	; 63
     67e:	0f 92       	push	r0
     680:	11 24       	eor	r1, r1
     682:	0f 90       	pop	r0
     684:	0f be       	out	0x3f, r0	; 63
     686:	0f 90       	pop	r0
     688:	1f 90       	pop	r1
     68a:	18 95       	reti

0000068c <__vector_11>:
ISR(TIMER1_CAPT_vect){ }
     68c:	1f 92       	push	r1
     68e:	0f 92       	push	r0
     690:	0f b6       	in	r0, 0x3f	; 63
     692:	0f 92       	push	r0
     694:	11 24       	eor	r1, r1
     696:	0f 90       	pop	r0
     698:	0f be       	out	0x3f, r0	; 63
     69a:	0f 90       	pop	r0
     69c:	1f 90       	pop	r1
     69e:	18 95       	reti

000006a0 <__vector_12>:
ISR(TIMER1_COMPA_vect){ }
     6a0:	1f 92       	push	r1
     6a2:	0f 92       	push	r0
     6a4:	0f b6       	in	r0, 0x3f	; 63
     6a6:	0f 92       	push	r0
     6a8:	11 24       	eor	r1, r1
     6aa:	0f 90       	pop	r0
     6ac:	0f be       	out	0x3f, r0	; 63
     6ae:	0f 90       	pop	r0
     6b0:	1f 90       	pop	r1
     6b2:	18 95       	reti

000006b4 <__vector_13>:
ISR(TIMER1_COMPB_vect){ }
     6b4:	1f 92       	push	r1
     6b6:	0f 92       	push	r0
     6b8:	0f b6       	in	r0, 0x3f	; 63
     6ba:	0f 92       	push	r0
     6bc:	11 24       	eor	r1, r1
     6be:	0f 90       	pop	r0
     6c0:	0f be       	out	0x3f, r0	; 63
     6c2:	0f 90       	pop	r0
     6c4:	1f 90       	pop	r1
     6c6:	18 95       	reti

000006c8 <__vector_24>:
ISR(TIMER1_COMPC_vect){ }
     6c8:	1f 92       	push	r1
     6ca:	0f 92       	push	r0
     6cc:	0f b6       	in	r0, 0x3f	; 63
     6ce:	0f 92       	push	r0
     6d0:	11 24       	eor	r1, r1
     6d2:	0f 90       	pop	r0
     6d4:	0f be       	out	0x3f, r0	; 63
     6d6:	0f 90       	pop	r0
     6d8:	1f 90       	pop	r1
     6da:	18 95       	reti

000006dc <__vector_14>:
ISR(TIMER1_OVF_vect){ }
     6dc:	1f 92       	push	r1
     6de:	0f 92       	push	r0
     6e0:	0f b6       	in	r0, 0x3f	; 63
     6e2:	0f 92       	push	r0
     6e4:	11 24       	eor	r1, r1
     6e6:	0f 90       	pop	r0
     6e8:	0f be       	out	0x3f, r0	; 63
     6ea:	0f 90       	pop	r0
     6ec:	1f 90       	pop	r1
     6ee:	18 95       	reti

000006f0 <__vector_10>:
ISR(TIMER2_OVF_vect){ }
     6f0:	1f 92       	push	r1
     6f2:	0f 92       	push	r0
     6f4:	0f b6       	in	r0, 0x3f	; 63
     6f6:	0f 92       	push	r0
     6f8:	11 24       	eor	r1, r1
     6fa:	0f 90       	pop	r0
     6fc:	0f be       	out	0x3f, r0	; 63
     6fe:	0f 90       	pop	r0
     700:	1f 90       	pop	r1
     702:	18 95       	reti

00000704 <__vector_25>:
ISR(TIMER3_CAPT_vect){ }
     704:	1f 92       	push	r1
     706:	0f 92       	push	r0
     708:	0f b6       	in	r0, 0x3f	; 63
     70a:	0f 92       	push	r0
     70c:	11 24       	eor	r1, r1
     70e:	0f 90       	pop	r0
     710:	0f be       	out	0x3f, r0	; 63
     712:	0f 90       	pop	r0
     714:	1f 90       	pop	r1
     716:	18 95       	reti

00000718 <__vector_26>:
ISR(TIMER3_COMPA_vect){ }
     718:	1f 92       	push	r1
     71a:	0f 92       	push	r0
     71c:	0f b6       	in	r0, 0x3f	; 63
     71e:	0f 92       	push	r0
     720:	11 24       	eor	r1, r1
     722:	0f 90       	pop	r0
     724:	0f be       	out	0x3f, r0	; 63
     726:	0f 90       	pop	r0
     728:	1f 90       	pop	r1
     72a:	18 95       	reti

0000072c <__vector_27>:
ISR(TIMER3_COMPB_vect){ }
     72c:	1f 92       	push	r1
     72e:	0f 92       	push	r0
     730:	0f b6       	in	r0, 0x3f	; 63
     732:	0f 92       	push	r0
     734:	11 24       	eor	r1, r1
     736:	0f 90       	pop	r0
     738:	0f be       	out	0x3f, r0	; 63
     73a:	0f 90       	pop	r0
     73c:	1f 90       	pop	r1
     73e:	18 95       	reti

00000740 <__vector_28>:
ISR(TIMER3_COMPC_vect){ }
     740:	1f 92       	push	r1
     742:	0f 92       	push	r0
     744:	0f b6       	in	r0, 0x3f	; 63
     746:	0f 92       	push	r0
     748:	11 24       	eor	r1, r1
     74a:	0f 90       	pop	r0
     74c:	0f be       	out	0x3f, r0	; 63
     74e:	0f 90       	pop	r0
     750:	1f 90       	pop	r1
     752:	18 95       	reti

00000754 <__vector_29>:
ISR(TIMER3_OVF_vect){ }
     754:	1f 92       	push	r1
     756:	0f 92       	push	r0
     758:	0f b6       	in	r0, 0x3f	; 63
     75a:	0f 92       	push	r0
     75c:	11 24       	eor	r1, r1
     75e:	0f 90       	pop	r0
     760:	0f be       	out	0x3f, r0	; 63
     762:	0f 90       	pop	r0
     764:	1f 90       	pop	r1
     766:	18 95       	reti

00000768 <__vector_18>:
void uart1_puts_p(const char *progmem_s )
{
    register char c;
    while ( (c = pgm_read_byte(progmem_s++)) ) 
      uart1_putc(c);
}/* uart1_puts_p */
     768:	1f 92       	push	r1
     76a:	0f 92       	push	r0
     76c:	0f b6       	in	r0, 0x3f	; 63
     76e:	0f 92       	push	r0
     770:	11 24       	eor	r1, r1
     772:	0b b6       	in	r0, 0x3b	; 59
     774:	0f 92       	push	r0
     776:	8f 93       	push	r24
     778:	9f 93       	push	r25
     77a:	ef 93       	push	r30
     77c:	ff 93       	push	r31
     77e:	8b b1       	in	r24, 0x0b	; 11
     780:	9a b1       	in	r25, 0x0a	; 10
     782:	88 71       	andi	r24, 0x18	; 24
     784:	80 93 fc 01 	sts	0x01FC, r24	; 0x8001fc <UART_LastRxError>
     788:	e0 91 fe 01 	lds	r30, 0x01FE	; 0x8001fe <UART_RxHead>
     78c:	ef 5f       	subi	r30, 0xFF	; 255
     78e:	ef 71       	andi	r30, 0x1F	; 31
     790:	80 91 fd 01 	lds	r24, 0x01FD	; 0x8001fd <UART_RxTail>
     794:	e8 13       	cpse	r30, r24
     796:	04 c0       	rjmp	.+8      	; 0x7a0 <__vector_18+0x38>
     798:	82 e0       	ldi	r24, 0x02	; 2
     79a:	80 93 fc 01 	sts	0x01FC, r24	; 0x8001fc <UART_LastRxError>
     79e:	11 c0       	rjmp	.+34     	; 0x7c2 <__vector_18+0x5a>
     7a0:	9c b1       	in	r25, 0x0c	; 12
     7a2:	e0 93 fe 01 	sts	0x01FE, r30	; 0x8001fe <UART_RxHead>
     7a6:	80 91 fc 01 	lds	r24, 0x01FC	; 0x8001fc <UART_LastRxError>
     7aa:	88 23       	and	r24, r24
     7ac:	31 f0       	breq	.+12     	; 0x7ba <__vector_18+0x52>
     7ae:	f0 e0       	ldi	r31, 0x00	; 0
     7b0:	ef 5f       	subi	r30, 0xFF	; 255
     7b2:	fd 4f       	sbci	r31, 0xFD	; 253
     7b4:	88 e5       	ldi	r24, 0x58	; 88
     7b6:	80 83       	st	Z, r24
     7b8:	04 c0       	rjmp	.+8      	; 0x7c2 <__vector_18+0x5a>
     7ba:	f0 e0       	ldi	r31, 0x00	; 0
     7bc:	ef 5f       	subi	r30, 0xFF	; 255
     7be:	fd 4f       	sbci	r31, 0xFD	; 253
     7c0:	90 83       	st	Z, r25
     7c2:	ff 91       	pop	r31
     7c4:	ef 91       	pop	r30
     7c6:	9f 91       	pop	r25
     7c8:	8f 91       	pop	r24
     7ca:	0f 90       	pop	r0
     7cc:	0b be       	out	0x3b, r0	; 59
     7ce:	0f 90       	pop	r0
     7d0:	0f be       	out	0x3f, r0	; 63
     7d2:	0f 90       	pop	r0
     7d4:	1f 90       	pop	r1
     7d6:	18 95       	reti

000007d8 <__vector_19>:
     7d8:	1f 92       	push	r1
     7da:	0f 92       	push	r0
     7dc:	0f b6       	in	r0, 0x3f	; 63
     7de:	0f 92       	push	r0
     7e0:	11 24       	eor	r1, r1
     7e2:	0b b6       	in	r0, 0x3b	; 59
     7e4:	0f 92       	push	r0
     7e6:	8f 93       	push	r24
     7e8:	9f 93       	push	r25
     7ea:	ef 93       	push	r30
     7ec:	ff 93       	push	r31
     7ee:	90 91 00 02 	lds	r25, 0x0200	; 0x800200 <UART_TxHead>
     7f2:	80 91 ff 01 	lds	r24, 0x01FF	; 0x8001ff <UART_TxTail>
     7f6:	98 13       	cpse	r25, r24
     7f8:	02 c0       	rjmp	.+4      	; 0x7fe <__vector_19+0x26>
     7fa:	55 98       	cbi	0x0a, 5	; 10
     7fc:	0b c0       	rjmp	.+22     	; 0x814 <__vector_19+0x3c>
     7fe:	e0 91 ff 01 	lds	r30, 0x01FF	; 0x8001ff <UART_TxTail>
     802:	ef 5f       	subi	r30, 0xFF	; 255
     804:	ef 71       	andi	r30, 0x1F	; 31
     806:	e0 93 ff 01 	sts	0x01FF, r30	; 0x8001ff <UART_TxTail>
     80a:	f0 e0       	ldi	r31, 0x00	; 0
     80c:	ef 5d       	subi	r30, 0xDF	; 223
     80e:	fd 4f       	sbci	r31, 0xFD	; 253
     810:	80 81       	ld	r24, Z
     812:	8c b9       	out	0x0c, r24	; 12
     814:	ff 91       	pop	r31
     816:	ef 91       	pop	r30
     818:	9f 91       	pop	r25
     81a:	8f 91       	pop	r24
     81c:	0f 90       	pop	r0
     81e:	0b be       	out	0x3b, r0	; 59
     820:	0f 90       	pop	r0
     822:	0f be       	out	0x3f, r0	; 63
     824:	0f 90       	pop	r0
     826:	1f 90       	pop	r1
     828:	18 95       	reti

0000082a <__vector_30>:
SIGNAL(UART1_RECEIVE_INTERRUPT)
/*************************************************************************
Function: UART1 Receive Complete interrupt
Purpose:  called when the UART1 has received a character
**************************************************************************/
{
     82a:	1f 92       	push	r1
     82c:	0f 92       	push	r0
     82e:	0f b6       	in	r0, 0x3f	; 63
     830:	0f 92       	push	r0
     832:	11 24       	eor	r1, r1
     834:	0b b6       	in	r0, 0x3b	; 59
     836:	0f 92       	push	r0
     838:	8f 93       	push	r24
     83a:	9f 93       	push	r25
     83c:	ef 93       	push	r30
     83e:	ff 93       	push	r31
    unsigned char tmphead;
	unsigned char data;
	unsigned char bit9;
    unsigned char usr;
    /* read UART status register and UART data register */
	usr  = UART1_STATUS;
     840:	80 91 9b 00 	lds	r24, 0x009B	; 0x80009b <__TEXT_REGION_LENGTH__+0x7e009b>
    bit9 = UART1_CONTROL;
     844:	90 91 9a 00 	lds	r25, 0x009A	; 0x80009a <__TEXT_REGION_LENGTH__+0x7e009a>
    bit9 = 0x01 & (bit9>>1);
    /* */
    UART1_LastRxError = (usr & (_BV(FE1)|_BV(DOR1)));
     848:	88 71       	andi	r24, 0x18	; 24
     84a:	80 93 b7 01 	sts	0x01B7, r24	; 0x8001b7 <UART1_LastRxError>
	/* calculate buffer index */
    tmphead = ( UART1_RxHead + 1) & UART_RX_BUFFER_MASK;
     84e:	e0 91 b9 01 	lds	r30, 0x01B9	; 0x8001b9 <UART1_RxHead>
     852:	ef 5f       	subi	r30, 0xFF	; 255
     854:	ef 71       	andi	r30, 0x1F	; 31
    if ( tmphead == UART1_RxTail ) {	
     856:	80 91 b8 01 	lds	r24, 0x01B8	; 0x8001b8 <UART1_RxTail>
     85a:	e8 13       	cpse	r30, r24
     85c:	04 c0       	rjmp	.+8      	; 0x866 <__vector_30+0x3c>
        /* error: receive buffer overflow, caracter is lost*/
        UART1_LastRxError = UART_BUFFER_OVERFLOW >> 8; 
     85e:	82 e0       	ldi	r24, 0x02	; 2
     860:	80 93 b7 01 	sts	0x01B7, r24	; 0x8001b7 <UART1_LastRxError>
     864:	12 c0       	rjmp	.+36     	; 0x88a <__vector_30+0x60>
	}else{
		data = UART1_DATA;
     866:	90 91 9c 00 	lds	r25, 0x009C	; 0x80009c <__TEXT_REGION_LENGTH__+0x7e009c>
        /* store new index */
        UART1_RxHead = tmphead;
     86a:	e0 93 b9 01 	sts	0x01B9, r30	; 0x8001b9 <UART1_RxHead>
		if(UART1_LastRxError){
     86e:	80 91 b7 01 	lds	r24, 0x01B7	; 0x8001b7 <UART1_LastRxError>
     872:	88 23       	and	r24, r24
     874:	31 f0       	breq	.+12     	; 0x882 <__vector_30+0x58>
			/* store indication data error in buffer */
			UART1_RxBuf[tmphead] = 'X';
     876:	f0 e0       	ldi	r31, 0x00	; 0
     878:	e4 54       	subi	r30, 0x44	; 68
     87a:	fe 4f       	sbci	r31, 0xFE	; 254
     87c:	88 e5       	ldi	r24, 0x58	; 88
     87e:	80 83       	st	Z, r24
     880:	04 c0       	rjmp	.+8      	; 0x88a <__vector_30+0x60>
		}else{
			/* store received data in buffer */
			UART1_RxBuf[tmphead] = data;
     882:	f0 e0       	ldi	r31, 0x00	; 0
     884:	e4 54       	subi	r30, 0x44	; 68
     886:	fe 4f       	sbci	r31, 0xFE	; 254
     888:	90 83       	st	Z, r25
		}
    }
}
     88a:	ff 91       	pop	r31
     88c:	ef 91       	pop	r30
     88e:	9f 91       	pop	r25
     890:	8f 91       	pop	r24
     892:	0f 90       	pop	r0
     894:	0b be       	out	0x3b, r0	; 59
     896:	0f 90       	pop	r0
     898:	0f be       	out	0x3f, r0	; 63
     89a:	0f 90       	pop	r0
     89c:	1f 90       	pop	r1
     89e:	18 95       	reti

000008a0 <__vector_31>:
SIGNAL(UART1_TRANSMIT_INTERRUPT)
/*************************************************************************
Function: UART1 Data Register Empty interrupt
Purpose:  called when the UART1 is ready to transmit the next byte
**************************************************************************/
{
     8a0:	1f 92       	push	r1
     8a2:	0f 92       	push	r0
     8a4:	0f b6       	in	r0, 0x3f	; 63
     8a6:	0f 92       	push	r0
     8a8:	11 24       	eor	r1, r1
     8aa:	0b b6       	in	r0, 0x3b	; 59
     8ac:	0f 92       	push	r0
     8ae:	8f 93       	push	r24
     8b0:	9f 93       	push	r25
     8b2:	ef 93       	push	r30
     8b4:	ff 93       	push	r31
    if ( UART1_TxHead == UART1_TxTail ) {
     8b6:	90 91 bb 01 	lds	r25, 0x01BB	; 0x8001bb <UART1_TxHead>
     8ba:	80 91 ba 01 	lds	r24, 0x01BA	; 0x8001ba <UART1_TxTail>
     8be:	98 13       	cpse	r25, r24
     8c0:	06 c0       	rjmp	.+12     	; 0x8ce <__vector_31+0x2e>
        /* tx buffer empty, disable UDRE interrupt */
        UART1_CONTROL &= ~_BV(UART1_UDRIE);
     8c2:	ea e9       	ldi	r30, 0x9A	; 154
     8c4:	f0 e0       	ldi	r31, 0x00	; 0
     8c6:	80 81       	ld	r24, Z
     8c8:	8f 7d       	andi	r24, 0xDF	; 223
     8ca:	80 83       	st	Z, r24
     8cc:	0e c0       	rjmp	.+28     	; 0x8ea <__vector_31+0x4a>
    }else{
		/* calculate and store new buffer index */
        UART1_TxTail = (UART1_TxTail + 1) & UART_TX_BUFFER_MASK;
     8ce:	80 91 ba 01 	lds	r24, 0x01BA	; 0x8001ba <UART1_TxTail>
     8d2:	8f 5f       	subi	r24, 0xFF	; 255
     8d4:	8f 71       	andi	r24, 0x1F	; 31
     8d6:	80 93 ba 01 	sts	0x01BA, r24	; 0x8001ba <UART1_TxTail>
        /* get one byte from buffer and write it to UART */
		UART1_DATA = UART1_TxBuf[UART1_TxTail];  /* start transmission */
     8da:	e0 91 ba 01 	lds	r30, 0x01BA	; 0x8001ba <UART1_TxTail>
     8de:	f0 e0       	ldi	r31, 0x00	; 0
     8e0:	e4 52       	subi	r30, 0x24	; 36
     8e2:	fe 4f       	sbci	r31, 0xFE	; 254
     8e4:	80 81       	ld	r24, Z
     8e6:	80 93 9c 00 	sts	0x009C, r24	; 0x80009c <__TEXT_REGION_LENGTH__+0x7e009c>
	}
}
     8ea:	ff 91       	pop	r31
     8ec:	ef 91       	pop	r30
     8ee:	9f 91       	pop	r25
     8f0:	8f 91       	pop	r24
     8f2:	0f 90       	pop	r0
     8f4:	0b be       	out	0x3b, r0	; 59
     8f6:	0f 90       	pop	r0
     8f8:	0f be       	out	0x3f, r0	; 63
     8fa:	0f 90       	pop	r0
     8fc:	1f 90       	pop	r1
     8fe:	18 95       	reti

00000900 <FUNCpinmatch>:
}
//pinmatch
uint8_t FUNCpinmatch(uint8_t match, uint8_t pin, uint8_t HL)
{
	uint8_t result;
	result=match&pin;
     900:	68 23       	and	r22, r24
	if(HL){
     902:	44 23       	and	r20, r20
     904:	21 f0       	breq	.+8      	; 0x90e <FUNCpinmatch+0xe>
		if(result==match);
     906:	86 17       	cp	r24, r22
     908:	21 f0       	breq	.+8      	; 0x912 <FUNCpinmatch+0x12>
		else
			result=0;
     90a:	80 e0       	ldi	r24, 0x00	; 0
     90c:	08 95       	ret
	}else{
		if(result)
     90e:	61 11       	cpse	r22, r1
			result=0;
     910:	80 e0       	ldi	r24, 0x00	; 0
		else
			result=match;
	}
	return result;
}
     912:	08 95       	ret

00000914 <FUNChmerge>:
// hmerge
uint8_t FUNChmerge(uint8_t X, uint8_t Y)
{
	return (X | Y);
}
     914:	86 2b       	or	r24, r22
     916:	08 95       	ret

00000918 <FUNClmerge>:
// lmerge
uint8_t FUNClmerge(uint8_t X, uint8_t Y)
{
	return (X & Y);
}
     918:	86 23       	and	r24, r22
     91a:	08 95       	ret

0000091c <FUNChh>:
uint8_t FUNChh(uint8_t xi, uint8_t xf)
{
	uint8_t i;
	i=xi&xf;
	return i;
}
     91c:	86 23       	and	r24, r22
     91e:	08 95       	ret

00000920 <FUNCll>:
// ll
uint8_t FUNCll(uint8_t xi, uint8_t xf)
{
	uint8_t i;
	i=xi|xf;
	return ~i;
     920:	86 2b       	or	r24, r22
}
     922:	80 95       	com	r24
     924:	08 95       	ret

00000926 <FUNClh>:
// lh
uint8_t FUNClh(uint8_t xi, uint8_t xf)
{
	uint8_t i;
	i=xi^xf;
     926:	86 27       	eor	r24, r22
	i&=xf;
	return i;
}
     928:	86 23       	and	r24, r22
     92a:	08 95       	ret

0000092c <FUNChl>:
// hl
uint8_t FUNChl(uint8_t xi, uint8_t xf)
{
	uint8_t i;
	i=xf^xi;
     92c:	60 95       	com	r22
	i&=xi;
	return i;
}
     92e:	86 23       	and	r24, r22
     930:	08 95       	ret

00000932 <FUNCdiff>:
// diff
uint8_t FUNCdiff(uint8_t xi, uint8_t xf)
{
	return xf^xi;
}
     932:	86 27       	eor	r24, r22
     934:	08 95       	ret

00000936 <FUNCswap>:
// interchange *px and *py
void FUNCswap(long *px, long *py)
{
     936:	cf 92       	push	r12
     938:	df 92       	push	r13
     93a:	ef 92       	push	r14
     93c:	ff 92       	push	r15
     93e:	0f 93       	push	r16
     940:	1f 93       	push	r17
	long temp;
	temp = *px;
     942:	fc 01       	movw	r30, r24
     944:	00 81       	ld	r16, Z
     946:	11 81       	ldd	r17, Z+1	; 0x01
     948:	22 81       	ldd	r18, Z+2	; 0x02
     94a:	33 81       	ldd	r19, Z+3	; 0x03
	*px = *py;
     94c:	fb 01       	movw	r30, r22
     94e:	c0 80       	ld	r12, Z
     950:	d1 80       	ldd	r13, Z+1	; 0x01
     952:	e2 80       	ldd	r14, Z+2	; 0x02
     954:	f3 80       	ldd	r15, Z+3	; 0x03
     956:	fc 01       	movw	r30, r24
     958:	c0 82       	st	Z, r12
     95a:	d1 82       	std	Z+1, r13	; 0x01
     95c:	e2 82       	std	Z+2, r14	; 0x02
     95e:	f3 82       	std	Z+3, r15	; 0x03
	*py = temp;
     960:	fb 01       	movw	r30, r22
     962:	00 83       	st	Z, r16
     964:	11 83       	std	Z+1, r17	; 0x01
     966:	22 83       	std	Z+2, r18	; 0x02
     968:	33 83       	std	Z+3, r19	; 0x03
}
     96a:	1f 91       	pop	r17
     96c:	0f 91       	pop	r16
     96e:	ff 90       	pop	r15
     970:	ef 90       	pop	r14
     972:	df 90       	pop	r13
     974:	cf 90       	pop	r12
     976:	08 95       	ret

00000978 <FUNCcopy>:
// copy: copy 'from' into 'to'; assume to is big enough
void FUNCcopy(char to[], char from[])
{
	int i;
	i = 0;
	while ((to[i] = from[i]) != '\0')
     978:	fb 01       	movw	r30, r22
     97a:	20 81       	ld	r18, Z
     97c:	fc 01       	movw	r30, r24
     97e:	20 83       	st	Z, r18
     980:	22 23       	and	r18, r18
     982:	39 f0       	breq	.+14     	; 0x992 <FUNCcopy+0x1a>
     984:	db 01       	movw	r26, r22
     986:	11 96       	adiw	r26, 0x01	; 1
     988:	31 96       	adiw	r30, 0x01	; 1
     98a:	9d 91       	ld	r25, X+
     98c:	91 93       	st	Z+, r25
     98e:	91 11       	cpse	r25, r1
     990:	fc cf       	rjmp	.-8      	; 0x98a <FUNCcopy+0x12>
     992:	08 95       	ret

00000994 <FUNCsqueeze>:
		++i;
}
// squeeze: delete all c from s
void FUNCsqueeze(char s[], int c)
{
     994:	cf 93       	push	r28
     996:	df 93       	push	r29
     998:	ec 01       	movw	r28, r24
	int i, j;
	for (i = j = 0; s[i] != '\0'; i++)
     99a:	98 81       	ld	r25, Y
     99c:	99 23       	and	r25, r25
     99e:	99 f0       	breq	.+38     	; 0x9c6 <FUNCsqueeze+0x32>
     9a0:	fe 01       	movw	r30, r28
     9a2:	31 96       	adiw	r30, 0x01	; 1
     9a4:	20 e0       	ldi	r18, 0x00	; 0
     9a6:	30 e0       	ldi	r19, 0x00	; 0
		if (s[i] != c)
     9a8:	49 2f       	mov	r20, r25
     9aa:	50 e0       	ldi	r21, 0x00	; 0
     9ac:	46 17       	cp	r20, r22
     9ae:	57 07       	cpc	r21, r23
     9b0:	31 f0       	breq	.+12     	; 0x9be <FUNCsqueeze+0x2a>
			s[j++] = s[i];
     9b2:	de 01       	movw	r26, r28
     9b4:	a2 0f       	add	r26, r18
     9b6:	b3 1f       	adc	r27, r19
     9b8:	9c 93       	st	X, r25
     9ba:	2f 5f       	subi	r18, 0xFF	; 255
     9bc:	3f 4f       	sbci	r19, 0xFF	; 255
}
// squeeze: delete all c from s
void FUNCsqueeze(char s[], int c)
{
	int i, j;
	for (i = j = 0; s[i] != '\0'; i++)
     9be:	91 91       	ld	r25, Z+
     9c0:	91 11       	cpse	r25, r1
     9c2:	f2 cf       	rjmp	.-28     	; 0x9a8 <FUNCsqueeze+0x14>
     9c4:	02 c0       	rjmp	.+4      	; 0x9ca <FUNCsqueeze+0x36>
     9c6:	20 e0       	ldi	r18, 0x00	; 0
     9c8:	30 e0       	ldi	r19, 0x00	; 0
		if (s[i] != c)
			s[j++] = s[i];
		s[j] = '\0';
     9ca:	fe 01       	movw	r30, r28
     9cc:	e2 0f       	add	r30, r18
     9ce:	f3 1f       	adc	r31, r19
     9d0:	10 82       	st	Z, r1
}
     9d2:	df 91       	pop	r29
     9d4:	cf 91       	pop	r28
     9d6:	08 95       	ret

000009d8 <FUNCshellsort>:
// shellsort: sort v[0]...v[n-1] into increasing order
void FUNCshellsort(int v[], int n)
{
     9d8:	2f 92       	push	r2
     9da:	3f 92       	push	r3
     9dc:	4f 92       	push	r4
     9de:	5f 92       	push	r5
     9e0:	6f 92       	push	r6
     9e2:	7f 92       	push	r7
     9e4:	8f 92       	push	r8
     9e6:	9f 92       	push	r9
     9e8:	af 92       	push	r10
     9ea:	bf 92       	push	r11
     9ec:	cf 92       	push	r12
     9ee:	df 92       	push	r13
     9f0:	ef 92       	push	r14
     9f2:	ff 92       	push	r15
     9f4:	0f 93       	push	r16
     9f6:	1f 93       	push	r17
     9f8:	cf 93       	push	r28
     9fa:	df 93       	push	r29
     9fc:	00 d0       	rcall	.+0      	; 0x9fe <FUNCshellsort+0x26>
     9fe:	00 d0       	rcall	.+0      	; 0xa00 <FUNCshellsort+0x28>
     a00:	cd b7       	in	r28, 0x3d	; 61
     a02:	de b7       	in	r29, 0x3e	; 62
     a04:	2c 01       	movw	r4, r24
     a06:	1b 01       	movw	r2, r22
	int gap, i, j, temp;
	for (gap = n/2; gap > 0; gap /= 2)
     a08:	4b 01       	movw	r8, r22
     a0a:	77 23       	and	r23, r23
     a0c:	1c f4       	brge	.+6      	; 0xa14 <FUNCshellsort+0x3c>
     a0e:	2f ef       	ldi	r18, 0xFF	; 255
     a10:	82 1a       	sub	r8, r18
     a12:	92 0a       	sbc	r9, r18
     a14:	95 94       	asr	r9
     a16:	87 94       	ror	r8
     a18:	18 14       	cp	r1, r8
     a1a:	19 04       	cpc	r1, r9
     a1c:	0c f4       	brge	.+2      	; 0xa20 <FUNCshellsort+0x48>
     a1e:	51 c0       	rjmp	.+162    	; 0xac2 <FUNCshellsort+0xea>
     a20:	6a c0       	rjmp	.+212    	; 0xaf6 <FUNCshellsort+0x11e>
		for (i = gap; i < n; i++)
			for (j=i-gap; j>=0 && v[j]>v[j+gap]; j-=gap){
     a22:	96 01       	movw	r18, r12
     a24:	dd 20       	and	r13, r13
     a26:	9c f1       	brlt	.+102    	; 0xa8e <FUNCshellsort+0xb6>
     a28:	f5 01       	movw	r30, r10
     a2a:	40 81       	ld	r20, Z
     a2c:	51 81       	ldd	r21, Z+1	; 0x01
     a2e:	f4 01       	movw	r30, r8
     a30:	60 81       	ld	r22, Z
     a32:	71 81       	ldd	r23, Z+1	; 0x01
     a34:	64 17       	cp	r22, r20
     a36:	75 07       	cpc	r23, r21
     a38:	54 f5       	brge	.+84     	; 0xa8e <FUNCshellsort+0xb6>
     a3a:	8c 01       	movw	r16, r24
     a3c:	0a 0d       	add	r16, r10
     a3e:	1b 1d       	adc	r17, r11
     a40:	d4 01       	movw	r26, r8
     a42:	bc 82       	std	Y+4, r11	; 0x04
     a44:	ab 82       	std	Y+3, r10	; 0x03
     a46:	ba 82       	std	Y+2, r11	; 0x02
     a48:	a9 82       	std	Y+1, r10	; 0x01
				temp = v[j];
				v[j] = v[j+gap];
     a4a:	eb 81       	ldd	r30, Y+3	; 0x03
     a4c:	fc 81       	ldd	r31, Y+4	; 0x04
     a4e:	71 83       	std	Z+1, r23	; 0x01
     a50:	60 83       	st	Z, r22
				v[j+gap] = temp;
     a52:	11 96       	adiw	r26, 0x01	; 1
     a54:	5c 93       	st	X, r21
     a56:	4e 93       	st	-X, r20
void FUNCshellsort(int v[], int n)
{
	int gap, i, j, temp;
	for (gap = n/2; gap > 0; gap /= 2)
		for (i = gap; i < n; i++)
			for (j=i-gap; j>=0 && v[j]>v[j+gap]; j-=gap){
     a58:	2e 19       	sub	r18, r14
     a5a:	3f 09       	sbc	r19, r15
     a5c:	c2 f0       	brmi	.+48     	; 0xa8e <FUNCshellsort+0xb6>
     a5e:	f8 01       	movw	r30, r16
     a60:	40 81       	ld	r20, Z
     a62:	51 81       	ldd	r21, Z+1	; 0x01
     a64:	e9 81       	ldd	r30, Y+1	; 0x01
     a66:	fa 81       	ldd	r31, Y+2	; 0x02
     a68:	60 81       	ld	r22, Z
     a6a:	71 81       	ldd	r23, Z+1	; 0x01
     a6c:	08 0f       	add	r16, r24
     a6e:	19 1f       	adc	r17, r25
     a70:	e8 0f       	add	r30, r24
     a72:	f9 1f       	adc	r31, r25
     a74:	fa 83       	std	Y+2, r31	; 0x02
     a76:	e9 83       	std	Y+1, r30	; 0x01
     a78:	eb 81       	ldd	r30, Y+3	; 0x03
     a7a:	fc 81       	ldd	r31, Y+4	; 0x04
     a7c:	e8 0f       	add	r30, r24
     a7e:	f9 1f       	adc	r31, r25
     a80:	fc 83       	std	Y+4, r31	; 0x04
     a82:	eb 83       	std	Y+3, r30	; 0x03
     a84:	a8 0f       	add	r26, r24
     a86:	b9 1f       	adc	r27, r25
     a88:	64 17       	cp	r22, r20
     a8a:	75 07       	cpc	r23, r21
     a8c:	f4 f2       	brlt	.-68     	; 0xa4a <FUNCshellsort+0x72>
     a8e:	ff ef       	ldi	r31, 0xFF	; 255
     a90:	cf 1a       	sub	r12, r31
     a92:	df 0a       	sbc	r13, r31
     a94:	22 e0       	ldi	r18, 0x02	; 2
     a96:	a2 0e       	add	r10, r18
     a98:	b1 1c       	adc	r11, r1
     a9a:	e2 e0       	ldi	r30, 0x02	; 2
     a9c:	8e 0e       	add	r8, r30
     a9e:	91 1c       	adc	r9, r1
// shellsort: sort v[0]...v[n-1] into increasing order
void FUNCshellsort(int v[], int n)
{
	int gap, i, j, temp;
	for (gap = n/2; gap > 0; gap /= 2)
		for (i = gap; i < n; i++)
     aa0:	c6 14       	cp	r12, r6
     aa2:	d7 04       	cpc	r13, r7
     aa4:	09 f0       	breq	.+2      	; 0xaa8 <FUNCshellsort+0xd0>
     aa6:	bd cf       	rjmp	.-134    	; 0xa22 <FUNCshellsort+0x4a>
}
// shellsort: sort v[0]...v[n-1] into increasing order
void FUNCshellsort(int v[], int n)
{
	int gap, i, j, temp;
	for (gap = n/2; gap > 0; gap /= 2)
     aa8:	47 01       	movw	r8, r14
     aaa:	ff 20       	and	r15, r15
     aac:	1c f4       	brge	.+6      	; 0xab4 <FUNCshellsort+0xdc>
     aae:	ff ef       	ldi	r31, 0xFF	; 255
     ab0:	8f 1a       	sub	r8, r31
     ab2:	9f 0a       	sbc	r9, r31
     ab4:	95 94       	asr	r9
     ab6:	87 94       	ror	r8
     ab8:	18 14       	cp	r1, r8
     aba:	19 04       	cpc	r1, r9
     abc:	e4 f4       	brge	.+56     	; 0xaf6 <FUNCshellsort+0x11e>
     abe:	74 01       	movw	r14, r8
     ac0:	01 c0       	rjmp	.+2      	; 0xac4 <FUNCshellsort+0xec>
     ac2:	74 01       	movw	r14, r8
		for (i = gap; i < n; i++)
     ac4:	82 14       	cp	r8, r2
     ac6:	93 04       	cpc	r9, r3
     ac8:	7c f7       	brge	.-34     	; 0xaa8 <FUNCshellsort+0xd0>
     aca:	64 01       	movw	r12, r8
     acc:	ce 18       	sub	r12, r14
     ace:	df 08       	sbc	r13, r15
     ad0:	56 01       	movw	r10, r12
     ad2:	aa 0c       	add	r10, r10
     ad4:	bb 1c       	adc	r11, r11
     ad6:	a4 0c       	add	r10, r4
     ad8:	b5 1c       	adc	r11, r5
     ada:	88 0c       	add	r8, r8
     adc:	99 1c       	adc	r9, r9
     ade:	84 0c       	add	r8, r4
     ae0:	95 1c       	adc	r9, r5
     ae2:	31 01       	movw	r6, r2
     ae4:	6e 18       	sub	r6, r14
     ae6:	7f 08       	sbc	r7, r15
     ae8:	c7 01       	movw	r24, r14
     aea:	88 0f       	add	r24, r24
     aec:	99 1f       	adc	r25, r25
     aee:	91 95       	neg	r25
     af0:	81 95       	neg	r24
     af2:	91 09       	sbc	r25, r1
     af4:	96 cf       	rjmp	.-212    	; 0xa22 <FUNCshellsort+0x4a>
			for (j=i-gap; j>=0 && v[j]>v[j+gap]; j-=gap){
				temp = v[j];
				v[j] = v[j+gap];
				v[j+gap] = temp;
			}
}
     af6:	0f 90       	pop	r0
     af8:	0f 90       	pop	r0
     afa:	0f 90       	pop	r0
     afc:	0f 90       	pop	r0
     afe:	df 91       	pop	r29
     b00:	cf 91       	pop	r28
     b02:	1f 91       	pop	r17
     b04:	0f 91       	pop	r16
     b06:	ff 90       	pop	r15
     b08:	ef 90       	pop	r14
     b0a:	df 90       	pop	r13
     b0c:	cf 90       	pop	r12
     b0e:	bf 90       	pop	r11
     b10:	af 90       	pop	r10
     b12:	9f 90       	pop	r9
     b14:	8f 90       	pop	r8
     b16:	7f 90       	pop	r7
     b18:	6f 90       	pop	r6
     b1a:	5f 90       	pop	r5
     b1c:	4f 90       	pop	r4
     b1e:	3f 90       	pop	r3
     b20:	2f 90       	pop	r2
     b22:	08 95       	ret

00000b24 <FUNCpmax>:
	if(a1 > a2){
		biggest = a1;
	}else{
		biggest = a2;
	}
	return biggest;
     b24:	86 17       	cp	r24, r22
     b26:	97 07       	cpc	r25, r23
     b28:	0c f4       	brge	.+2      	; 0xb2c <FUNCpmax+0x8>
     b2a:	cb 01       	movw	r24, r22
}
     b2c:	08 95       	ret

00000b2e <FUNCgcd>:
// common divisor
int FUNCgcd (int u, int v)
{
     b2e:	9b 01       	movw	r18, r22
	int temp;
	while ( v != 0 ) {
     b30:	67 2b       	or	r22, r23
     b32:	11 f4       	brne	.+4      	; 0xb38 <FUNCgcd+0xa>
     b34:	08 95       	ret
		temp = u % v;
		u = v;
		v = temp;
     b36:	9a 01       	movw	r18, r20
// common divisor
int FUNCgcd (int u, int v)
{
	int temp;
	while ( v != 0 ) {
		temp = u % v;
     b38:	b9 01       	movw	r22, r18
     b3a:	0e 94 d7 19 	call	0x33ae	; 0x33ae <__divmodhi4>
     b3e:	ac 01       	movw	r20, r24
     b40:	82 2f       	mov	r24, r18
     b42:	93 2f       	mov	r25, r19
}
// common divisor
int FUNCgcd (int u, int v)
{
	int temp;
	while ( v != 0 ) {
     b44:	41 15       	cp	r20, r1
     b46:	51 05       	cpc	r21, r1
     b48:	b1 f7       	brne	.-20     	; 0xb36 <FUNCgcd+0x8>
		temp = u % v;
		u = v;
		v = temp;
	}
	return u;
}
     b4a:	08 95       	ret

00000b4c <FUNCstrToInt>:
// Function to convert a string to an integer
int FUNCstrToInt (const char string[])
{
     b4c:	fc 01       	movw	r30, r24
	int i, intValue, result = 0;
	for ( i = 0; string[i] >= '0' && string[i] <= '9'; ++i ){
     b4e:	90 81       	ld	r25, Z
     b50:	80 ed       	ldi	r24, 0xD0	; 208
     b52:	89 0f       	add	r24, r25
     b54:	8a 30       	cpi	r24, 0x0A	; 10
     b56:	d0 f4       	brcc	.+52     	; 0xb8c <FUNCstrToInt+0x40>
     b58:	31 96       	adiw	r30, 0x01	; 1
     b5a:	20 e0       	ldi	r18, 0x00	; 0
     b5c:	30 e0       	ldi	r19, 0x00	; 0
		intValue = string[i] - '0';
		result = result * 10 + intValue;
     b5e:	a9 01       	movw	r20, r18
     b60:	44 0f       	add	r20, r20
     b62:	55 1f       	adc	r21, r21
     b64:	22 0f       	add	r18, r18
     b66:	33 1f       	adc	r19, r19
     b68:	22 0f       	add	r18, r18
     b6a:	33 1f       	adc	r19, r19
     b6c:	22 0f       	add	r18, r18
     b6e:	33 1f       	adc	r19, r19
     b70:	42 0f       	add	r20, r18
     b72:	53 1f       	adc	r21, r19
     b74:	29 2f       	mov	r18, r25
     b76:	30 e0       	ldi	r19, 0x00	; 0
     b78:	20 53       	subi	r18, 0x30	; 48
     b7a:	31 09       	sbc	r19, r1
     b7c:	24 0f       	add	r18, r20
     b7e:	35 1f       	adc	r19, r21
}
// Function to convert a string to an integer
int FUNCstrToInt (const char string[])
{
	int i, intValue, result = 0;
	for ( i = 0; string[i] >= '0' && string[i] <= '9'; ++i ){
     b80:	91 91       	ld	r25, Z+
     b82:	80 ed       	ldi	r24, 0xD0	; 208
     b84:	89 0f       	add	r24, r25
     b86:	8a 30       	cpi	r24, 0x0A	; 10
     b88:	50 f3       	brcs	.-44     	; 0xb5e <FUNCstrToInt+0x12>
     b8a:	02 c0       	rjmp	.+4      	; 0xb90 <FUNCstrToInt+0x44>
	return u;
}
// Function to convert a string to an integer
int FUNCstrToInt (const char string[])
{
	int i, intValue, result = 0;
     b8c:	20 e0       	ldi	r18, 0x00	; 0
     b8e:	30 e0       	ldi	r19, 0x00	; 0
	for ( i = 0; string[i] >= '0' && string[i] <= '9'; ++i ){
		intValue = string[i] - '0';
		result = result * 10 + intValue;
	}
	return result;
}
     b90:	c9 01       	movw	r24, r18
     b92:	08 95       	ret

00000b94 <FUNCfilter>:
uint8_t FUNCfilter(uint8_t mask, uint8_t data)
{
	uint8_t Z;
	Z=mask & data;
	return Z;
}
     b94:	86 23       	and	r24, r22
     b96:	08 95       	ret

00000b98 <FUNCticks>:
// ticks
unsigned int FUNCticks(unsigned int num)
{
	unsigned int count;
	for(count=0;count<num;count++)
     b98:	00 97       	sbiw	r24, 0x00	; 0
     b9a:	39 f0       	breq	.+14     	; 0xbaa <FUNCticks+0x12>
     b9c:	20 e0       	ldi	r18, 0x00	; 0
     b9e:	30 e0       	ldi	r19, 0x00	; 0
     ba0:	2f 5f       	subi	r18, 0xFF	; 255
     ba2:	3f 4f       	sbci	r19, 0xFF	; 255
     ba4:	82 17       	cp	r24, r18
     ba6:	93 07       	cpc	r25, r19
     ba8:	d9 f7       	brne	.-10     	; 0xba0 <FUNCticks+0x8>
		;
	return count;
}
     baa:	08 95       	ret

00000bac <FUNCtwocomptoint8bit>:
// Two's Complement function
int FUNCtwocomptoint8bit(int twoscomp){
  
  //Let's see if the byte is negative
  if (twoscomp & 0B10000000){
     bac:	87 ff       	sbrs	r24, 7
     bae:	08 c0       	rjmp	.+16     	; 0xbc0 <FUNCtwocomptoint8bit+0x14>
    //Invert
    twoscomp = ~twoscomp + 1;
     bb0:	91 95       	neg	r25
     bb2:	81 95       	neg	r24
     bb4:	91 09       	sbc	r25, r1
	twoscomp = (twoscomp & 0B11111111);
    //Cast as int and multiply by negative one
    int value = (int)(twoscomp)*(-1);
     bb6:	99 27       	eor	r25, r25
     bb8:	91 95       	neg	r25
     bba:	81 95       	neg	r24
     bbc:	91 09       	sbc	r25, r1
    return value;
     bbe:	08 95       	ret
    //Byte is non-negative, therefore convert to decimal and display
    //Make sure we are never over 1279
    twoscomp = (twoscomp & 0B01111111);
    //Cast as int and return
    int value = (int)(twoscomp);
    return value;
     bc0:	8f 77       	andi	r24, 0x7F	; 127
     bc2:	99 27       	eor	r25, r25
  }
}
     bc4:	08 95       	ret

00000bc6 <FUNCtwocomptoint10bit>:
// Two's Complement function, shifts 10 bit binary to signed integers (-512 to 512)
int FUNCtwocomptoint10bit(int twoscomp){
	
  //Let's see if the byte is negative
  if (twoscomp & 0x200){
     bc6:	91 ff       	sbrs	r25, 1
     bc8:	08 c0       	rjmp	.+16     	; 0xbda <FUNCtwocomptoint10bit+0x14>
    //Invert
    twoscomp = ~twoscomp + 1;
     bca:	91 95       	neg	r25
     bcc:	81 95       	neg	r24
     bce:	91 09       	sbc	r25, r1
    twoscomp = (twoscomp & 0x3FF);
    //Cast as int and multiply by negative one
    int value = (int)(twoscomp)*(-1);
     bd0:	93 70       	andi	r25, 0x03	; 3
     bd2:	91 95       	neg	r25
     bd4:	81 95       	neg	r24
     bd6:	91 09       	sbc	r25, r1
    return value;
     bd8:	08 95       	ret
    //Byte is non-negative, therefore convert to decimal and display
    twoscomp = (twoscomp & 0x1FF);
    //Cast as int and return
    //Serial.println(twoscomp);
    int value = (int)(twoscomp);
    return value;
     bda:	91 70       	andi	r25, 0x01	; 1
  }
}
     bdc:	08 95       	ret

00000bde <FUNCtwocomptointnbit>:
// Two's Complement function, nbits
int FUNCtwocomptointnbit(int twoscomp, uint8_t nbits){
  unsigned int signmask;
  unsigned int mask;
  signmask = (1<<(nbits-1));
     bde:	61 50       	subi	r22, 0x01	; 1
     be0:	21 e0       	ldi	r18, 0x01	; 1
     be2:	30 e0       	ldi	r19, 0x00	; 0
     be4:	02 c0       	rjmp	.+4      	; 0xbea <FUNCtwocomptointnbit+0xc>
     be6:	22 0f       	add	r18, r18
     be8:	33 1f       	adc	r19, r19
     bea:	6a 95       	dec	r22
     bec:	e2 f7       	brpl	.-8      	; 0xbe6 <FUNCtwocomptointnbit+0x8>
  mask=signmask-1;
     bee:	a9 01       	movw	r20, r18
     bf0:	41 50       	subi	r20, 0x01	; 1
     bf2:	51 09       	sbc	r21, r1
  //Let's see if the number is negative
  if (twoscomp & signmask){
     bf4:	b9 01       	movw	r22, r18
     bf6:	68 23       	and	r22, r24
     bf8:	79 23       	and	r23, r25
     bfa:	67 2b       	or	r22, r23
     bfc:	29 f0       	breq	.+10     	; 0xc08 <FUNCtwocomptointnbit+0x2a>
	twoscomp &= mask;
    twoscomp -= signmask;
     bfe:	84 23       	and	r24, r20
     c00:	95 23       	and	r25, r21
     c02:	82 1b       	sub	r24, r18
     c04:	93 0b       	sbc	r25, r19
     c06:	08 95       	ret
  }else{
	  twoscomp &= mask;
     c08:	84 23       	and	r24, r20
     c0a:	95 23       	and	r25, r21
  }
  return twoscomp;
}
     c0c:	08 95       	ret

00000c0e <FUNCdec2bcd>:
// Convert Decimal to Binary Coded Decimal (BCD)
char FUNCdec2bcd(char num)
{
	return ((num/10 * 16) + (num % 10));
     c0e:	9d ec       	ldi	r25, 0xCD	; 205
     c10:	89 9f       	mul	r24, r25
     c12:	91 2d       	mov	r25, r1
     c14:	11 24       	eor	r1, r1
     c16:	96 95       	lsr	r25
     c18:	96 95       	lsr	r25
     c1a:	96 95       	lsr	r25
     c1c:	39 2f       	mov	r19, r25
     c1e:	33 0f       	add	r19, r19
     c20:	23 2f       	mov	r18, r19
     c22:	22 0f       	add	r18, r18
     c24:	22 0f       	add	r18, r18
     c26:	23 0f       	add	r18, r19
     c28:	82 1b       	sub	r24, r18
}
     c2a:	20 e1       	ldi	r18, 0x10	; 16
     c2c:	92 9f       	mul	r25, r18
     c2e:	80 0d       	add	r24, r0
     c30:	11 24       	eor	r1, r1
     c32:	08 95       	ret

00000c34 <FUNCbcd2dec>:
// Convert Binary Coded Decimal (BCD) to Decimal
char FUNCbcd2dec(char num)
{
	return ((num/16 * 10) + (num % 16));
     c34:	98 2f       	mov	r25, r24
     c36:	92 95       	swap	r25
     c38:	9f 70       	andi	r25, 0x0F	; 15
     c3a:	99 0f       	add	r25, r25
     c3c:	29 2f       	mov	r18, r25
     c3e:	22 0f       	add	r18, r18
     c40:	22 0f       	add	r18, r18
     c42:	92 0f       	add	r25, r18
     c44:	8f 70       	andi	r24, 0x0F	; 15
}
     c46:	89 0f       	add	r24, r25
     c48:	08 95       	ret

00000c4a <FUNCresizestr>:
char* FUNCresizestr(char *string, int size)
{
     c4a:	fc 01       	movw	r30, r24
	int i;
	FUNCstr[size]='\0';
     c4c:	db 01       	movw	r26, r22
     c4e:	ab 5b       	subi	r26, 0xBB	; 187
     c50:	bd 4f       	sbci	r27, 0xFD	; 253
     c52:	1c 92       	st	X, r1
	for(i=0;i<size;i++){
     c54:	16 16       	cp	r1, r22
     c56:	17 06       	cpc	r1, r23
     c58:	14 f5       	brge	.+68     	; 0xc9e <FUNCresizestr+0x54>
		if(*(string+i)=='\0'){
     c5a:	90 81       	ld	r25, Z
     c5c:	91 11       	cpse	r25, r1
     c5e:	0c c0       	rjmp	.+24     	; 0xc78 <FUNCresizestr+0x2e>
     c60:	17 c0       	rjmp	.+46     	; 0xc90 <FUNCresizestr+0x46>
     c62:	91 91       	ld	r25, Z+
     c64:	91 11       	cpse	r25, r1
     c66:	0d c0       	rjmp	.+26     	; 0xc82 <FUNCresizestr+0x38>
     c68:	15 c0       	rjmp	.+42     	; 0xc94 <FUNCresizestr+0x4a>
			for(;i<size;i++){
				FUNCstr[i]=' ';
     c6a:	81 93       	st	Z+, r24
{
	int i;
	FUNCstr[size]='\0';
	for(i=0;i<size;i++){
		if(*(string+i)=='\0'){
			for(;i<size;i++){
     c6c:	2f 5f       	subi	r18, 0xFF	; 255
     c6e:	3f 4f       	sbci	r19, 0xFF	; 255
     c70:	26 17       	cp	r18, r22
     c72:	37 07       	cpc	r19, r23
     c74:	d4 f3       	brlt	.-12     	; 0xc6a <FUNCresizestr+0x20>
     c76:	13 c0       	rjmp	.+38     	; 0xc9e <FUNCresizestr+0x54>
     c78:	a5 e4       	ldi	r26, 0x45	; 69
     c7a:	b2 e0       	ldi	r27, 0x02	; 2
     c7c:	31 96       	adiw	r30, 0x01	; 1
char* FUNCresizestr(char *string, int size)
{
	int i;
	FUNCstr[size]='\0';
	for(i=0;i<size;i++){
		if(*(string+i)=='\0'){
     c7e:	20 e0       	ldi	r18, 0x00	; 0
     c80:	30 e0       	ldi	r19, 0x00	; 0
			for(;i<size;i++){
				FUNCstr[i]=' ';
			}
			break;
		}
		FUNCstr[i]=*(string+i);
     c82:	9d 93       	st	X+, r25
}
char* FUNCresizestr(char *string, int size)
{
	int i;
	FUNCstr[size]='\0';
	for(i=0;i<size;i++){
     c84:	2f 5f       	subi	r18, 0xFF	; 255
     c86:	3f 4f       	sbci	r19, 0xFF	; 255
     c88:	62 17       	cp	r22, r18
     c8a:	73 07       	cpc	r23, r19
     c8c:	51 f7       	brne	.-44     	; 0xc62 <FUNCresizestr+0x18>
     c8e:	07 c0       	rjmp	.+14     	; 0xc9e <FUNCresizestr+0x54>
     c90:	20 e0       	ldi	r18, 0x00	; 0
     c92:	30 e0       	ldi	r19, 0x00	; 0
     c94:	f9 01       	movw	r30, r18
     c96:	eb 5b       	subi	r30, 0xBB	; 187
     c98:	fd 4f       	sbci	r31, 0xFD	; 253
		if(*(string+i)=='\0'){
			for(;i<size;i++){
				FUNCstr[i]=' ';
     c9a:	80 e2       	ldi	r24, 0x20	; 32
     c9c:	e6 cf       	rjmp	.-52     	; 0xc6a <FUNCresizestr+0x20>
			break;
		}
		FUNCstr[i]=*(string+i);
	}
	return FUNCstr;
}
     c9e:	85 e4       	ldi	r24, 0x45	; 69
     ca0:	92 e0       	ldi	r25, 0x02	; 2
     ca2:	08 95       	ret

00000ca4 <FUNCtrimmer>:
long FUNCtrimmer(long x, long in_min, long in_max, long out_min, long out_max)
/*
	same as arduino map function.
*/
{
     ca4:	4f 92       	push	r4
     ca6:	5f 92       	push	r5
     ca8:	6f 92       	push	r6
     caa:	7f 92       	push	r7
     cac:	af 92       	push	r10
     cae:	bf 92       	push	r11
     cb0:	cf 92       	push	r12
     cb2:	df 92       	push	r13
     cb4:	ef 92       	push	r14
     cb6:	ff 92       	push	r15
     cb8:	0f 93       	push	r16
     cba:	1f 93       	push	r17
     cbc:	cf 93       	push	r28
     cbe:	df 93       	push	r29
     cc0:	cd b7       	in	r28, 0x3d	; 61
     cc2:	de b7       	in	r29, 0x3e	; 62
     cc4:	29 01       	movw	r4, r18
     cc6:	3a 01       	movw	r6, r20
	return (x - in_min) * (out_max - out_min) / (in_max - in_min) + out_min;
     cc8:	9b 01       	movw	r18, r22
     cca:	ac 01       	movw	r20, r24
     ccc:	24 19       	sub	r18, r4
     cce:	35 09       	sbc	r19, r5
     cd0:	46 09       	sbc	r20, r6
     cd2:	57 09       	sbc	r21, r7
     cd4:	89 89       	ldd	r24, Y+17	; 0x11
     cd6:	9a 89       	ldd	r25, Y+18	; 0x12
     cd8:	ab 89       	ldd	r26, Y+19	; 0x13
     cda:	bc 89       	ldd	r27, Y+20	; 0x14
     cdc:	bc 01       	movw	r22, r24
     cde:	cd 01       	movw	r24, r26
     ce0:	6a 19       	sub	r22, r10
     ce2:	7b 09       	sbc	r23, r11
     ce4:	8c 09       	sbc	r24, r12
     ce6:	9d 09       	sbc	r25, r13
     ce8:	0e 94 b4 19 	call	0x3368	; 0x3368 <__mulsi3>
     cec:	a8 01       	movw	r20, r16
     cee:	97 01       	movw	r18, r14
     cf0:	24 19       	sub	r18, r4
     cf2:	35 09       	sbc	r19, r5
     cf4:	46 09       	sbc	r20, r6
     cf6:	57 09       	sbc	r21, r7
     cf8:	0e 94 0c 1a 	call	0x3418	; 0x3418 <__divmodsi4>
     cfc:	ca 01       	movw	r24, r20
     cfe:	b9 01       	movw	r22, r18
     d00:	6a 0d       	add	r22, r10
     d02:	7b 1d       	adc	r23, r11
     d04:	8c 1d       	adc	r24, r12
     d06:	9d 1d       	adc	r25, r13
}
     d08:	df 91       	pop	r29
     d0a:	cf 91       	pop	r28
     d0c:	1f 91       	pop	r17
     d0e:	0f 91       	pop	r16
     d10:	ff 90       	pop	r15
     d12:	ef 90       	pop	r14
     d14:	df 90       	pop	r13
     d16:	cf 90       	pop	r12
     d18:	bf 90       	pop	r11
     d1a:	af 90       	pop	r10
     d1c:	7f 90       	pop	r7
     d1e:	6f 90       	pop	r6
     d20:	5f 90       	pop	r5
     d22:	4f 90       	pop	r4
     d24:	08 95       	ret

00000d26 <Pwr>:
// power: raise base to n-th power; n >= 0
unsigned int Pwr(uint8_t bs, uint8_t n)
{
    unsigned int i, p;
    p = 1;
    for (i = 1; i <= n; ++i)
     d26:	70 e0       	ldi	r23, 0x00	; 0
     d28:	61 15       	cp	r22, r1
     d2a:	71 05       	cpc	r23, r1
     d2c:	99 f0       	breq	.+38     	; 0xd54 <Pwr+0x2e>
     d2e:	41 e0       	ldi	r20, 0x01	; 1
     d30:	50 e0       	ldi	r21, 0x00	; 0
     d32:	21 e0       	ldi	r18, 0x01	; 1
     d34:	30 e0       	ldi	r19, 0x00	; 0
        p = p * bs;
     d36:	90 e0       	ldi	r25, 0x00	; 0
     d38:	fa 01       	movw	r30, r20
     d3a:	e8 9f       	mul	r30, r24
     d3c:	a0 01       	movw	r20, r0
     d3e:	e9 9f       	mul	r30, r25
     d40:	50 0d       	add	r21, r0
     d42:	f8 9f       	mul	r31, r24
     d44:	50 0d       	add	r21, r0
     d46:	11 24       	eor	r1, r1
// power: raise base to n-th power; n >= 0
unsigned int Pwr(uint8_t bs, uint8_t n)
{
    unsigned int i, p;
    p = 1;
    for (i = 1; i <= n; ++i)
     d48:	2f 5f       	subi	r18, 0xFF	; 255
     d4a:	3f 4f       	sbci	r19, 0xFF	; 255
     d4c:	62 17       	cp	r22, r18
     d4e:	73 07       	cpc	r23, r19
     d50:	98 f7       	brcc	.-26     	; 0xd38 <Pwr+0x12>
     d52:	02 c0       	rjmp	.+4      	; 0xd58 <Pwr+0x32>
}
// power: raise base to n-th power; n >= 0
unsigned int Pwr(uint8_t bs, uint8_t n)
{
    unsigned int i, p;
    p = 1;
     d54:	41 e0       	ldi	r20, 0x01	; 1
     d56:	50 e0       	ldi	r21, 0x00	; 0
    for (i = 1; i <= n; ++i)
        p = p * bs;
    return p;
}
     d58:	ca 01       	movw	r24, r20
     d5a:	08 95       	ret

00000d5c <StringLength>:
// Function to count the number of characters in a string
int StringLength (const char string[])
{
	int count = 0;
	while ( string[count] != '\0' )
     d5c:	fc 01       	movw	r30, r24
     d5e:	20 81       	ld	r18, Z
     d60:	22 23       	and	r18, r18
     d62:	41 f0       	breq	.+16     	; 0xd74 <StringLength+0x18>
     d64:	31 96       	adiw	r30, 0x01	; 1
     d66:	80 e0       	ldi	r24, 0x00	; 0
     d68:	90 e0       	ldi	r25, 0x00	; 0
		++count;
     d6a:	01 96       	adiw	r24, 0x01	; 1
}
// Function to count the number of characters in a string
int StringLength (const char string[])
{
	int count = 0;
	while ( string[count] != '\0' )
     d6c:	21 91       	ld	r18, Z+
     d6e:	21 11       	cpse	r18, r1
     d70:	fc cf       	rjmp	.-8      	; 0xd6a <StringLength+0xe>
     d72:	08 95       	ret
    return p;
}
// Function to count the number of characters in a string
int StringLength (const char string[])
{
	int count = 0;
     d74:	80 e0       	ldi	r24, 0x00	; 0
     d76:	90 e0       	ldi	r25, 0x00	; 0
	while ( string[count] != '\0' )
		++count;
	return count;
}
     d78:	08 95       	ret

00000d7a <FUNCtrim>:
	Reverse(FUNCstr);
	return FUNCstr;
}
// trim: remove trailing blanks, tabs, newlines
int FUNCtrim(char s[])
{
     d7a:	cf 93       	push	r28
     d7c:	df 93       	push	r29
     d7e:	ec 01       	movw	r28, r24
	int n;
	for (n = StringLength(s)-1; n >= 0; n--)
     d80:	ed df       	rcall	.-38     	; 0xd5c <StringLength>
     d82:	9c 01       	movw	r18, r24
     d84:	21 50       	subi	r18, 0x01	; 1
     d86:	31 09       	sbc	r19, r1
     d88:	62 f0       	brmi	.+24     	; 0xda2 <FUNCtrim+0x28>
     d8a:	fe 01       	movw	r30, r28
     d8c:	e8 0f       	add	r30, r24
     d8e:	f9 1f       	adc	r31, r25
		if (s[n] != ' ' && s[n] != '\t' && s[n] != '\n')
     d90:	92 91       	ld	r25, -Z
     d92:	90 32       	cpi	r25, 0x20	; 32
     d94:	19 f0       	breq	.+6      	; 0xd9c <FUNCtrim+0x22>
     d96:	99 50       	subi	r25, 0x09	; 9
     d98:	92 30       	cpi	r25, 0x02	; 2
     d9a:	18 f4       	brcc	.+6      	; 0xda2 <FUNCtrim+0x28>
}
// trim: remove trailing blanks, tabs, newlines
int FUNCtrim(char s[])
{
	int n;
	for (n = StringLength(s)-1; n >= 0; n--)
     d9c:	21 50       	subi	r18, 0x01	; 1
     d9e:	31 09       	sbc	r19, r1
     da0:	b8 f7       	brcc	.-18     	; 0xd90 <FUNCtrim+0x16>
		if (s[n] != ' ' && s[n] != '\t' && s[n] != '\n')
			break;
	s[n+1] = '\0';
     da2:	c2 0f       	add	r28, r18
     da4:	d3 1f       	adc	r29, r19
     da6:	19 82       	std	Y+1, r1	; 0x01
	return n;
}
     da8:	c9 01       	movw	r24, r18
     daa:	df 91       	pop	r29
     dac:	cf 91       	pop	r28
     dae:	08 95       	ret

00000db0 <Reverse>:
		++count;
	return count;
}
// reverse: reverse string s in place
void Reverse(char s[])
{
     db0:	cf 93       	push	r28
     db2:	df 93       	push	r29
     db4:	ec 01       	movw	r28, r24
	int c, i, j;
	for (i = 0, j = StringLength(s)-1; i < j; i++, j--){
     db6:	d2 df       	rcall	.-92     	; 0xd5c <StringLength>
     db8:	9c 01       	movw	r18, r24
     dba:	21 50       	subi	r18, 0x01	; 1
     dbc:	31 09       	sbc	r19, r1
     dbe:	12 16       	cp	r1, r18
     dc0:	13 06       	cpc	r1, r19
     dc2:	84 f4       	brge	.+32     	; 0xde4 <Reverse+0x34>
     dc4:	de 01       	movw	r26, r28
     dc6:	a8 0f       	add	r26, r24
     dc8:	b9 1f       	adc	r27, r25
     dca:	fe 01       	movw	r30, r28
     dcc:	80 e0       	ldi	r24, 0x00	; 0
     dce:	90 e0       	ldi	r25, 0x00	; 0
		c = s[i];
     dd0:	40 81       	ld	r20, Z
		s[i] = s[j];
     dd2:	5e 91       	ld	r21, -X
     dd4:	51 93       	st	Z+, r21
		s[j] = c;
     dd6:	4c 93       	st	X, r20
}
// reverse: reverse string s in place
void Reverse(char s[])
{
	int c, i, j;
	for (i = 0, j = StringLength(s)-1; i < j; i++, j--){
     dd8:	01 96       	adiw	r24, 0x01	; 1
     dda:	21 50       	subi	r18, 0x01	; 1
     ddc:	31 09       	sbc	r19, r1
     dde:	82 17       	cp	r24, r18
     de0:	93 07       	cpc	r25, r19
     de2:	b4 f3       	brlt	.-20     	; 0xdd0 <Reverse+0x20>
		c = s[i];
		s[i] = s[j];
		s[j] = c;
	}
}
     de4:	df 91       	pop	r29
     de6:	cf 91       	pop	r28
     de8:	08 95       	ret

00000dea <FUNCi32toa>:
				v[j+gap] = temp;
			}
}
// i32toa: convert n to characters in s
char* FUNCi32toa(int32_t n)
{
     dea:	8f 92       	push	r8
     dec:	9f 92       	push	r9
     dee:	af 92       	push	r10
     df0:	bf 92       	push	r11
     df2:	cf 92       	push	r12
     df4:	df 92       	push	r13
     df6:	ef 92       	push	r14
     df8:	ff 92       	push	r15
     dfa:	0f 93       	push	r16
     dfc:	1f 93       	push	r17
     dfe:	cf 93       	push	r28
     e00:	df 93       	push	r29
     e02:	6b 01       	movw	r12, r22
     e04:	7c 01       	movw	r14, r24
     e06:	dc 01       	movw	r26, r24
     e08:	cb 01       	movw	r24, r22
     e0a:	ff 20       	and	r15, r15
     e0c:	3c f4       	brge	.+14     	; 0xe1c <FUNCi32toa+0x32>
     e0e:	88 27       	eor	r24, r24
     e10:	99 27       	eor	r25, r25
     e12:	dc 01       	movw	r26, r24
     e14:	8c 19       	sub	r24, r12
     e16:	9d 09       	sbc	r25, r13
     e18:	ae 09       	sbc	r26, r14
     e1a:	bf 09       	sbc	r27, r15
     e1c:	bc 01       	movw	r22, r24
     e1e:	cd 01       	movw	r24, r26
     e20:	10 e0       	ldi	r17, 0x00	; 0
	int32_t sign;
	if ((sign = n) < 0) // record sign
	n = -n; // make n positive
	i = 0;
	do { // generate digits in reverse order
		FUNCstr[i++] = n % 10 + '0'; // get next digit
     e22:	0f 2e       	mov	r0, r31
     e24:	fa e0       	ldi	r31, 0x0A	; 10
     e26:	8f 2e       	mov	r8, r31
     e28:	91 2c       	mov	r9, r1
     e2a:	a1 2c       	mov	r10, r1
     e2c:	b1 2c       	mov	r11, r1
     e2e:	f0 2d       	mov	r31, r0
     e30:	01 c0       	rjmp	.+2      	; 0xe34 <FUNCi32toa+0x4a>
     e32:	10 2f       	mov	r17, r16
     e34:	01 e0       	ldi	r16, 0x01	; 1
     e36:	01 0f       	add	r16, r17
     e38:	c1 2f       	mov	r28, r17
     e3a:	d0 e0       	ldi	r29, 0x00	; 0
     e3c:	cb 5b       	subi	r28, 0xBB	; 187
     e3e:	dd 4f       	sbci	r29, 0xFD	; 253
     e40:	a5 01       	movw	r20, r10
     e42:	94 01       	movw	r18, r8
     e44:	0e 94 0c 1a 	call	0x3418	; 0x3418 <__divmodsi4>
     e48:	60 5d       	subi	r22, 0xD0	; 208
     e4a:	68 83       	st	Y, r22
	}while ((n /= 10) > 0); // delete it
     e4c:	62 2f       	mov	r22, r18
     e4e:	73 2f       	mov	r23, r19
     e50:	84 2f       	mov	r24, r20
     e52:	95 2f       	mov	r25, r21
     e54:	16 16       	cp	r1, r22
     e56:	17 06       	cpc	r1, r23
     e58:	18 06       	cpc	r1, r24
     e5a:	19 06       	cpc	r1, r25
     e5c:	54 f3       	brlt	.-44     	; 0xe32 <FUNCi32toa+0x48>
	if (sign < 0)
     e5e:	ff 20       	and	r15, r15
     e60:	44 f4       	brge	.+16     	; 0xe72 <FUNCi32toa+0x88>
	FUNCstr[i++] = '-';
     e62:	e0 2f       	mov	r30, r16
     e64:	f0 e0       	ldi	r31, 0x00	; 0
     e66:	eb 5b       	subi	r30, 0xBB	; 187
     e68:	fd 4f       	sbci	r31, 0xFD	; 253
     e6a:	8d e2       	ldi	r24, 0x2D	; 45
     e6c:	80 83       	st	Z, r24
     e6e:	02 e0       	ldi	r16, 0x02	; 2
     e70:	01 0f       	add	r16, r17
	FUNCstr[i] = '\0';
     e72:	e0 2f       	mov	r30, r16
     e74:	f0 e0       	ldi	r31, 0x00	; 0
     e76:	eb 5b       	subi	r30, 0xBB	; 187
     e78:	fd 4f       	sbci	r31, 0xFD	; 253
     e7a:	10 82       	st	Z, r1
	Reverse(FUNCstr);
     e7c:	85 e4       	ldi	r24, 0x45	; 69
     e7e:	92 e0       	ldi	r25, 0x02	; 2
     e80:	97 df       	rcall	.-210    	; 0xdb0 <Reverse>
	return FUNCstr;
}
     e82:	85 e4       	ldi	r24, 0x45	; 69
     e84:	92 e0       	ldi	r25, 0x02	; 2
     e86:	df 91       	pop	r29
     e88:	cf 91       	pop	r28
     e8a:	1f 91       	pop	r17
     e8c:	0f 91       	pop	r16
     e8e:	ff 90       	pop	r15
     e90:	ef 90       	pop	r14
     e92:	df 90       	pop	r13
     e94:	cf 90       	pop	r12
     e96:	bf 90       	pop	r11
     e98:	af 90       	pop	r10
     e9a:	9f 90       	pop	r9
     e9c:	8f 90       	pop	r8
     e9e:	08 95       	ret

00000ea0 <FUNCi16toa>:
// i16toa: convert n to characters in s
char* FUNCi16toa(int16_t n)
{
     ea0:	0f 93       	push	r16
     ea2:	1f 93       	push	r17
     ea4:	cf 93       	push	r28
     ea6:	df 93       	push	r29
     ea8:	ec 01       	movw	r28, r24
     eaa:	99 23       	and	r25, r25
     eac:	24 f4       	brge	.+8      	; 0xeb6 <FUNCi16toa+0x16>
     eae:	88 27       	eor	r24, r24
     eb0:	99 27       	eor	r25, r25
     eb2:	8c 1b       	sub	r24, r28
     eb4:	9d 0b       	sbc	r25, r29
     eb6:	20 e0       	ldi	r18, 0x00	; 0
	int16_t sign;
	if ((sign = n) < 0) // record sign
		n = -n; // make n positive
	i = 0;
	do { // generate digits in reverse order
		FUNCstr[i++] = n % 10 + '0'; // get next digit
     eb8:	0a e0       	ldi	r16, 0x0A	; 10
     eba:	10 e0       	ldi	r17, 0x00	; 0
     ebc:	01 c0       	rjmp	.+2      	; 0xec0 <FUNCi16toa+0x20>
     ebe:	23 2f       	mov	r18, r19
     ec0:	31 e0       	ldi	r19, 0x01	; 1
     ec2:	32 0f       	add	r19, r18
     ec4:	e2 2f       	mov	r30, r18
     ec6:	f0 e0       	ldi	r31, 0x00	; 0
     ec8:	eb 5b       	subi	r30, 0xBB	; 187
     eca:	fd 4f       	sbci	r31, 0xFD	; 253
     ecc:	b8 01       	movw	r22, r16
     ece:	0e 94 d7 19 	call	0x33ae	; 0x33ae <__divmodhi4>
     ed2:	80 5d       	subi	r24, 0xD0	; 208
     ed4:	80 83       	st	Z, r24
	}while ((n /= 10) > 0); // delete it
     ed6:	86 2f       	mov	r24, r22
     ed8:	97 2f       	mov	r25, r23
     eda:	18 16       	cp	r1, r24
     edc:	19 06       	cpc	r1, r25
     ede:	7c f3       	brlt	.-34     	; 0xebe <FUNCi16toa+0x1e>
	if (sign < 0)
     ee0:	dd 23       	and	r29, r29
     ee2:	44 f4       	brge	.+16     	; 0xef4 <FUNCi16toa+0x54>
		FUNCstr[i++] = '-';
     ee4:	e3 2f       	mov	r30, r19
     ee6:	f0 e0       	ldi	r31, 0x00	; 0
     ee8:	eb 5b       	subi	r30, 0xBB	; 187
     eea:	fd 4f       	sbci	r31, 0xFD	; 253
     eec:	8d e2       	ldi	r24, 0x2D	; 45
     eee:	80 83       	st	Z, r24
     ef0:	32 e0       	ldi	r19, 0x02	; 2
     ef2:	32 0f       	add	r19, r18
	FUNCstr[i] = '\0';
     ef4:	e3 2f       	mov	r30, r19
     ef6:	f0 e0       	ldi	r31, 0x00	; 0
     ef8:	eb 5b       	subi	r30, 0xBB	; 187
     efa:	fd 4f       	sbci	r31, 0xFD	; 253
     efc:	10 82       	st	Z, r1
	Reverse(FUNCstr);
     efe:	85 e4       	ldi	r24, 0x45	; 69
     f00:	92 e0       	ldi	r25, 0x02	; 2
     f02:	56 df       	rcall	.-340    	; 0xdb0 <Reverse>
	return FUNCstr;
}
     f04:	85 e4       	ldi	r24, 0x45	; 69
     f06:	92 e0       	ldi	r25, 0x02	; 2
     f08:	df 91       	pop	r29
     f0a:	cf 91       	pop	r28
     f0c:	1f 91       	pop	r17
     f0e:	0f 91       	pop	r16
     f10:	08 95       	ret

00000f12 <FUNCui16toa>:
// ui16toa: convert n to characters in s
char* FUNCui16toa(uint16_t n)
{
     f12:	cf 93       	push	r28
     f14:	ac 01       	movw	r20, r24
	uint8_t i;
	i = 0;
     f16:	e0 e0       	ldi	r30, 0x00	; 0
	do { // generate digits in reverse order
		FUNCstr[i++] = n % 10 + '0'; // get next digit
     f18:	c1 e0       	ldi	r28, 0x01	; 1
     f1a:	ce 0f       	add	r28, r30
     f1c:	f0 e0       	ldi	r31, 0x00	; 0
     f1e:	eb 5b       	subi	r30, 0xBB	; 187
     f20:	fd 4f       	sbci	r31, 0xFD	; 253
     f22:	9a 01       	movw	r18, r20
     f24:	ad ec       	ldi	r26, 0xCD	; 205
     f26:	bc ec       	ldi	r27, 0xCC	; 204
     f28:	0e 94 31 1a 	call	0x3462	; 0x3462 <__umulhisi3>
     f2c:	96 95       	lsr	r25
     f2e:	87 95       	ror	r24
     f30:	96 95       	lsr	r25
     f32:	87 95       	ror	r24
     f34:	96 95       	lsr	r25
     f36:	87 95       	ror	r24
     f38:	9c 01       	movw	r18, r24
     f3a:	22 0f       	add	r18, r18
     f3c:	33 1f       	adc	r19, r19
     f3e:	88 0f       	add	r24, r24
     f40:	99 1f       	adc	r25, r25
     f42:	88 0f       	add	r24, r24
     f44:	99 1f       	adc	r25, r25
     f46:	88 0f       	add	r24, r24
     f48:	99 1f       	adc	r25, r25
     f4a:	82 0f       	add	r24, r18
     f4c:	93 1f       	adc	r25, r19
     f4e:	9a 01       	movw	r18, r20
     f50:	28 1b       	sub	r18, r24
     f52:	39 0b       	sbc	r19, r25
     f54:	c9 01       	movw	r24, r18
     f56:	80 5d       	subi	r24, 0xD0	; 208
     f58:	80 83       	st	Z, r24
	}while ((n /= 10) > 0); // delete it
     f5a:	9a 01       	movw	r18, r20
     f5c:	0e 94 31 1a 	call	0x3462	; 0x3462 <__umulhisi3>
     f60:	ac 01       	movw	r20, r24
     f62:	56 95       	lsr	r21
     f64:	47 95       	ror	r20
     f66:	56 95       	lsr	r21
     f68:	47 95       	ror	r20
     f6a:	56 95       	lsr	r21
     f6c:	47 95       	ror	r20
char* FUNCui16toa(uint16_t n)
{
	uint8_t i;
	i = 0;
	do { // generate digits in reverse order
		FUNCstr[i++] = n % 10 + '0'; // get next digit
     f6e:	ec 2f       	mov	r30, r28
	}while ((n /= 10) > 0); // delete it
     f70:	41 15       	cp	r20, r1
     f72:	51 05       	cpc	r21, r1
     f74:	89 f6       	brne	.-94     	; 0xf18 <FUNCui16toa+0x6>
	FUNCstr[i] = '\0';
     f76:	ec 2f       	mov	r30, r28
     f78:	f0 e0       	ldi	r31, 0x00	; 0
     f7a:	eb 5b       	subi	r30, 0xBB	; 187
     f7c:	fd 4f       	sbci	r31, 0xFD	; 253
     f7e:	10 82       	st	Z, r1
	Reverse(FUNCstr);
     f80:	85 e4       	ldi	r24, 0x45	; 69
     f82:	92 e0       	ldi	r25, 0x02	; 2
     f84:	15 df       	rcall	.-470    	; 0xdb0 <Reverse>
	return FUNCstr;
}
     f86:	85 e4       	ldi	r24, 0x45	; 69
     f88:	92 e0       	ldi	r25, 0x02	; 2
     f8a:	cf 91       	pop	r28
     f8c:	08 95       	ret

00000f8e <FUNCbcd2bin>:
		s[j] = c;
	}
}
unsigned char FUNCbcd2bin(unsigned char val)
{
	return (val & 0x0f) + (val >> 4) * 10;
     f8e:	98 2f       	mov	r25, r24
     f90:	92 95       	swap	r25
     f92:	9f 70       	andi	r25, 0x0F	; 15
     f94:	99 0f       	add	r25, r25
     f96:	29 2f       	mov	r18, r25
     f98:	22 0f       	add	r18, r18
     f9a:	22 0f       	add	r18, r18
     f9c:	92 0f       	add	r25, r18
     f9e:	8f 70       	andi	r24, 0x0F	; 15
}
     fa0:	89 0f       	add	r24, r25
     fa2:	08 95       	ret

00000fa4 <FUNCbin2bcd>:
unsigned char FUNCbin2bcd(unsigned val)
{
     fa4:	ac 01       	movw	r20, r24
	return ((val / 10) << 4) + val % 10;
     fa6:	9c 01       	movw	r18, r24
     fa8:	ad ec       	ldi	r26, 0xCD	; 205
     faa:	bc ec       	ldi	r27, 0xCC	; 204
     fac:	0e 94 31 1a 	call	0x3462	; 0x3462 <__umulhisi3>
     fb0:	96 95       	lsr	r25
     fb2:	87 95       	ror	r24
     fb4:	96 95       	lsr	r25
     fb6:	87 95       	ror	r24
     fb8:	96 95       	lsr	r25
     fba:	87 95       	ror	r24
     fbc:	bc 01       	movw	r22, r24
     fbe:	66 0f       	add	r22, r22
     fc0:	77 1f       	adc	r23, r23
     fc2:	9c 01       	movw	r18, r24
     fc4:	22 0f       	add	r18, r18
     fc6:	33 1f       	adc	r19, r19
     fc8:	22 0f       	add	r18, r18
     fca:	33 1f       	adc	r19, r19
     fcc:	22 0f       	add	r18, r18
     fce:	33 1f       	adc	r19, r19
     fd0:	26 0f       	add	r18, r22
     fd2:	37 1f       	adc	r19, r23
     fd4:	42 1b       	sub	r20, r18
     fd6:	53 0b       	sbc	r21, r19
}
     fd8:	34 2f       	mov	r19, r20
     fda:	20 e1       	ldi	r18, 0x10	; 16
     fdc:	82 9f       	mul	r24, r18
     fde:	30 0d       	add	r19, r0
     fe0:	11 24       	eor	r1, r1
     fe2:	83 2f       	mov	r24, r19
     fe4:	08 95       	ret

00000fe6 <FUNCgcd1>:
long FUNCgcd1(long a, long b)
{
     fe6:	cf 92       	push	r12
     fe8:	df 92       	push	r13
     fea:	ef 92       	push	r14
     fec:	ff 92       	push	r15
     fee:	cf 93       	push	r28
     ff0:	df 93       	push	r29
     ff2:	cd b7       	in	r28, 0x3d	; 61
     ff4:	de b7       	in	r29, 0x3e	; 62
     ff6:	28 97       	sbiw	r28, 0x08	; 8
     ff8:	0f b6       	in	r0, 0x3f	; 63
     ffa:	f8 94       	cli
     ffc:	de bf       	out	0x3e, r29	; 62
     ffe:	0f be       	out	0x3f, r0	; 63
    1000:	cd bf       	out	0x3d, r28	; 61
    1002:	6b 01       	movw	r12, r22
    1004:	7c 01       	movw	r14, r24
    1006:	69 83       	std	Y+1, r22	; 0x01
    1008:	7a 83       	std	Y+2, r23	; 0x02
    100a:	8b 83       	std	Y+3, r24	; 0x03
    100c:	9c 83       	std	Y+4, r25	; 0x04
    100e:	2d 83       	std	Y+5, r18	; 0x05
    1010:	3e 83       	std	Y+6, r19	; 0x06
    1012:	4f 83       	std	Y+7, r20	; 0x07
    1014:	58 87       	std	Y+8, r21	; 0x08
	long r;
	if (a < b)
    1016:	c2 16       	cp	r12, r18
    1018:	d3 06       	cpc	r13, r19
    101a:	e4 06       	cpc	r14, r20
    101c:	f5 06       	cpc	r15, r21
    101e:	34 f4       	brge	.+12     	; 0x102c <FUNCgcd1+0x46>
		FUNCswap(&a, &b);
    1020:	be 01       	movw	r22, r28
    1022:	6b 5f       	subi	r22, 0xFB	; 251
    1024:	7f 4f       	sbci	r23, 0xFF	; 255
    1026:	ce 01       	movw	r24, r28
    1028:	01 96       	adiw	r24, 0x01	; 1
    102a:	85 dc       	rcall	.-1782   	; 0x936 <FUNCswap>
	if (!b){
    102c:	8d 81       	ldd	r24, Y+5	; 0x05
    102e:	9e 81       	ldd	r25, Y+6	; 0x06
    1030:	af 81       	ldd	r26, Y+7	; 0x07
    1032:	b8 85       	ldd	r27, Y+8	; 0x08
    1034:	89 2b       	or	r24, r25
    1036:	8a 2b       	or	r24, r26
    1038:	8b 2b       	or	r24, r27
    103a:	71 f4       	brne	.+28     	; 0x1058 <FUNCgcd1+0x72>
		while ((r = a % b) != 0) {
    103c:	69 81       	ldd	r22, Y+1	; 0x01
    103e:	7a 81       	ldd	r23, Y+2	; 0x02
    1040:	8b 81       	ldd	r24, Y+3	; 0x03
    1042:	9c 81       	ldd	r25, Y+4	; 0x04
    1044:	20 e0       	ldi	r18, 0x00	; 0
    1046:	30 e0       	ldi	r19, 0x00	; 0
    1048:	a9 01       	movw	r20, r18
    104a:	0e 94 0c 1a 	call	0x3418	; 0x3418 <__divmodsi4>
    104e:	61 15       	cp	r22, r1
    1050:	71 05       	cpc	r23, r1
    1052:	81 05       	cpc	r24, r1
    1054:	91 05       	cpc	r25, r1
    1056:	29 f4       	brne	.+10     	; 0x1062 <FUNCgcd1+0x7c>
			a = b;
			b = r;
		}
	}	
	return b;
    1058:	6d 81       	ldd	r22, Y+5	; 0x05
    105a:	7e 81       	ldd	r23, Y+6	; 0x06
    105c:	8f 81       	ldd	r24, Y+7	; 0x07
    105e:	98 85       	ldd	r25, Y+8	; 0x08
    1060:	05 c0       	rjmp	.+10     	; 0x106c <FUNCgcd1+0x86>
	if (a < b)
		FUNCswap(&a, &b);
	if (!b){
		while ((r = a % b) != 0) {
			a = b;
			b = r;
    1062:	6d 83       	std	Y+5, r22	; 0x05
    1064:	7e 83       	std	Y+6, r23	; 0x06
    1066:	8f 83       	std	Y+7, r24	; 0x07
    1068:	98 87       	std	Y+8, r25	; 0x08
    106a:	f6 cf       	rjmp	.-20     	; 0x1058 <FUNCgcd1+0x72>
		}
	}	
	return b;
}
    106c:	28 96       	adiw	r28, 0x08	; 8
    106e:	0f b6       	in	r0, 0x3f	; 63
    1070:	f8 94       	cli
    1072:	de bf       	out	0x3e, r29	; 62
    1074:	0f be       	out	0x3f, r0	; 63
    1076:	cd bf       	out	0x3d, r28	; 61
    1078:	df 91       	pop	r29
    107a:	cf 91       	pop	r28
    107c:	ff 90       	pop	r15
    107e:	ef 90       	pop	r14
    1080:	df 90       	pop	r13
    1082:	cf 90       	pop	r12
    1084:	08 95       	ret

00001086 <FUNCpincheck>:
	uint8_t lh;
	if(port & (1<<pin))
		lh=1;
	else
		lh=0;
	return lh;
    1086:	90 e0       	ldi	r25, 0x00	; 0
    1088:	02 c0       	rjmp	.+4      	; 0x108e <FUNCpincheck+0x8>
    108a:	95 95       	asr	r25
    108c:	87 95       	ror	r24
    108e:	6a 95       	dec	r22
    1090:	e2 f7       	brpl	.-8      	; 0x108a <FUNCpincheck+0x4>
}
    1092:	81 70       	andi	r24, 0x01	; 1
    1094:	08 95       	ret

00001096 <FUNCprint_binary>:
char* FUNCprint_binary(uint8_t number)
{
    1096:	e5 e4       	ldi	r30, 0x45	; 69
    1098:	f2 e0       	ldi	r31, 0x02	; 2
	uint8_t i,c;
    for(i=128,c=0;i;i>>=1,c++){
    109a:	90 e0       	ldi	r25, 0x00	; 0
    109c:	20 e8       	ldi	r18, 0x80	; 128
	(number & i) ? (FUNCstr[c]='1') : (FUNCstr[c]='0');
    109e:	50 e3       	ldi	r21, 0x30	; 48
    10a0:	41 e3       	ldi	r20, 0x31	; 49
    10a2:	38 2f       	mov	r19, r24
    10a4:	32 23       	and	r19, r18
    10a6:	11 f0       	breq	.+4      	; 0x10ac <FUNCprint_binary+0x16>
    10a8:	40 83       	st	Z, r20
    10aa:	01 c0       	rjmp	.+2      	; 0x10ae <FUNCprint_binary+0x18>
    10ac:	50 83       	st	Z, r21
	return lh;
}
char* FUNCprint_binary(uint8_t number)
{
	uint8_t i,c;
    for(i=128,c=0;i;i>>=1,c++){
    10ae:	26 95       	lsr	r18
    10b0:	9f 5f       	subi	r25, 0xFF	; 255
    10b2:	31 96       	adiw	r30, 0x01	; 1
    10b4:	98 30       	cpi	r25, 0x08	; 8
    10b6:	a9 f7       	brne	.-22     	; 0x10a2 <FUNCprint_binary+0xc>
	(number & i) ? (FUNCstr[c]='1') : (FUNCstr[c]='0');
	}
	FUNCstr[c]='\0';
    10b8:	10 92 4d 02 	sts	0x024D, r1	; 0x80024d <FUNCstr+0x8>
	return FUNCstr;
}
    10bc:	85 e4       	ldi	r24, 0x45	; 69
    10be:	92 e0       	ldi	r25, 0x02	; 2
    10c0:	08 95       	ret

000010c2 <FUNCmayia>:
// power: raise base to n-th power; n >= 0
unsigned int Pwr(uint8_t bs, uint8_t n)
{
    unsigned int i, p;
    p = 1;
    for (i = 1; i <= n; ++i)
    10c2:	a4 2f       	mov	r26, r20
    10c4:	b0 e0       	ldi	r27, 0x00	; 0
    10c6:	10 97       	sbiw	r26, 0x00	; 0
    10c8:	61 f0       	breq	.+24     	; 0x10e2 <FUNCmayia+0x20>
    10ca:	21 e0       	ldi	r18, 0x01	; 1
    10cc:	30 e0       	ldi	r19, 0x00	; 0
    10ce:	e1 e0       	ldi	r30, 0x01	; 1
    10d0:	f0 e0       	ldi	r31, 0x00	; 0
        p = p * bs;
    10d2:	ee 0f       	add	r30, r30
    10d4:	ff 1f       	adc	r31, r31
// power: raise base to n-th power; n >= 0
unsigned int Pwr(uint8_t bs, uint8_t n)
{
    unsigned int i, p;
    p = 1;
    for (i = 1; i <= n; ++i)
    10d6:	2f 5f       	subi	r18, 0xFF	; 255
    10d8:	3f 4f       	sbci	r19, 0xFF	; 255
    10da:	a2 17       	cp	r26, r18
    10dc:	b3 07       	cpc	r27, r19
    10de:	c8 f7       	brcc	.-14     	; 0x10d2 <FUNCmayia+0x10>
    10e0:	02 c0       	rjmp	.+4      	; 0x10e6 <FUNCmayia+0x24>
}
// power: raise base to n-th power; n >= 0
unsigned int Pwr(uint8_t bs, uint8_t n)
{
    unsigned int i, p;
    p = 1;
    10e2:	e1 e0       	ldi	r30, 0x01	; 1
    10e4:	f0 e0       	ldi	r31, 0x00	; 0
unsigned int FUNCmayia(unsigned int xi, unsigned int xf, uint8_t nbits)
{//magic formula
	unsigned int mask;
	unsigned int diff;
	unsigned int trans;
	mask=Pwr(2,nbits)-1;
    10e6:	31 97       	sbiw	r30, 0x01	; 1
	xi&=mask;
	xf&=mask;
    10e8:	6e 23       	and	r22, r30
    10ea:	7f 23       	and	r23, r31
	diff=xf^xi;
    10ec:	8e 23       	and	r24, r30
    10ee:	9f 23       	and	r25, r31
    10f0:	86 27       	eor	r24, r22
    10f2:	97 27       	eor	r25, r23
	trans=diff&xf;
	return (trans<<nbits)|diff;
    10f4:	68 23       	and	r22, r24
    10f6:	79 23       	and	r23, r25
    10f8:	02 c0       	rjmp	.+4      	; 0x10fe <FUNCmayia+0x3c>
    10fa:	66 0f       	add	r22, r22
    10fc:	77 1f       	adc	r23, r23
    10fe:	4a 95       	dec	r20
    1100:	e2 f7       	brpl	.-8      	; 0x10fa <FUNCmayia+0x38>
}
    1102:	86 2b       	or	r24, r22
    1104:	97 2b       	or	r25, r23
    1106:	08 95       	ret

00001108 <FUNCenable>:
// uint8_t TRANupdate(struct TRAN *tr, uint8_t idata);
/*
** procedure and function
*/
FUNC FUNCenable( void )
{
    1108:	fc 01       	movw	r30, r24
	uint8_t tSREG;
	tSREG=SREG;
    110a:	9f b7       	in	r25, 0x3f	; 63
	SREG&=~(1<<GLOBAL_INTERRUPT_ENABLE);
    110c:	8f b7       	in	r24, 0x3f	; 63
    110e:	8f 77       	andi	r24, 0x7F	; 127
    1110:	8f bf       	out	0x3f, r24	; 63
	func.putstr=FUNCputstr;
	func.getnum=FUNCgetnum;
	func.getnumv2=FUNCgetnumv2;
	func.readint=FUNCreadint;
	*/
	SREG=tSREG;
    1112:	9f bf       	out	0x3f, r25	; 63
	/******/
	return func;
    1114:	83 e9       	ldi	r24, 0x93	; 147
    1116:	96 e0       	ldi	r25, 0x06	; 6
    1118:	91 83       	std	Z+1, r25	; 0x01
    111a:	80 83       	st	Z, r24
    111c:	8e ea       	ldi	r24, 0xAE	; 174
    111e:	96 e0       	ldi	r25, 0x06	; 6
    1120:	93 83       	std	Z+3, r25	; 0x03
    1122:	82 83       	std	Z+2, r24	; 0x02
    1124:	88 ed       	ldi	r24, 0xD8	; 216
    1126:	96 e0       	ldi	r25, 0x06	; 6
    1128:	95 83       	std	Z+5, r25	; 0x05
    112a:	84 83       	std	Z+4, r24	; 0x04
    112c:	81 e6       	ldi	r24, 0x61	; 97
    112e:	98 e0       	ldi	r25, 0x08	; 8
    1130:	97 83       	std	Z+7, r25	; 0x07
    1132:	86 83       	std	Z+6, r24	; 0x06
    1134:	80 e8       	ldi	r24, 0x80	; 128
    1136:	94 e0       	ldi	r25, 0x04	; 4
    1138:	91 87       	std	Z+9, r25	; 0x09
    113a:	80 87       	std	Z+8, r24	; 0x08
    113c:	8e e8       	ldi	r24, 0x8E	; 142
    113e:	94 e0       	ldi	r25, 0x04	; 4
    1140:	93 87       	std	Z+11, r25	; 0x0b
    1142:	82 87       	std	Z+10, r24	; 0x0a
    1144:	80 e9       	ldi	r24, 0x90	; 144
    1146:	94 e0       	ldi	r25, 0x04	; 4
    1148:	95 87       	std	Z+13, r25	; 0x0d
    114a:	84 87       	std	Z+12, r24	; 0x0c
    114c:	83 e9       	ldi	r24, 0x93	; 147
    114e:	94 e0       	ldi	r25, 0x04	; 4
    1150:	97 87       	std	Z+15, r25	; 0x0f
    1152:	86 87       	std	Z+14, r24	; 0x0e
    1154:	86 e9       	ldi	r24, 0x96	; 150
    1156:	94 e0       	ldi	r25, 0x04	; 4
    1158:	91 8b       	std	Z+17, r25	; 0x11
    115a:	80 8b       	std	Z+16, r24	; 0x10
    115c:	89 e9       	ldi	r24, 0x99	; 153
    115e:	94 e0       	ldi	r25, 0x04	; 4
    1160:	93 8b       	std	Z+19, r25	; 0x13
    1162:	82 8b       	std	Z+18, r24	; 0x12
    1164:	8a e8       	ldi	r24, 0x8A	; 138
    1166:	94 e0       	ldi	r25, 0x04	; 4
    1168:	95 8b       	std	Z+21, r25	; 0x15
    116a:	84 8b       	std	Z+20, r24	; 0x14
    116c:	8c e8       	ldi	r24, 0x8C	; 140
    116e:	94 e0       	ldi	r25, 0x04	; 4
    1170:	97 8b       	std	Z+23, r25	; 0x17
    1172:	86 8b       	std	Z+22, r24	; 0x16
    1174:	8b e9       	ldi	r24, 0x9B	; 155
    1176:	94 e0       	ldi	r25, 0x04	; 4
    1178:	91 8f       	std	Z+25, r25	; 0x19
    117a:	80 8f       	std	Z+24, r24	; 0x18
    117c:	8c eb       	ldi	r24, 0xBC	; 188
    117e:	94 e0       	ldi	r25, 0x04	; 4
    1180:	93 8f       	std	Z+27, r25	; 0x1b
    1182:	82 8f       	std	Z+26, r24	; 0x1a
    1184:	8a ec       	ldi	r24, 0xCA	; 202
    1186:	94 e0       	ldi	r25, 0x04	; 4
    1188:	95 8f       	std	Z+29, r25	; 0x1d
    118a:	84 8f       	std	Z+28, r24	; 0x1c
    118c:	8c ee       	ldi	r24, 0xEC	; 236
    118e:	94 e0       	ldi	r25, 0x04	; 4
    1190:	97 8f       	std	Z+31, r25	; 0x1f
    1192:	86 8f       	std	Z+30, r24	; 0x1e
    1194:	80 e5       	ldi	r24, 0x50	; 80
    1196:	97 e0       	ldi	r25, 0x07	; 7
    1198:	91 a3       	std	Z+33, r25	; 0x21
    119a:	80 a3       	std	Z+32, r24	; 0x20
    119c:	89 e8       	ldi	r24, 0x89	; 137
    119e:	97 e0       	ldi	r25, 0x07	; 7
    11a0:	93 a3       	std	Z+35, r25	; 0x23
    11a2:	82 a3       	std	Z+34, r24	; 0x22
    11a4:	85 ef       	ldi	r24, 0xF5	; 245
    11a6:	96 e0       	ldi	r25, 0x06	; 6
    11a8:	95 a3       	std	Z+37, r25	; 0x25
    11aa:	84 a3       	std	Z+36, r24	; 0x24
    11ac:	8d eb       	ldi	r24, 0xBD	; 189
    11ae:	96 e0       	ldi	r25, 0x06	; 6
    11b0:	97 a3       	std	Z+39, r25	; 0x27
    11b2:	86 a3       	std	Z+38, r24	; 0x26
    11b4:	82 e9       	ldi	r24, 0x92	; 146
    11b6:	95 e0       	ldi	r25, 0x05	; 5
    11b8:	91 a7       	std	Z+41, r25	; 0x29
    11ba:	80 a7       	std	Z+40, r24	; 0x28
    11bc:	87 e9       	ldi	r24, 0x97	; 151
    11be:	95 e0       	ldi	r25, 0x05	; 5
    11c0:	93 a7       	std	Z+43, r25	; 0x2b
    11c2:	82 a7       	std	Z+42, r24	; 0x2a
    11c4:	86 ea       	ldi	r24, 0xA6	; 166
    11c6:	95 e0       	ldi	r25, 0x05	; 5
    11c8:	95 a7       	std	Z+45, r25	; 0x2d
    11ca:	84 a7       	std	Z+44, r24	; 0x2c
    11cc:	8a ec       	ldi	r24, 0xCA	; 202
    11ce:	95 e0       	ldi	r25, 0x05	; 5
    11d0:	97 a7       	std	Z+47, r25	; 0x2f
    11d2:	86 a7       	std	Z+46, r24	; 0x2e
    11d4:	8c ec       	ldi	r24, 0xCC	; 204
    11d6:	95 e0       	ldi	r25, 0x05	; 5
    11d8:	91 ab       	std	Z+49, r25	; 0x31
    11da:	80 ab       	std	Z+48, r24	; 0x30
    11dc:	86 ed       	ldi	r24, 0xD6	; 214
    11de:	95 e0       	ldi	r25, 0x05	; 5
    11e0:	93 ab       	std	Z+51, r25	; 0x33
    11e2:	82 ab       	std	Z+50, r24	; 0x32
    11e4:	83 ee       	ldi	r24, 0xE3	; 227
    11e6:	95 e0       	ldi	r25, 0x05	; 5
    11e8:	95 ab       	std	Z+53, r25	; 0x35
    11ea:	84 ab       	std	Z+52, r24	; 0x34
    11ec:	8f ee       	ldi	r24, 0xEF	; 239
    11ee:	95 e0       	ldi	r25, 0x05	; 5
    11f0:	97 ab       	std	Z+55, r25	; 0x37
    11f2:	86 ab       	std	Z+54, r24	; 0x36
    11f4:	87 e0       	ldi	r24, 0x07	; 7
    11f6:	96 e0       	ldi	r25, 0x06	; 6
    11f8:	91 af       	std	Z+57, r25	; 0x39
    11fa:	80 af       	std	Z+56, r24	; 0x38
    11fc:	8a e1       	ldi	r24, 0x1A	; 26
    11fe:	96 e0       	ldi	r25, 0x06	; 6
    1200:	93 af       	std	Z+59, r25	; 0x3b
    1202:	82 af       	std	Z+58, r24	; 0x3a
    1204:	85 e2       	ldi	r24, 0x25	; 37
    1206:	96 e0       	ldi	r25, 0x06	; 6
    1208:	95 af       	std	Z+61, r25	; 0x3d
    120a:	84 af       	std	Z+60, r24	; 0x3c
    120c:	82 e5       	ldi	r24, 0x52	; 82
    120e:	96 e0       	ldi	r25, 0x06	; 6
    1210:	97 af       	std	Z+63, r25	; 0x3f
    1212:	86 af       	std	Z+62, r24	; 0x3e
    1214:	df 01       	movw	r26, r30
    1216:	a0 5c       	subi	r26, 0xC0	; 192
    1218:	bf 4f       	sbci	r27, 0xFF	; 255
    121a:	87 ec       	ldi	r24, 0xC7	; 199
    121c:	97 e0       	ldi	r25, 0x07	; 7
    121e:	11 96       	adiw	r26, 0x01	; 1
    1220:	9c 93       	st	X, r25
    1222:	8e 93       	st	-X, r24
    1224:	12 96       	adiw	r26, 0x02	; 2
    1226:	82 ed       	ldi	r24, 0xD2	; 210
    1228:	97 e0       	ldi	r25, 0x07	; 7
    122a:	11 96       	adiw	r26, 0x01	; 1
    122c:	9c 93       	st	X, r25
    122e:	8e 93       	st	-X, r24
    1230:	12 96       	adiw	r26, 0x02	; 2
    1232:	83 ef       	ldi	r24, 0xF3	; 243
    1234:	97 e0       	ldi	r25, 0x07	; 7
    1236:	11 96       	adiw	r26, 0x01	; 1
    1238:	9c 93       	st	X, r25
    123a:	8e 93       	st	-X, r24
    123c:	12 96       	adiw	r26, 0x02	; 2
    123e:	83 e4       	ldi	r24, 0x43	; 67
    1240:	98 e0       	ldi	r25, 0x08	; 8
    1242:	11 96       	adiw	r26, 0x01	; 1
    1244:	9c 93       	st	X, r25
    1246:	8e 93       	st	-X, r24
    1248:	12 96       	adiw	r26, 0x02	; 2
    124a:	8b e4       	ldi	r24, 0x4B	; 75
    124c:	98 e0       	ldi	r25, 0x08	; 8
    124e:	8d 93       	st	X+, r24
    1250:	9c 93       	st	X, r25
}
    1252:	cf 01       	movw	r24, r30
    1254:	08 95       	ret

00001256 <I2C_Start>:
	/***Vtable***/
}
/***void I2C_Start(void)***/
void I2C_Start(void)
{
  TWI_CONTROL_REGISTER = ((1<<TWINT) | (1<<TWSTA) | (1<<TWEN));
    1256:	e4 e7       	ldi	r30, 0x74	; 116
    1258:	f0 e0       	ldi	r31, 0x00	; 0
    125a:	84 ea       	ldi	r24, 0xA4	; 164
    125c:	80 83       	st	Z, r24
  for (ticks=Nticks; !(TWI_CONTROL_REGISTER & (1<<TWINT)) && ticks; ticks--);
    125e:	8f ef       	ldi	r24, 0xFF	; 255
    1260:	93 e0       	ldi	r25, 0x03	; 3
    1262:	90 93 5b 02 	sts	0x025B, r25	; 0x80025b <ticks+0x1>
    1266:	80 93 5a 02 	sts	0x025A, r24	; 0x80025a <ticks>
    126a:	80 81       	ld	r24, Z
    126c:	88 23       	and	r24, r24
    126e:	5c f0       	brlt	.+22     	; 0x1286 <I2C_Start+0x30>
    1270:	8e ef       	ldi	r24, 0xFE	; 254
    1272:	93 e0       	ldi	r25, 0x03	; 3
    1274:	90 93 5b 02 	sts	0x025B, r25	; 0x80025b <ticks+0x1>
    1278:	80 93 5a 02 	sts	0x025A, r24	; 0x80025a <ticks>
    127c:	20 81       	ld	r18, Z
    127e:	22 23       	and	r18, r18
    1280:	14 f0       	brlt	.+4      	; 0x1286 <I2C_Start+0x30>
    1282:	01 97       	sbiw	r24, 0x01	; 1
    1284:	b8 f7       	brcc	.-18     	; 0x1274 <I2C_Start+0x1e>
    1286:	08 95       	ret

00001288 <I2C_Write>:
   _delay_us(100); //wait for a short time
}
/***void I2C_Write(uint8_t var_i2cData_u8)***/
void I2C_Write(uint8_t var_i2cData_u8)
{
  TWI_DATA_REGISTER = var_i2cData_u8 ;
    1288:	80 93 73 00 	sts	0x0073, r24	; 0x800073 <__TEXT_REGION_LENGTH__+0x7e0073>
  TWI_CONTROL_REGISTER = ((1<< TWINT) | (1<<TWEN));
    128c:	e4 e7       	ldi	r30, 0x74	; 116
    128e:	f0 e0       	ldi	r31, 0x00	; 0
    1290:	84 e8       	ldi	r24, 0x84	; 132
    1292:	80 83       	st	Z, r24
  for (ticks=Nticks; !(TWI_CONTROL_REGISTER & (1 <<TWINT)) && ticks; ticks--);
    1294:	8f ef       	ldi	r24, 0xFF	; 255
    1296:	93 e0       	ldi	r25, 0x03	; 3
    1298:	90 93 5b 02 	sts	0x025B, r25	; 0x80025b <ticks+0x1>
    129c:	80 93 5a 02 	sts	0x025A, r24	; 0x80025a <ticks>
    12a0:	80 81       	ld	r24, Z
    12a2:	88 23       	and	r24, r24
    12a4:	5c f0       	brlt	.+22     	; 0x12bc <I2C_Write+0x34>
    12a6:	8e ef       	ldi	r24, 0xFE	; 254
    12a8:	93 e0       	ldi	r25, 0x03	; 3
    12aa:	90 93 5b 02 	sts	0x025B, r25	; 0x80025b <ticks+0x1>
    12ae:	80 93 5a 02 	sts	0x025A, r24	; 0x80025a <ticks>
    12b2:	20 81       	ld	r18, Z
    12b4:	22 23       	and	r18, r18
    12b6:	14 f0       	brlt	.+4      	; 0x12bc <I2C_Write+0x34>
    12b8:	01 97       	sbiw	r24, 0x01	; 1
    12ba:	b8 f7       	brcc	.-18     	; 0x12aa <I2C_Write+0x22>
    12bc:	08 95       	ret

000012be <I2C_Read>:
}
/***uint8_t I2C_Read(uint8_t var_ackOption_u8)***/
uint8_t I2C_Read(uint8_t var_ackOption_u8)
{
 TWI_CONTROL_REGISTER = ((1<< TWINT) | (1<<TWEN) | (var_ackOption_u8<<TWEA));
    12be:	20 e4       	ldi	r18, 0x40	; 64
    12c0:	82 9f       	mul	r24, r18
    12c2:	c0 01       	movw	r24, r0
    12c4:	11 24       	eor	r1, r1
    12c6:	84 68       	ori	r24, 0x84	; 132
    12c8:	e4 e7       	ldi	r30, 0x74	; 116
    12ca:	f0 e0       	ldi	r31, 0x00	; 0
    12cc:	80 83       	st	Z, r24
   for (ticks=Nticks; !(TWI_CONTROL_REGISTER & (1 <<TWINT)) && ticks; ticks--);
    12ce:	8f ef       	ldi	r24, 0xFF	; 255
    12d0:	93 e0       	ldi	r25, 0x03	; 3
    12d2:	90 93 5b 02 	sts	0x025B, r25	; 0x80025b <ticks+0x1>
    12d6:	80 93 5a 02 	sts	0x025A, r24	; 0x80025a <ticks>
    12da:	80 81       	ld	r24, Z
    12dc:	88 23       	and	r24, r24
    12de:	5c f0       	brlt	.+22     	; 0x12f6 <I2C_Read+0x38>
    12e0:	8e ef       	ldi	r24, 0xFE	; 254
    12e2:	93 e0       	ldi	r25, 0x03	; 3
    12e4:	90 93 5b 02 	sts	0x025B, r25	; 0x80025b <ticks+0x1>
    12e8:	80 93 5a 02 	sts	0x025A, r24	; 0x80025a <ticks>
    12ec:	20 81       	ld	r18, Z
    12ee:	22 23       	and	r18, r18
    12f0:	14 f0       	brlt	.+4      	; 0x12f6 <I2C_Read+0x38>
    12f2:	01 97       	sbiw	r24, 0x01	; 1
    12f4:	b8 f7       	brcc	.-18     	; 0x12e4 <I2C_Read+0x26>
   return TWI_DATA_REGISTER;
    12f6:	80 91 73 00 	lds	r24, 0x0073	; 0x800073 <__TEXT_REGION_LENGTH__+0x7e0073>
}
    12fa:	08 95       	ret

000012fc <I2C_Status>:
/***uint8_t I2C_status(void)***/
uint8_t I2C_Status(void)
{
	return TWI_STATUS_REGISTER & TWI_STATUS_MASK;
    12fc:	80 91 71 00 	lds	r24, 0x0071	; 0x800071 <__TEXT_REGION_LENGTH__+0x7e0071>
}
    1300:	88 7f       	andi	r24, 0xF8	; 248
    1302:	08 95       	ret

00001304 <I2C_Stop>:
  for (ticks=Nticks; !(TWI_CONTROL_REGISTER & (1<<TWINT)) && ticks; ticks--);
}
/***void I2C_Stop(void)***/
void I2C_Stop(void)
{
  TWI_CONTROL_REGISTER = ((1<< TWINT) | (1<<TWEN) | (1<<TWSTO));
    1304:	84 e9       	ldi	r24, 0x94	; 148
    1306:	80 93 74 00 	sts	0x0074, r24	; 0x800074 <__TEXT_REGION_LENGTH__+0x7e0074>
	#else
		//round up by default
		__ticks_dc = (uint32_t)(ceil(fabs(__tmp)));
	#endif

	__builtin_avr_delay_cycles(__ticks_dc);
    130a:	8f e8       	ldi	r24, 0x8F	; 143
    130c:	91 e0       	ldi	r25, 0x01	; 1
    130e:	01 97       	sbiw	r24, 0x01	; 1
    1310:	f1 f7       	brne	.-4      	; 0x130e <I2C_Stop+0xa>
    1312:	00 c0       	rjmp	.+0      	; 0x1314 <I2C_Stop+0x10>
    1314:	00 00       	nop
    1316:	08 95       	ret

00001318 <I2C_Init>:
  return ic;
}
/***void I2C_Init(uint8_t prescaler)***/
void I2C_Init(uint8_t prescaler)
{
	I2C_DDR|=I2C_IO_MASK;
    1318:	91 b3       	in	r25, 0x11	; 17
    131a:	93 60       	ori	r25, 0x03	; 3
    131c:	91 bb       	out	0x11, r25	; 17
	I2C_PORT|=I2C_IO_MASK;
    131e:	92 b3       	in	r25, 0x12	; 18
    1320:	93 60       	ori	r25, 0x03	; 3
    1322:	92 bb       	out	0x12, r25	; 18
	switch(prescaler){
    1324:	84 30       	cpi	r24, 0x04	; 4
    1326:	79 f0       	breq	.+30     	; 0x1346 <I2C_Init+0x2e>
    1328:	18 f4       	brcc	.+6      	; 0x1330 <I2C_Init+0x18>
    132a:	81 30       	cpi	r24, 0x01	; 1
    132c:	31 f0       	breq	.+12     	; 0x133a <I2C_Init+0x22>
    132e:	1d c0       	rjmp	.+58     	; 0x136a <I2C_Init+0x52>
    1330:	80 31       	cpi	r24, 0x10	; 16
    1332:	79 f0       	breq	.+30     	; 0x1352 <I2C_Init+0x3a>
    1334:	80 34       	cpi	r24, 0x40	; 64
    1336:	99 f0       	breq	.+38     	; 0x135e <I2C_Init+0x46>
    1338:	18 c0       	rjmp	.+48     	; 0x136a <I2C_Init+0x52>
		case 1:
		TWI_STATUS_REGISTER &= ~TWI_PRESCALER_MASK;
    133a:	e1 e7       	ldi	r30, 0x71	; 113
    133c:	f0 e0       	ldi	r31, 0x00	; 0
    133e:	90 81       	ld	r25, Z
    1340:	9c 7f       	andi	r25, 0xFC	; 252
    1342:	90 83       	st	Z, r25
		break;
    1344:	18 c0       	rjmp	.+48     	; 0x1376 <I2C_Init+0x5e>
		case 4:
		TWI_STATUS_REGISTER |= (1<<TWPS0);
    1346:	e1 e7       	ldi	r30, 0x71	; 113
    1348:	f0 e0       	ldi	r31, 0x00	; 0
    134a:	90 81       	ld	r25, Z
    134c:	91 60       	ori	r25, 0x01	; 1
    134e:	90 83       	st	Z, r25
		break;
    1350:	12 c0       	rjmp	.+36     	; 0x1376 <I2C_Init+0x5e>
		case 16:
		TWI_STATUS_REGISTER |= (2<<TWPS0);
    1352:	e1 e7       	ldi	r30, 0x71	; 113
    1354:	f0 e0       	ldi	r31, 0x00	; 0
    1356:	90 81       	ld	r25, Z
    1358:	92 60       	ori	r25, 0x02	; 2
    135a:	90 83       	st	Z, r25
		break;
    135c:	0c c0       	rjmp	.+24     	; 0x1376 <I2C_Init+0x5e>
		case 64:
		TWI_STATUS_REGISTER |= (3<<TWPS0);
    135e:	e1 e7       	ldi	r30, 0x71	; 113
    1360:	f0 e0       	ldi	r31, 0x00	; 0
    1362:	90 81       	ld	r25, Z
    1364:	93 60       	ori	r25, 0x03	; 3
    1366:	90 83       	st	Z, r25
		break;
    1368:	06 c0       	rjmp	.+12     	; 0x1376 <I2C_Init+0x5e>
		default:
		prescaler=1;
		TWI_STATUS_REGISTER &= ~TWI_PRESCALER_MASK;
    136a:	e1 e7       	ldi	r30, 0x71	; 113
    136c:	f0 e0       	ldi	r31, 0x00	; 0
    136e:	80 81       	ld	r24, Z
    1370:	8c 7f       	andi	r24, 0xFC	; 252
    1372:	80 83       	st	Z, r24
		break;
		case 64:
		TWI_STATUS_REGISTER |= (3<<TWPS0);
		break;
		default:
		prescaler=1;
    1374:	81 e0       	ldi	r24, 0x01	; 1
		TWI_STATUS_REGISTER &= ~TWI_PRESCALER_MASK;
		break;
	}
	TWI_BIT_RATE_REGISTER = ((F_CPU/I2C_SCL_CLOCK)-16)/(2*prescaler);
    1376:	28 2f       	mov	r18, r24
    1378:	30 e0       	ldi	r19, 0x00	; 0
    137a:	22 0f       	add	r18, r18
    137c:	33 1f       	adc	r19, r19
    137e:	03 2e       	mov	r0, r19
    1380:	00 0c       	add	r0, r0
    1382:	44 0b       	sbc	r20, r20
    1384:	55 0b       	sbc	r21, r21
    1386:	60 e9       	ldi	r22, 0x90	; 144
    1388:	70 e0       	ldi	r23, 0x00	; 0
    138a:	80 e0       	ldi	r24, 0x00	; 0
    138c:	90 e0       	ldi	r25, 0x00	; 0
    138e:	0e 94 ea 19 	call	0x33d4	; 0x33d4 <__udivmodsi4>
    1392:	20 93 70 00 	sts	0x0070, r18	; 0x800070 <__TEXT_REGION_LENGTH__+0x7e0070>
    1396:	08 95       	ret

00001398 <I2Cenable>:
void I2C_Write(uint8_t var_i2cData_u8);
uint8_t I2C_Read(uint8_t var_ackOption_u8);
uint8_t I2C_Status(void);
/***I2C I2Cenable(uint8_t prescaler)***/
I2C I2Cenable(uint8_t prescaler)
{
    1398:	1f 93       	push	r17
    139a:	cf 93       	push	r28
    139c:	df 93       	push	r29
    139e:	ec 01       	movw	r28, r24
    13a0:	86 2f       	mov	r24, r22
  uint8_t tSREG;
  tSREG=SREG;
    13a2:	1f b7       	in	r17, 0x3f	; 63
  SREG&=~(1<<GLOBAL_INTERRUPT_ENABLE);
    13a4:	9f b7       	in	r25, 0x3f	; 63
    13a6:	9f 77       	andi	r25, 0x7F	; 127
    13a8:	9f bf       	out	0x3f, r25	; 63
  I2C ic;
  I2C_Init(prescaler);
    13aa:	b6 df       	rcall	.-148    	; 0x1318 <I2C_Init>
  ic.Stop=I2C_Stop;
  ic.Write=I2C_Write;
  ic.Read=I2C_Read;
  ic.Status=I2C_Status;
  /******/
  SREG=tSREG;
    13ac:	1f bf       	out	0x3f, r17	; 63
  return ic;
    13ae:	8b e2       	ldi	r24, 0x2B	; 43
    13b0:	99 e0       	ldi	r25, 0x09	; 9
    13b2:	99 83       	std	Y+1, r25	; 0x01
    13b4:	88 83       	st	Y, r24
    13b6:	82 e8       	ldi	r24, 0x82	; 130
    13b8:	99 e0       	ldi	r25, 0x09	; 9
    13ba:	9b 83       	std	Y+3, r25	; 0x03
    13bc:	8a 83       	std	Y+2, r24	; 0x02
    13be:	84 e4       	ldi	r24, 0x44	; 68
    13c0:	99 e0       	ldi	r25, 0x09	; 9
    13c2:	9d 83       	std	Y+5, r25	; 0x05
    13c4:	8c 83       	std	Y+4, r24	; 0x04
    13c6:	8f e5       	ldi	r24, 0x5F	; 95
    13c8:	99 e0       	ldi	r25, 0x09	; 9
    13ca:	9f 83       	std	Y+7, r25	; 0x07
    13cc:	8e 83       	std	Y+6, r24	; 0x06
    13ce:	8e e7       	ldi	r24, 0x7E	; 126
    13d0:	99 e0       	ldi	r25, 0x09	; 9
    13d2:	99 87       	std	Y+9, r25	; 0x09
    13d4:	88 87       	std	Y+8, r24	; 0x08
}
    13d6:	ce 01       	movw	r24, r28
    13d8:	df 91       	pop	r29
    13da:	cf 91       	pop	r28
    13dc:	1f 91       	pop	r17
    13de:	08 95       	ret

000013e0 <KEYPAD_get>:
	}
	return data;
}
/***read***/
struct keypadata KEYPAD_get(void)
{
    13e0:	cf 93       	push	r28
    13e2:	df 93       	push	r29
    13e4:	00 d0       	rcall	.+0      	; 0x13e6 <KEYPAD_get+0x6>
    13e6:	00 d0       	rcall	.+0      	; 0x13e8 <KEYPAD_get+0x8>
    13e8:	1f 92       	push	r1
    13ea:	cd b7       	in	r28, 0x3d	; 61
    13ec:	de b7       	in	r29, 0x3e	; 62
	return data;
    13ee:	85 e0       	ldi	r24, 0x05	; 5
    13f0:	ea e9       	ldi	r30, 0x9A	; 154
    13f2:	f2 e0       	ldi	r31, 0x02	; 2
    13f4:	de 01       	movw	r26, r28
    13f6:	11 96       	adiw	r26, 0x01	; 1
    13f8:	01 90       	ld	r0, Z+
    13fa:	0d 92       	st	X+, r0
    13fc:	8a 95       	dec	r24
    13fe:	e1 f7       	brne	.-8      	; 0x13f8 <KEYPAD_get+0x18>
    1400:	29 81       	ldd	r18, Y+1	; 0x01
    1402:	3a 81       	ldd	r19, Y+2	; 0x02
    1404:	4b 81       	ldd	r20, Y+3	; 0x03
    1406:	5c 81       	ldd	r21, Y+4	; 0x04
    1408:	6d 81       	ldd	r22, Y+5	; 0x05
}
    140a:	70 e0       	ldi	r23, 0x00	; 0
    140c:	80 e0       	ldi	r24, 0x00	; 0
    140e:	90 e0       	ldi	r25, 0x00	; 0
    1410:	0f 90       	pop	r0
    1412:	0f 90       	pop	r0
    1414:	0f 90       	pop	r0
    1416:	0f 90       	pop	r0
    1418:	0f 90       	pop	r0
    141a:	df 91       	pop	r29
    141c:	cf 91       	pop	r28
    141e:	08 95       	ret

00001420 <KEYPAD_flush>:
/***flush***/
void KEYPAD_flush(void)
{
	KEYPADSTRINGINDEX=0;
    1420:	10 92 67 02 	sts	0x0267, r1	; 0x800267 <KEYPADSTRINGINDEX>
	data.character=' ';
    1424:	ea e9       	ldi	r30, 0x9A	; 154
    1426:	f2 e0       	ldi	r31, 0x02	; 2
    1428:	80 e2       	ldi	r24, 0x20	; 32
    142a:	80 83       	st	Z, r24
	data.printstring="\0";
    142c:	80 e1       	ldi	r24, 0x10	; 16
    142e:	91 e0       	ldi	r25, 0x01	; 1
    1430:	92 83       	std	Z+2, r25	; 0x02
    1432:	81 83       	std	Z+1, r24	; 0x01
	data.string="\0";
    1434:	94 83       	std	Z+4, r25	; 0x04
    1436:	83 83       	std	Z+3, r24	; 0x03
    1438:	08 95       	ret

0000143a <KEYPAD_getkey>:
	//Going to use pull down method.
	//Inic String Vec
	return keypad;
}
char KEYPAD_getkey(void)
{
    143a:	cf 93       	push	r28
    143c:	df 93       	push	r29
    143e:	21 e0       	ldi	r18, 0x01	; 1
	uint8_t HL;
	char c='\0';
    1440:	80 e0       	ldi	r24, 0x00	; 0
				*keypad_PORT|=(1<<KEYPADLINE_1);
				break;
			case 1: //line 2 index 1
				*keypad_DDR|=(1<<KEYPADLINE_2);
				*keypad_PORT&=~(1<<KEYPADLINE_2);
				keypad_dataf.line_2=*keypad_PIN & ((1<<KEYPADDATA_1) | (1<<KEYPADDATA_2) | (1<<KEYPADDATA_3) | (1<<KEYPADDATA_4));
    1442:	af e5       	ldi	r26, 0x5F	; 95
    1444:	b2 e0       	ldi	r27, 0x02	; 2
				HL=KEYPADhl(keypad_datai.line_2,keypad_dataf.line_2);
    1446:	e3 e6       	ldi	r30, 0x63	; 99
    1448:	f2 e0       	ldi	r31, 0x02	; 2
					if(HL == (1<<KEYPADDATA_2))
						c=keypadvalue[1][1];
					if(HL == (1<<KEYPADDATA_3))
						c=keypadvalue[1][2];
					if(HL == (1<<KEYPADDATA_4))
						c=keypadvalue[1][3];
    144a:	60 e0       	ldi	r22, 0x00	; 0
    144c:	71 e0       	ldi	r23, 0x01	; 1
    144e:	01 c0       	rjmp	.+2      	; 0x1452 <KEYPAD_getkey+0x18>
    1450:	2f 5f       	subi	r18, 0xFF	; 255
{
	uint8_t HL;
	char c='\0';
	uint8_t keypad_option;
	for(keypad_option=0;keypad_option<KEYPADLINES;keypad_option++){
		switch (keypad_option)
    1452:	9f ef       	ldi	r25, 0xFF	; 255
    1454:	92 0f       	add	r25, r18
    1456:	91 30       	cpi	r25, 0x01	; 1
    1458:	09 f4       	brne	.+2      	; 0x145c <KEYPAD_getkey+0x22>
    145a:	4b c0       	rjmp	.+150    	; 0x14f2 <KEYPAD_getkey+0xb8>
    145c:	38 f0       	brcs	.+14     	; 0x146c <KEYPAD_getkey+0x32>
    145e:	92 30       	cpi	r25, 0x02	; 2
    1460:	09 f4       	brne	.+2      	; 0x1464 <KEYPAD_getkey+0x2a>
    1462:	8c c0       	rjmp	.+280    	; 0x157c <KEYPAD_getkey+0x142>
    1464:	93 30       	cpi	r25, 0x03	; 3
    1466:	09 f4       	brne	.+2      	; 0x146a <KEYPAD_getkey+0x30>
    1468:	ce c0       	rjmp	.+412    	; 0x1606 <KEYPAD_getkey+0x1cc>
    146a:	0e c1       	rjmp	.+540    	; 0x1688 <KEYPAD_getkey+0x24e>
		{
			case 0: //line 1 index 0
				*keypad_DDR|=(1<<KEYPADLINE_1);
    146c:	40 91 6a 02 	lds	r20, 0x026A	; 0x80026a <keypad_DDR>
    1470:	50 91 6b 02 	lds	r21, 0x026B	; 0x80026b <keypad_DDR+0x1>
    1474:	ea 01       	movw	r28, r20
    1476:	98 81       	ld	r25, Y
    1478:	90 68       	ori	r25, 0x80	; 128
    147a:	98 83       	st	Y, r25
				*keypad_PORT&=~(1<<KEYPADLINE_1);
    147c:	40 91 5c 02 	lds	r20, 0x025C	; 0x80025c <keypad_PORT>
    1480:	50 91 5d 02 	lds	r21, 0x025D	; 0x80025d <keypad_PORT+0x1>
    1484:	ea 01       	movw	r28, r20
    1486:	98 81       	ld	r25, Y
    1488:	9f 77       	andi	r25, 0x7F	; 127
    148a:	98 83       	st	Y, r25
				keypad_dataf.line_1=*keypad_PIN & ((1<<KEYPADDATA_1) | (1<<KEYPADDATA_2) | (1<<KEYPADDATA_3) | (1<<KEYPADDATA_4));
    148c:	40 91 68 02 	lds	r20, 0x0268	; 0x800268 <keypad_PIN>
    1490:	50 91 69 02 	lds	r21, 0x0269	; 0x800269 <keypad_PIN+0x1>
    1494:	ea 01       	movw	r28, r20
    1496:	38 81       	ld	r19, Y
    1498:	34 77       	andi	r19, 0x74	; 116
    149a:	3c 93       	st	X, r19
				HL=KEYPADhl(keypad_datai.line_1,keypad_dataf.line_1);
    149c:	90 81       	ld	r25, Z
uint8_t KEYPADhl(uint8_t xi, uint8_t xf)
{
	uint8_t i;
	//printf("KEYPADhl\n");
	i=xf^xi;
	i&=xi;
    149e:	43 2f       	mov	r20, r19
    14a0:	49 27       	eor	r20, r25
    14a2:	94 23       	and	r25, r20
			case 0: //line 1 index 0
				*keypad_DDR|=(1<<KEYPADLINE_1);
				*keypad_PORT&=~(1<<KEYPADLINE_1);
				keypad_dataf.line_1=*keypad_PIN & ((1<<KEYPADDATA_1) | (1<<KEYPADDATA_2) | (1<<KEYPADDATA_3) | (1<<KEYPADDATA_4));
				HL=KEYPADhl(keypad_datai.line_1,keypad_dataf.line_1);
				keypad_datai.line_1=keypad_dataf.line_1;
    14a4:	30 83       	st	Z, r19
				if(HL){
    14a6:	99 23       	and	r25, r25
    14a8:	99 f0       	breq	.+38     	; 0x14d0 <KEYPAD_getkey+0x96>
					//decode index line one column what ?
					if(HL == (1<<KEYPADDATA_1))
    14aa:	94 30       	cpi	r25, 0x04	; 4
    14ac:	19 f4       	brne	.+6      	; 0x14b4 <KEYPAD_getkey+0x7a>
						c=keypadvalue[0][0];
    14ae:	eb 01       	movw	r28, r22
    14b0:	88 81       	ld	r24, Y
    14b2:	0a c0       	rjmp	.+20     	; 0x14c8 <KEYPAD_getkey+0x8e>
					if(HL == (1<<KEYPADDATA_2))
    14b4:	90 31       	cpi	r25, 0x10	; 16
    14b6:	19 f4       	brne	.+6      	; 0x14be <KEYPAD_getkey+0x84>
						c=keypadvalue[0][1];
    14b8:	eb 01       	movw	r28, r22
    14ba:	89 81       	ldd	r24, Y+1	; 0x01
    14bc:	09 c0       	rjmp	.+18     	; 0x14d0 <KEYPAD_getkey+0x96>
					if(HL == (1<<KEYPADDATA_3))
    14be:	90 32       	cpi	r25, 0x20	; 32
    14c0:	19 f4       	brne	.+6      	; 0x14c8 <KEYPAD_getkey+0x8e>
						c=keypadvalue[0][2];
    14c2:	eb 01       	movw	r28, r22
    14c4:	8a 81       	ldd	r24, Y+2	; 0x02
    14c6:	04 c0       	rjmp	.+8      	; 0x14d0 <KEYPAD_getkey+0x96>
					if(HL == (1<<KEYPADDATA_4))
    14c8:	90 34       	cpi	r25, 0x40	; 64
    14ca:	11 f4       	brne	.+4      	; 0x14d0 <KEYPAD_getkey+0x96>
						c=keypadvalue[0][3];
    14cc:	eb 01       	movw	r28, r22
    14ce:	8b 81       	ldd	r24, Y+3	; 0x03
				}
				*keypad_DDR&=~(1<<KEYPADLINE_1);
    14d0:	40 91 6a 02 	lds	r20, 0x026A	; 0x80026a <keypad_DDR>
    14d4:	50 91 6b 02 	lds	r21, 0x026B	; 0x80026b <keypad_DDR+0x1>
    14d8:	ea 01       	movw	r28, r20
    14da:	98 81       	ld	r25, Y
    14dc:	9f 77       	andi	r25, 0x7F	; 127
    14de:	98 83       	st	Y, r25
				*keypad_PORT|=(1<<KEYPADLINE_1);
    14e0:	40 91 5c 02 	lds	r20, 0x025C	; 0x80025c <keypad_PORT>
    14e4:	50 91 5d 02 	lds	r21, 0x025D	; 0x80025d <keypad_PORT+0x1>
    14e8:	ea 01       	movw	r28, r20
    14ea:	98 81       	ld	r25, Y
    14ec:	90 68       	ori	r25, 0x80	; 128
    14ee:	98 83       	st	Y, r25
				break;
    14f0:	af cf       	rjmp	.-162    	; 0x1450 <KEYPAD_getkey+0x16>
			case 1: //line 2 index 1
				*keypad_DDR|=(1<<KEYPADLINE_2);
    14f2:	40 91 6a 02 	lds	r20, 0x026A	; 0x80026a <keypad_DDR>
    14f6:	50 91 6b 02 	lds	r21, 0x026B	; 0x80026b <keypad_DDR+0x1>
    14fa:	ea 01       	movw	r28, r20
    14fc:	98 81       	ld	r25, Y
    14fe:	91 60       	ori	r25, 0x01	; 1
    1500:	98 83       	st	Y, r25
				*keypad_PORT&=~(1<<KEYPADLINE_2);
    1502:	40 91 5c 02 	lds	r20, 0x025C	; 0x80025c <keypad_PORT>
    1506:	50 91 5d 02 	lds	r21, 0x025D	; 0x80025d <keypad_PORT+0x1>
    150a:	ea 01       	movw	r28, r20
    150c:	98 81       	ld	r25, Y
    150e:	9e 7f       	andi	r25, 0xFE	; 254
    1510:	98 83       	st	Y, r25
				keypad_dataf.line_2=*keypad_PIN & ((1<<KEYPADDATA_1) | (1<<KEYPADDATA_2) | (1<<KEYPADDATA_3) | (1<<KEYPADDATA_4));
    1512:	40 91 68 02 	lds	r20, 0x0268	; 0x800268 <keypad_PIN>
    1516:	50 91 69 02 	lds	r21, 0x0269	; 0x800269 <keypad_PIN+0x1>
    151a:	ea 01       	movw	r28, r20
    151c:	38 81       	ld	r19, Y
    151e:	34 77       	andi	r19, 0x74	; 116
    1520:	11 96       	adiw	r26, 0x01	; 1
    1522:	3c 93       	st	X, r19
    1524:	11 97       	sbiw	r26, 0x01	; 1
				HL=KEYPADhl(keypad_datai.line_2,keypad_dataf.line_2);
    1526:	91 81       	ldd	r25, Z+1	; 0x01
uint8_t KEYPADhl(uint8_t xi, uint8_t xf)
{
	uint8_t i;
	//printf("KEYPADhl\n");
	i=xf^xi;
	i&=xi;
    1528:	43 2f       	mov	r20, r19
    152a:	49 27       	eor	r20, r25
    152c:	94 23       	and	r25, r20
			case 1: //line 2 index 1
				*keypad_DDR|=(1<<KEYPADLINE_2);
				*keypad_PORT&=~(1<<KEYPADLINE_2);
				keypad_dataf.line_2=*keypad_PIN & ((1<<KEYPADDATA_1) | (1<<KEYPADDATA_2) | (1<<KEYPADDATA_3) | (1<<KEYPADDATA_4));
				HL=KEYPADhl(keypad_datai.line_2,keypad_dataf.line_2);
				keypad_datai.line_2=keypad_dataf.line_2;
    152e:	31 83       	std	Z+1, r19	; 0x01
				if(HL){
    1530:	99 23       	and	r25, r25
    1532:	99 f0       	breq	.+38     	; 0x155a <KEYPAD_getkey+0x120>
					//decode index line two column what ?
					if(HL == (1<<KEYPADDATA_1))
    1534:	94 30       	cpi	r25, 0x04	; 4
    1536:	19 f4       	brne	.+6      	; 0x153e <KEYPAD_getkey+0x104>
						c=keypadvalue[1][0];
    1538:	eb 01       	movw	r28, r22
    153a:	8c 81       	ldd	r24, Y+4	; 0x04
    153c:	0a c0       	rjmp	.+20     	; 0x1552 <KEYPAD_getkey+0x118>
					if(HL == (1<<KEYPADDATA_2))
    153e:	90 31       	cpi	r25, 0x10	; 16
    1540:	19 f4       	brne	.+6      	; 0x1548 <KEYPAD_getkey+0x10e>
						c=keypadvalue[1][1];
    1542:	eb 01       	movw	r28, r22
    1544:	8d 81       	ldd	r24, Y+5	; 0x05
    1546:	09 c0       	rjmp	.+18     	; 0x155a <KEYPAD_getkey+0x120>
					if(HL == (1<<KEYPADDATA_3))
    1548:	90 32       	cpi	r25, 0x20	; 32
    154a:	19 f4       	brne	.+6      	; 0x1552 <KEYPAD_getkey+0x118>
						c=keypadvalue[1][2];
    154c:	eb 01       	movw	r28, r22
    154e:	8e 81       	ldd	r24, Y+6	; 0x06
    1550:	04 c0       	rjmp	.+8      	; 0x155a <KEYPAD_getkey+0x120>
					if(HL == (1<<KEYPADDATA_4))
    1552:	90 34       	cpi	r25, 0x40	; 64
    1554:	11 f4       	brne	.+4      	; 0x155a <KEYPAD_getkey+0x120>
						c=keypadvalue[1][3];
    1556:	eb 01       	movw	r28, r22
    1558:	8f 81       	ldd	r24, Y+7	; 0x07
				}
				*keypad_DDR&=~(1<<KEYPADLINE_2);
    155a:	40 91 6a 02 	lds	r20, 0x026A	; 0x80026a <keypad_DDR>
    155e:	50 91 6b 02 	lds	r21, 0x026B	; 0x80026b <keypad_DDR+0x1>
    1562:	ea 01       	movw	r28, r20
    1564:	98 81       	ld	r25, Y
    1566:	9e 7f       	andi	r25, 0xFE	; 254
    1568:	98 83       	st	Y, r25
				*keypad_PORT|=(1<<KEYPADLINE_2);
    156a:	40 91 5c 02 	lds	r20, 0x025C	; 0x80025c <keypad_PORT>
    156e:	50 91 5d 02 	lds	r21, 0x025D	; 0x80025d <keypad_PORT+0x1>
    1572:	ea 01       	movw	r28, r20
    1574:	98 81       	ld	r25, Y
    1576:	91 60       	ori	r25, 0x01	; 1
    1578:	98 83       	st	Y, r25
				break;
    157a:	6a cf       	rjmp	.-300    	; 0x1450 <KEYPAD_getkey+0x16>
			case 2: //line 3 index 2
				*keypad_DDR|=(1<<KEYPADLINE_3);
    157c:	40 91 6a 02 	lds	r20, 0x026A	; 0x80026a <keypad_DDR>
    1580:	50 91 6b 02 	lds	r21, 0x026B	; 0x80026b <keypad_DDR+0x1>
    1584:	ea 01       	movw	r28, r20
    1586:	98 81       	ld	r25, Y
    1588:	92 60       	ori	r25, 0x02	; 2
    158a:	98 83       	st	Y, r25
				*keypad_PORT&=~(1<<KEYPADLINE_3);
    158c:	40 91 5c 02 	lds	r20, 0x025C	; 0x80025c <keypad_PORT>
    1590:	50 91 5d 02 	lds	r21, 0x025D	; 0x80025d <keypad_PORT+0x1>
    1594:	ea 01       	movw	r28, r20
    1596:	98 81       	ld	r25, Y
    1598:	9d 7f       	andi	r25, 0xFD	; 253
    159a:	98 83       	st	Y, r25
				keypad_dataf.line_3=*keypad_PIN & ((1<<KEYPADDATA_1) | (1<<KEYPADDATA_2) | (1<<KEYPADDATA_3) | (1<<KEYPADDATA_4));
    159c:	40 91 68 02 	lds	r20, 0x0268	; 0x800268 <keypad_PIN>
    15a0:	50 91 69 02 	lds	r21, 0x0269	; 0x800269 <keypad_PIN+0x1>
    15a4:	ea 01       	movw	r28, r20
    15a6:	38 81       	ld	r19, Y
    15a8:	34 77       	andi	r19, 0x74	; 116
    15aa:	12 96       	adiw	r26, 0x02	; 2
    15ac:	3c 93       	st	X, r19
    15ae:	12 97       	sbiw	r26, 0x02	; 2
				HL=KEYPADhl(keypad_datai.line_3,keypad_dataf.line_3);
    15b0:	92 81       	ldd	r25, Z+2	; 0x02
uint8_t KEYPADhl(uint8_t xi, uint8_t xf)
{
	uint8_t i;
	//printf("KEYPADhl\n");
	i=xf^xi;
	i&=xi;
    15b2:	43 2f       	mov	r20, r19
    15b4:	49 27       	eor	r20, r25
    15b6:	94 23       	and	r25, r20
			case 2: //line 3 index 2
				*keypad_DDR|=(1<<KEYPADLINE_3);
				*keypad_PORT&=~(1<<KEYPADLINE_3);
				keypad_dataf.line_3=*keypad_PIN & ((1<<KEYPADDATA_1) | (1<<KEYPADDATA_2) | (1<<KEYPADDATA_3) | (1<<KEYPADDATA_4));
				HL=KEYPADhl(keypad_datai.line_3,keypad_dataf.line_3);
				keypad_datai.line_3=keypad_dataf.line_3;
    15b8:	32 83       	std	Z+2, r19	; 0x02
				if(HL){
    15ba:	99 23       	and	r25, r25
    15bc:	99 f0       	breq	.+38     	; 0x15e4 <KEYPAD_getkey+0x1aa>
					//decode index line three column what ?
					if(HL == (1<<KEYPADDATA_1))
    15be:	94 30       	cpi	r25, 0x04	; 4
    15c0:	19 f4       	brne	.+6      	; 0x15c8 <KEYPAD_getkey+0x18e>
						c=keypadvalue[2][0];
    15c2:	eb 01       	movw	r28, r22
    15c4:	88 85       	ldd	r24, Y+8	; 0x08
    15c6:	0a c0       	rjmp	.+20     	; 0x15dc <KEYPAD_getkey+0x1a2>
					if(HL == (1<<KEYPADDATA_2))
    15c8:	90 31       	cpi	r25, 0x10	; 16
    15ca:	19 f4       	brne	.+6      	; 0x15d2 <KEYPAD_getkey+0x198>
						c=keypadvalue[2][1];
    15cc:	eb 01       	movw	r28, r22
    15ce:	89 85       	ldd	r24, Y+9	; 0x09
    15d0:	09 c0       	rjmp	.+18     	; 0x15e4 <KEYPAD_getkey+0x1aa>
					if(HL == (1<<KEYPADDATA_3))
    15d2:	90 32       	cpi	r25, 0x20	; 32
    15d4:	19 f4       	brne	.+6      	; 0x15dc <KEYPAD_getkey+0x1a2>
						c=keypadvalue[2][2];
    15d6:	eb 01       	movw	r28, r22
    15d8:	8a 85       	ldd	r24, Y+10	; 0x0a
    15da:	04 c0       	rjmp	.+8      	; 0x15e4 <KEYPAD_getkey+0x1aa>
					if(HL == (1<<KEYPADDATA_4))
    15dc:	90 34       	cpi	r25, 0x40	; 64
    15de:	11 f4       	brne	.+4      	; 0x15e4 <KEYPAD_getkey+0x1aa>
						c=keypadvalue[2][3];
    15e0:	eb 01       	movw	r28, r22
    15e2:	8b 85       	ldd	r24, Y+11	; 0x0b
				}
				*keypad_DDR&=~(1<<KEYPADLINE_3);
    15e4:	40 91 6a 02 	lds	r20, 0x026A	; 0x80026a <keypad_DDR>
    15e8:	50 91 6b 02 	lds	r21, 0x026B	; 0x80026b <keypad_DDR+0x1>
    15ec:	ea 01       	movw	r28, r20
    15ee:	98 81       	ld	r25, Y
    15f0:	9d 7f       	andi	r25, 0xFD	; 253
    15f2:	98 83       	st	Y, r25
				*keypad_PORT|=(1<<KEYPADLINE_3);
    15f4:	40 91 5c 02 	lds	r20, 0x025C	; 0x80025c <keypad_PORT>
    15f8:	50 91 5d 02 	lds	r21, 0x025D	; 0x80025d <keypad_PORT+0x1>
    15fc:	ea 01       	movw	r28, r20
    15fe:	98 81       	ld	r25, Y
    1600:	92 60       	ori	r25, 0x02	; 2
    1602:	98 83       	st	Y, r25
				break;
    1604:	25 cf       	rjmp	.-438    	; 0x1450 <KEYPAD_getkey+0x16>
			case 3: //line 4 index 3
				*keypad_DDR|=(1<<KEYPADLINE_4);
    1606:	e0 91 6a 02 	lds	r30, 0x026A	; 0x80026a <keypad_DDR>
    160a:	f0 91 6b 02 	lds	r31, 0x026B	; 0x80026b <keypad_DDR+0x1>
    160e:	90 81       	ld	r25, Z
    1610:	98 60       	ori	r25, 0x08	; 8
    1612:	90 83       	st	Z, r25
				*keypad_PORT&=~(1<<KEYPADLINE_4);
    1614:	e0 91 5c 02 	lds	r30, 0x025C	; 0x80025c <keypad_PORT>
    1618:	f0 91 5d 02 	lds	r31, 0x025D	; 0x80025d <keypad_PORT+0x1>
    161c:	90 81       	ld	r25, Z
    161e:	97 7f       	andi	r25, 0xF7	; 247
    1620:	90 83       	st	Z, r25
				keypad_dataf.line_4=*keypad_PIN & ((1<<KEYPADDATA_1) | (1<<KEYPADDATA_2) | (1<<KEYPADDATA_3) | (1<<KEYPADDATA_4));
    1622:	e0 91 68 02 	lds	r30, 0x0268	; 0x800268 <keypad_PIN>
    1626:	f0 91 69 02 	lds	r31, 0x0269	; 0x800269 <keypad_PIN+0x1>
    162a:	20 81       	ld	r18, Z
    162c:	24 77       	andi	r18, 0x74	; 116
    162e:	20 93 62 02 	sts	0x0262, r18	; 0x800262 <keypad_dataf+0x3>
				HL=KEYPADhl(keypad_datai.line_4,keypad_dataf.line_4);
    1632:	e3 e6       	ldi	r30, 0x63	; 99
    1634:	f2 e0       	ldi	r31, 0x02	; 2
    1636:	93 81       	ldd	r25, Z+3	; 0x03
uint8_t KEYPADhl(uint8_t xi, uint8_t xf)
{
	uint8_t i;
	//printf("KEYPADhl\n");
	i=xf^xi;
	i&=xi;
    1638:	32 2f       	mov	r19, r18
    163a:	39 27       	eor	r19, r25
    163c:	93 23       	and	r25, r19
			case 3: //line 4 index 3
				*keypad_DDR|=(1<<KEYPADLINE_4);
				*keypad_PORT&=~(1<<KEYPADLINE_4);
				keypad_dataf.line_4=*keypad_PIN & ((1<<KEYPADDATA_1) | (1<<KEYPADDATA_2) | (1<<KEYPADDATA_3) | (1<<KEYPADDATA_4));
				HL=KEYPADhl(keypad_datai.line_4,keypad_dataf.line_4);
				keypad_datai.line_4=keypad_dataf.line_4;
    163e:	23 83       	std	Z+3, r18	; 0x03
				if(HL){
    1640:	99 23       	and	r25, r25
    1642:	99 f0       	breq	.+38     	; 0x166a <KEYPAD_getkey+0x230>
					//decode index line four column what ?
					if(HL == (1<<KEYPADDATA_1))
    1644:	94 30       	cpi	r25, 0x04	; 4
    1646:	19 f4       	brne	.+6      	; 0x164e <KEYPAD_getkey+0x214>
						c=keypadvalue[3][0];
    1648:	80 91 0c 01 	lds	r24, 0x010C	; 0x80010c <__DATA_REGION_ORIGIN__+0xc>
    164c:	0a c0       	rjmp	.+20     	; 0x1662 <KEYPAD_getkey+0x228>
					if(HL == (1<<KEYPADDATA_2))
    164e:	90 31       	cpi	r25, 0x10	; 16
    1650:	19 f4       	brne	.+6      	; 0x1658 <KEYPAD_getkey+0x21e>
						c=keypadvalue[3][1];
    1652:	80 91 0d 01 	lds	r24, 0x010D	; 0x80010d <__DATA_REGION_ORIGIN__+0xd>
    1656:	09 c0       	rjmp	.+18     	; 0x166a <KEYPAD_getkey+0x230>
					if(HL == (1<<KEYPADDATA_3))
    1658:	90 32       	cpi	r25, 0x20	; 32
    165a:	19 f4       	brne	.+6      	; 0x1662 <KEYPAD_getkey+0x228>
						c=keypadvalue[3][2];
    165c:	80 91 0e 01 	lds	r24, 0x010E	; 0x80010e <__DATA_REGION_ORIGIN__+0xe>
    1660:	04 c0       	rjmp	.+8      	; 0x166a <KEYPAD_getkey+0x230>
					if(HL == (1<<KEYPADDATA_4))
    1662:	90 34       	cpi	r25, 0x40	; 64
    1664:	11 f4       	brne	.+4      	; 0x166a <KEYPAD_getkey+0x230>
						c=keypadvalue[3][3];
    1666:	80 91 0f 01 	lds	r24, 0x010F	; 0x80010f <__DATA_REGION_ORIGIN__+0xf>
				}
				*keypad_DDR&=~(1<<KEYPADLINE_4);
    166a:	e0 91 6a 02 	lds	r30, 0x026A	; 0x80026a <keypad_DDR>
    166e:	f0 91 6b 02 	lds	r31, 0x026B	; 0x80026b <keypad_DDR+0x1>
    1672:	90 81       	ld	r25, Z
    1674:	97 7f       	andi	r25, 0xF7	; 247
    1676:	90 83       	st	Z, r25
				*keypad_PORT|=(1<<KEYPADLINE_4);
    1678:	e0 91 5c 02 	lds	r30, 0x025C	; 0x80025c <keypad_PORT>
    167c:	f0 91 5d 02 	lds	r31, 0x025D	; 0x80025d <keypad_PORT+0x1>
    1680:	90 81       	ld	r25, Z
    1682:	98 60       	ori	r25, 0x08	; 8
    1684:	90 83       	st	Z, r25
    1686:	03 c0       	rjmp	.+6      	; 0x168e <KEYPAD_getkey+0x254>
char KEYPAD_getkey(void)
{
	uint8_t HL;
	char c='\0';
	uint8_t keypad_option;
	for(keypad_option=0;keypad_option<KEYPADLINES;keypad_option++){
    1688:	24 30       	cpi	r18, 0x04	; 4
    168a:	08 f4       	brcc	.+2      	; 0x168e <KEYPAD_getkey+0x254>
    168c:	e1 ce       	rjmp	.-574    	; 0x1450 <KEYPAD_getkey+0x16>
			default:
				break;
		}//endswitch
	}//endfor
	return c;
}
    168e:	df 91       	pop	r29
    1690:	cf 91       	pop	r28
    1692:	08 95       	ret

00001694 <KEYPAD_read>:
/***read***/
struct keypadata KEYPAD_read(void)
{
    1694:	cf 93       	push	r28
    1696:	df 93       	push	r29
    1698:	00 d0       	rcall	.+0      	; 0x169a <KEYPAD_read+0x6>
    169a:	00 d0       	rcall	.+0      	; 0x169c <KEYPAD_read+0x8>
    169c:	1f 92       	push	r1
    169e:	cd b7       	in	r28, 0x3d	; 61
    16a0:	de b7       	in	r29, 0x3e	; 62
	char c;
	c=KEYPAD_getkey(); //returns null all the time when no entry
    16a2:	cb de       	rcall	.-618    	; 0x143a <KEYPAD_getkey>
	if(c){
    16a4:	88 23       	and	r24, r24
    16a6:	b1 f1       	breq	.+108    	; 0x1714 <KEYPAD_read+0x80>
		data.character=c;
    16a8:	80 93 9a 02 	sts	0x029A, r24	; 0x80029a <data>
		if(KEYPADSTRINGINDEX<(KEYPADSTRINGSIZE)){
    16ac:	90 91 67 02 	lds	r25, 0x0267	; 0x800267 <KEYPADSTRINGINDEX>
    16b0:	94 31       	cpi	r25, 0x14	; 20
    16b2:	88 f4       	brcc	.+34     	; 0x16d6 <KEYPAD_read+0x42>
			KEYPAD_string[KEYPADSTRINGINDEX]=c;
    16b4:	e0 91 67 02 	lds	r30, 0x0267	; 0x800267 <KEYPADSTRINGINDEX>
    16b8:	f0 e0       	ldi	r31, 0x00	; 0
    16ba:	e4 59       	subi	r30, 0x94	; 148
    16bc:	fd 4f       	sbci	r31, 0xFD	; 253
    16be:	80 83       	st	Z, r24
			KEYPADSTRINGINDEX++;
    16c0:	90 91 67 02 	lds	r25, 0x0267	; 0x800267 <KEYPADSTRINGINDEX>
    16c4:	9f 5f       	subi	r25, 0xFF	; 255
    16c6:	90 93 67 02 	sts	0x0267, r25	; 0x800267 <KEYPADSTRINGINDEX>
			KEYPAD_string[KEYPADSTRINGINDEX]='\0';
    16ca:	e0 91 67 02 	lds	r30, 0x0267	; 0x800267 <KEYPADSTRINGINDEX>
    16ce:	f0 e0       	ldi	r31, 0x00	; 0
    16d0:	e4 59       	subi	r30, 0x94	; 148
    16d2:	fd 4f       	sbci	r31, 0xFD	; 253
    16d4:	10 82       	st	Z, r1
		}
		if(c==KEYPADENTERKEY){
    16d6:	84 34       	cpi	r24, 0x44	; 68
    16d8:	99 f4       	brne	.+38     	; 0x1700 <KEYPAD_read+0x6c>
			KEYPAD_string[KEYPADSTRINGINDEX-1]='\0';
    16da:	e0 91 67 02 	lds	r30, 0x0267	; 0x800267 <KEYPADSTRINGINDEX>
    16de:	f0 e0       	ldi	r31, 0x00	; 0
    16e0:	e5 59       	subi	r30, 0x95	; 149
    16e2:	fd 4f       	sbci	r31, 0xFD	; 253
    16e4:	10 82       	st	Z, r1
			KEYPADSTRINGINDEX=0;
    16e6:	10 92 67 02 	sts	0x0267, r1	; 0x800267 <KEYPADSTRINGINDEX>
			data.printstring="\0";
    16ea:	ea e9       	ldi	r30, 0x9A	; 154
    16ec:	f2 e0       	ldi	r31, 0x02	; 2
    16ee:	80 e1       	ldi	r24, 0x10	; 16
    16f0:	91 e0       	ldi	r25, 0x01	; 1
    16f2:	92 83       	std	Z+2, r25	; 0x02
    16f4:	81 83       	std	Z+1, r24	; 0x01
			data.string=KEYPAD_string;
    16f6:	8c e6       	ldi	r24, 0x6C	; 108
    16f8:	92 e0       	ldi	r25, 0x02	; 2
    16fa:	94 83       	std	Z+4, r25	; 0x04
    16fc:	83 83       	std	Z+3, r24	; 0x03
    16fe:	0a c0       	rjmp	.+20     	; 0x1714 <KEYPAD_read+0x80>
		}else{
			data.printstring=KEYPAD_string;
    1700:	ea e9       	ldi	r30, 0x9A	; 154
    1702:	f2 e0       	ldi	r31, 0x02	; 2
    1704:	8c e6       	ldi	r24, 0x6C	; 108
    1706:	92 e0       	ldi	r25, 0x02	; 2
    1708:	92 83       	std	Z+2, r25	; 0x02
    170a:	81 83       	std	Z+1, r24	; 0x01
			data.string="\0";
    170c:	80 e1       	ldi	r24, 0x10	; 16
    170e:	91 e0       	ldi	r25, 0x01	; 1
    1710:	94 83       	std	Z+4, r25	; 0x04
    1712:	83 83       	std	Z+3, r24	; 0x03
		}
	}
	return data;
    1714:	85 e0       	ldi	r24, 0x05	; 5
    1716:	ea e9       	ldi	r30, 0x9A	; 154
    1718:	f2 e0       	ldi	r31, 0x02	; 2
    171a:	de 01       	movw	r26, r28
    171c:	11 96       	adiw	r26, 0x01	; 1
    171e:	01 90       	ld	r0, Z+
    1720:	0d 92       	st	X+, r0
    1722:	8a 95       	dec	r24
    1724:	e1 f7       	brne	.-8      	; 0x171e <KEYPAD_read+0x8a>
    1726:	29 81       	ldd	r18, Y+1	; 0x01
    1728:	3a 81       	ldd	r19, Y+2	; 0x02
    172a:	4b 81       	ldd	r20, Y+3	; 0x03
    172c:	5c 81       	ldd	r21, Y+4	; 0x04
    172e:	6d 81       	ldd	r22, Y+5	; 0x05
}
    1730:	70 e0       	ldi	r23, 0x00	; 0
    1732:	80 e0       	ldi	r24, 0x00	; 0
    1734:	90 e0       	ldi	r25, 0x00	; 0
    1736:	0f 90       	pop	r0
    1738:	0f 90       	pop	r0
    173a:	0f 90       	pop	r0
    173c:	0f 90       	pop	r0
    173e:	0f 90       	pop	r0
    1740:	df 91       	pop	r29
    1742:	cf 91       	pop	r28
    1744:	08 95       	ret

00001746 <KEYPADenable>:
uint8_t KEYPADhl(uint8_t xi, uint8_t xf);
/*
** procedure and function
*/
KEYPAD KEYPADenable(volatile uint8_t *ddr, volatile uint8_t *pin, volatile uint8_t *port)
{
    1746:	cf 93       	push	r28
    1748:	df 93       	push	r29
    174a:	cd b7       	in	r28, 0x3d	; 61
    174c:	de b7       	in	r29, 0x3e	; 62
    174e:	28 97       	sbiw	r28, 0x08	; 8
    1750:	0f b6       	in	r0, 0x3f	; 63
    1752:	f8 94       	cli
    1754:	de bf       	out	0x3e, r29	; 62
    1756:	0f be       	out	0x3f, r0	; 63
    1758:	cd bf       	out	0x3d, r28	; 61
	//LOCAL VARIABLE
	uint8_t tSREG;
	tSREG=SREG;
    175a:	2f b7       	in	r18, 0x3f	; 63
	data.character=' ';
    175c:	30 e2       	ldi	r19, 0x20	; 32
    175e:	30 93 9a 02 	sts	0x029A, r19	; 0x80029a <data>
	//ALLOCAO MEMORIA PARA Estrutura
	KEYPAD keypad;
	//import parametros
	keypad_DDR=ddr;
    1762:	90 93 6b 02 	sts	0x026B, r25	; 0x80026b <keypad_DDR+0x1>
    1766:	80 93 6a 02 	sts	0x026A, r24	; 0x80026a <keypad_DDR>
	keypad_PIN=pin;
    176a:	70 93 69 02 	sts	0x0269, r23	; 0x800269 <keypad_PIN+0x1>
    176e:	60 93 68 02 	sts	0x0268, r22	; 0x800268 <keypad_PIN>
	keypad_PORT=port;
    1772:	50 93 5d 02 	sts	0x025D, r21	; 0x80025d <keypad_PORT+0x1>
    1776:	40 93 5c 02 	sts	0x025C, r20	; 0x80025c <keypad_PORT>
	//inic variables
	*keypad_DDR=(1<<KEYPADLINE_1) | (1<<KEYPADLINE_2) | (1<<KEYPADLINE_3) | (1<<KEYPADLINE_4);
    177a:	3b e8       	ldi	r19, 0x8B	; 139
    177c:	fc 01       	movw	r30, r24
    177e:	30 83       	st	Z, r19
	*keypad_PORT=(1<<KEYPADDATA_1) | (1<<KEYPADDATA_2) | (1<<KEYPADDATA_3) | (1<<KEYPADDATA_4);
    1780:	e0 91 5c 02 	lds	r30, 0x025C	; 0x80025c <keypad_PORT>
    1784:	f0 91 5d 02 	lds	r31, 0x025D	; 0x80025d <keypad_PORT+0x1>
    1788:	84 e7       	ldi	r24, 0x74	; 116
    178a:	80 83       	st	Z, r24
	keypad_datai.line_1=keypad_dataf.line_1=(1<<KEYPADDATA_1) | (1<<KEYPADDATA_2) | (1<<KEYPADDATA_3) | (1<<KEYPADDATA_4);
    178c:	af e5       	ldi	r26, 0x5F	; 95
    178e:	b2 e0       	ldi	r27, 0x02	; 2
    1790:	8c 93       	st	X, r24
    1792:	e3 e6       	ldi	r30, 0x63	; 99
    1794:	f2 e0       	ldi	r31, 0x02	; 2
    1796:	80 83       	st	Z, r24
	keypad_datai.line_2=keypad_dataf.line_2=(1<<KEYPADDATA_1) | (1<<KEYPADDATA_2) | (1<<KEYPADDATA_3) | (1<<KEYPADDATA_4);
    1798:	11 96       	adiw	r26, 0x01	; 1
    179a:	8c 93       	st	X, r24
    179c:	11 97       	sbiw	r26, 0x01	; 1
    179e:	81 83       	std	Z+1, r24	; 0x01
	keypad_datai.line_3=keypad_dataf.line_3=(1<<KEYPADDATA_1) | (1<<KEYPADDATA_2) | (1<<KEYPADDATA_3) | (1<<KEYPADDATA_4);
    17a0:	12 96       	adiw	r26, 0x02	; 2
    17a2:	8c 93       	st	X, r24
    17a4:	12 97       	sbiw	r26, 0x02	; 2
    17a6:	82 83       	std	Z+2, r24	; 0x02
	keypad_datai.line_4=keypad_dataf.line_4=(1<<KEYPADDATA_1) | (1<<KEYPADDATA_2) | (1<<KEYPADDATA_3) | (1<<KEYPADDATA_4);
    17a8:	13 96       	adiw	r26, 0x03	; 3
    17aa:	8c 93       	st	X, r24
    17ac:	83 83       	std	Z+3, r24	; 0x03
	KEYPADSTRINGINDEX=0;
    17ae:	10 92 67 02 	sts	0x0267, r1	; 0x800267 <KEYPADSTRINGINDEX>
	//Direccionar apontadores para PROTOTIPOS
	keypad.getkey=KEYPAD_getkey;
	keypad.read=KEYPAD_read;
	keypad.get=KEYPAD_get;
	keypad.flush=KEYPAD_flush;
	SREG=tSREG;
    17b2:	2f bf       	out	0x3f, r18	; 63
	//
	*keypad_PORT|=(1<<KEYPADLINE_1) | (1<<KEYPADLINE_2) | (1<<KEYPADLINE_3) | (1<<KEYPADLINE_4);
    17b4:	e0 91 5c 02 	lds	r30, 0x025C	; 0x80025c <keypad_PORT>
    17b8:	f0 91 5d 02 	lds	r31, 0x025D	; 0x80025d <keypad_PORT+0x1>
    17bc:	80 81       	ld	r24, Z
    17be:	8b 68       	ori	r24, 0x8B	; 139
    17c0:	80 83       	st	Z, r24
	//Going to use pull down method.
	//Inic String Vec
	return keypad;
    17c2:	2d e1       	ldi	r18, 0x1D	; 29
    17c4:	3a e0       	ldi	r19, 0x0A	; 10
    17c6:	3a 83       	std	Y+2, r19	; 0x02
    17c8:	29 83       	std	Y+1, r18	; 0x01
    17ca:	4a e4       	ldi	r20, 0x4A	; 74
    17cc:	5b e0       	ldi	r21, 0x0B	; 11
    17ce:	5c 83       	std	Y+4, r21	; 0x04
    17d0:	4b 83       	std	Y+3, r20	; 0x03
    17d2:	60 ef       	ldi	r22, 0xF0	; 240
    17d4:	79 e0       	ldi	r23, 0x09	; 9
    17d6:	7e 83       	std	Y+6, r23	; 0x06
    17d8:	6d 83       	std	Y+5, r22	; 0x05
    17da:	80 e1       	ldi	r24, 0x10	; 16
    17dc:	9a e0       	ldi	r25, 0x0A	; 10
    17de:	98 87       	std	Y+8, r25	; 0x08
    17e0:	8f 83       	std	Y+7, r24	; 0x07
    17e2:	3a 81       	ldd	r19, Y+2	; 0x02
    17e4:	5c 81       	ldd	r21, Y+4	; 0x04
    17e6:	7e 81       	ldd	r23, Y+6	; 0x06
}
    17e8:	98 85       	ldd	r25, Y+8	; 0x08
    17ea:	28 96       	adiw	r28, 0x08	; 8
    17ec:	0f b6       	in	r0, 0x3f	; 63
    17ee:	f8 94       	cli
    17f0:	de bf       	out	0x3e, r29	; 62
    17f2:	0f be       	out	0x3f, r0	; 63
    17f4:	cd bf       	out	0x3d, r28	; 61
    17f6:	df 91       	pop	r29
    17f8:	cf 91       	pop	r28
    17fa:	08 95       	ret

000017fc <LCD0_write>:
	#else
		//round up by default
		__ticks_dc = (uint32_t)(ceil(fabs(__tmp)));
	#endif

	__builtin_avr_delay_cycles(__ticks_dc);
    17fc:	e0 91 8b 02 	lds	r30, 0x028B	; 0x80028b <lcd0_PORT>
    1800:	f0 91 8c 02 	lds	r31, 0x028C	; 0x80028c <lcd0_PORT+0x1>
    1804:	90 81       	ld	r25, Z
    1806:	9d 7f       	andi	r25, 0xFD	; 253
    1808:	90 83       	st	Z, r25
    180a:	67 2b       	or	r22, r23
    180c:	41 f0       	breq	.+16     	; 0x181e <LCD0_write+0x22>
    180e:	e0 91 8b 02 	lds	r30, 0x028B	; 0x80028b <lcd0_PORT>
    1812:	f0 91 8c 02 	lds	r31, 0x028C	; 0x80028c <lcd0_PORT+0x1>
    1816:	90 81       	ld	r25, Z
    1818:	91 60       	ori	r25, 0x01	; 1
    181a:	90 83       	st	Z, r25
    181c:	07 c0       	rjmp	.+14     	; 0x182c <LCD0_write+0x30>
    181e:	e0 91 8b 02 	lds	r30, 0x028B	; 0x80028b <lcd0_PORT>
    1822:	f0 91 8c 02 	lds	r31, 0x028C	; 0x80028c <lcd0_PORT+0x1>
    1826:	90 81       	ld	r25, Z
    1828:	9e 7f       	andi	r25, 0xFE	; 254
    182a:	90 83       	st	Z, r25
    182c:	e0 91 88 02 	lds	r30, 0x0288	; 0x800288 <lcd0_DDR>
    1830:	f0 91 89 02 	lds	r31, 0x0289	; 0x800289 <lcd0_DDR+0x1>
    1834:	90 81       	ld	r25, Z
    1836:	90 6f       	ori	r25, 0xF0	; 240
    1838:	90 83       	st	Z, r25
    183a:	e0 91 8b 02 	lds	r30, 0x028B	; 0x80028b <lcd0_PORT>
    183e:	f0 91 8c 02 	lds	r31, 0x028C	; 0x80028c <lcd0_PORT+0x1>
    1842:	90 81       	ld	r25, Z
    1844:	94 60       	ori	r25, 0x04	; 4
    1846:	90 83       	st	Z, r25
    1848:	88 23       	and	r24, r24
    184a:	44 f4       	brge	.+16     	; 0x185c <LCD0_write+0x60>
    184c:	e0 91 8b 02 	lds	r30, 0x028B	; 0x80028b <lcd0_PORT>
    1850:	f0 91 8c 02 	lds	r31, 0x028C	; 0x80028c <lcd0_PORT+0x1>
    1854:	90 81       	ld	r25, Z
    1856:	90 68       	ori	r25, 0x80	; 128
    1858:	90 83       	st	Z, r25
    185a:	07 c0       	rjmp	.+14     	; 0x186a <LCD0_write+0x6e>
    185c:	e0 91 8b 02 	lds	r30, 0x028B	; 0x80028b <lcd0_PORT>
    1860:	f0 91 8c 02 	lds	r31, 0x028C	; 0x80028c <lcd0_PORT+0x1>
    1864:	90 81       	ld	r25, Z
    1866:	9f 77       	andi	r25, 0x7F	; 127
    1868:	90 83       	st	Z, r25
    186a:	86 ff       	sbrs	r24, 6
    186c:	08 c0       	rjmp	.+16     	; 0x187e <LCD0_write+0x82>
    186e:	e0 91 8b 02 	lds	r30, 0x028B	; 0x80028b <lcd0_PORT>
    1872:	f0 91 8c 02 	lds	r31, 0x028C	; 0x80028c <lcd0_PORT+0x1>
    1876:	90 81       	ld	r25, Z
    1878:	90 64       	ori	r25, 0x40	; 64
    187a:	90 83       	st	Z, r25
    187c:	07 c0       	rjmp	.+14     	; 0x188c <LCD0_write+0x90>
    187e:	e0 91 8b 02 	lds	r30, 0x028B	; 0x80028b <lcd0_PORT>
    1882:	f0 91 8c 02 	lds	r31, 0x028C	; 0x80028c <lcd0_PORT+0x1>
    1886:	90 81       	ld	r25, Z
    1888:	9f 7b       	andi	r25, 0xBF	; 191
    188a:	90 83       	st	Z, r25
    188c:	85 ff       	sbrs	r24, 5
    188e:	08 c0       	rjmp	.+16     	; 0x18a0 <LCD0_write+0xa4>
    1890:	e0 91 8b 02 	lds	r30, 0x028B	; 0x80028b <lcd0_PORT>
    1894:	f0 91 8c 02 	lds	r31, 0x028C	; 0x80028c <lcd0_PORT+0x1>
    1898:	90 81       	ld	r25, Z
    189a:	90 62       	ori	r25, 0x20	; 32
    189c:	90 83       	st	Z, r25
    189e:	07 c0       	rjmp	.+14     	; 0x18ae <LCD0_write+0xb2>
    18a0:	e0 91 8b 02 	lds	r30, 0x028B	; 0x80028b <lcd0_PORT>
    18a4:	f0 91 8c 02 	lds	r31, 0x028C	; 0x80028c <lcd0_PORT+0x1>
    18a8:	90 81       	ld	r25, Z
    18aa:	9f 7d       	andi	r25, 0xDF	; 223
    18ac:	90 83       	st	Z, r25
    18ae:	84 ff       	sbrs	r24, 4
    18b0:	08 c0       	rjmp	.+16     	; 0x18c2 <LCD0_write+0xc6>
    18b2:	e0 91 8b 02 	lds	r30, 0x028B	; 0x80028b <lcd0_PORT>
    18b6:	f0 91 8c 02 	lds	r31, 0x028C	; 0x80028c <lcd0_PORT+0x1>
    18ba:	90 81       	ld	r25, Z
    18bc:	90 61       	ori	r25, 0x10	; 16
    18be:	90 83       	st	Z, r25
    18c0:	07 c0       	rjmp	.+14     	; 0x18d0 <LCD0_write+0xd4>
    18c2:	e0 91 8b 02 	lds	r30, 0x028B	; 0x80028b <lcd0_PORT>
    18c6:	f0 91 8c 02 	lds	r31, 0x028C	; 0x80028c <lcd0_PORT+0x1>
    18ca:	90 81       	ld	r25, Z
    18cc:	9f 7e       	andi	r25, 0xEF	; 239
    18ce:	90 83       	st	Z, r25
    18d0:	e0 91 8b 02 	lds	r30, 0x028B	; 0x80028b <lcd0_PORT>
    18d4:	f0 91 8c 02 	lds	r31, 0x028C	; 0x80028c <lcd0_PORT+0x1>
    18d8:	90 81       	ld	r25, Z
    18da:	9b 7f       	andi	r25, 0xFB	; 251
    18dc:	90 83       	st	Z, r25
    18de:	e0 91 8b 02 	lds	r30, 0x028B	; 0x80028b <lcd0_PORT>
    18e2:	f0 91 8c 02 	lds	r31, 0x028C	; 0x80028c <lcd0_PORT+0x1>
    18e6:	90 81       	ld	r25, Z
    18e8:	94 60       	ori	r25, 0x04	; 4
    18ea:	90 83       	st	Z, r25
    18ec:	83 ff       	sbrs	r24, 3
    18ee:	08 c0       	rjmp	.+16     	; 0x1900 <LCD0_write+0x104>
    18f0:	e0 91 8b 02 	lds	r30, 0x028B	; 0x80028b <lcd0_PORT>
    18f4:	f0 91 8c 02 	lds	r31, 0x028C	; 0x80028c <lcd0_PORT+0x1>
    18f8:	90 81       	ld	r25, Z
    18fa:	90 68       	ori	r25, 0x80	; 128
    18fc:	90 83       	st	Z, r25
    18fe:	07 c0       	rjmp	.+14     	; 0x190e <LCD0_write+0x112>
    1900:	e0 91 8b 02 	lds	r30, 0x028B	; 0x80028b <lcd0_PORT>
    1904:	f0 91 8c 02 	lds	r31, 0x028C	; 0x80028c <lcd0_PORT+0x1>
    1908:	90 81       	ld	r25, Z
    190a:	9f 77       	andi	r25, 0x7F	; 127
    190c:	90 83       	st	Z, r25
    190e:	82 ff       	sbrs	r24, 2
    1910:	08 c0       	rjmp	.+16     	; 0x1922 <LCD0_write+0x126>
    1912:	e0 91 8b 02 	lds	r30, 0x028B	; 0x80028b <lcd0_PORT>
    1916:	f0 91 8c 02 	lds	r31, 0x028C	; 0x80028c <lcd0_PORT+0x1>
    191a:	90 81       	ld	r25, Z
    191c:	90 64       	ori	r25, 0x40	; 64
    191e:	90 83       	st	Z, r25
    1920:	07 c0       	rjmp	.+14     	; 0x1930 <LCD0_write+0x134>
    1922:	e0 91 8b 02 	lds	r30, 0x028B	; 0x80028b <lcd0_PORT>
    1926:	f0 91 8c 02 	lds	r31, 0x028C	; 0x80028c <lcd0_PORT+0x1>
    192a:	90 81       	ld	r25, Z
    192c:	9f 7b       	andi	r25, 0xBF	; 191
    192e:	90 83       	st	Z, r25
    1930:	81 ff       	sbrs	r24, 1
    1932:	08 c0       	rjmp	.+16     	; 0x1944 <LCD0_write+0x148>
    1934:	e0 91 8b 02 	lds	r30, 0x028B	; 0x80028b <lcd0_PORT>
    1938:	f0 91 8c 02 	lds	r31, 0x028C	; 0x80028c <lcd0_PORT+0x1>
    193c:	90 81       	ld	r25, Z
    193e:	90 62       	ori	r25, 0x20	; 32
    1940:	90 83       	st	Z, r25
    1942:	07 c0       	rjmp	.+14     	; 0x1952 <LCD0_write+0x156>
    1944:	e0 91 8b 02 	lds	r30, 0x028B	; 0x80028b <lcd0_PORT>
    1948:	f0 91 8c 02 	lds	r31, 0x028C	; 0x80028c <lcd0_PORT+0x1>
    194c:	90 81       	ld	r25, Z
    194e:	9f 7d       	andi	r25, 0xDF	; 223
    1950:	90 83       	st	Z, r25
    1952:	80 ff       	sbrs	r24, 0
    1954:	08 c0       	rjmp	.+16     	; 0x1966 <LCD0_write+0x16a>
    1956:	e0 91 8b 02 	lds	r30, 0x028B	; 0x80028b <lcd0_PORT>
    195a:	f0 91 8c 02 	lds	r31, 0x028C	; 0x80028c <lcd0_PORT+0x1>
    195e:	80 81       	ld	r24, Z
    1960:	80 61       	ori	r24, 0x10	; 16
    1962:	80 83       	st	Z, r24
    1964:	07 c0       	rjmp	.+14     	; 0x1974 <LCD0_write+0x178>
    1966:	e0 91 8b 02 	lds	r30, 0x028B	; 0x80028b <lcd0_PORT>
    196a:	f0 91 8c 02 	lds	r31, 0x028C	; 0x80028c <lcd0_PORT+0x1>
    196e:	80 81       	ld	r24, Z
    1970:	8f 7e       	andi	r24, 0xEF	; 239
    1972:	80 83       	st	Z, r24
    1974:	e0 91 8b 02 	lds	r30, 0x028B	; 0x80028b <lcd0_PORT>
    1978:	f0 91 8c 02 	lds	r31, 0x028C	; 0x80028c <lcd0_PORT+0x1>
    197c:	80 81       	ld	r24, Z
    197e:	8b 7f       	andi	r24, 0xFB	; 251
    1980:	80 83       	st	Z, r24
    1982:	08 95       	ret

00001984 <LCD0_read>:
    1984:	e0 91 88 02 	lds	r30, 0x0288	; 0x800288 <lcd0_DDR>
    1988:	f0 91 89 02 	lds	r31, 0x0289	; 0x800289 <lcd0_DDR+0x1>
    198c:	20 81       	ld	r18, Z
    198e:	2f 70       	andi	r18, 0x0F	; 15
    1990:	20 83       	st	Z, r18
    1992:	e0 91 8b 02 	lds	r30, 0x028B	; 0x80028b <lcd0_PORT>
    1996:	f0 91 8c 02 	lds	r31, 0x028C	; 0x80028c <lcd0_PORT+0x1>
    199a:	20 81       	ld	r18, Z
    199c:	20 6f       	ori	r18, 0xF0	; 240
    199e:	20 83       	st	Z, r18
    19a0:	e0 91 8b 02 	lds	r30, 0x028B	; 0x80028b <lcd0_PORT>
    19a4:	f0 91 8c 02 	lds	r31, 0x028C	; 0x80028c <lcd0_PORT+0x1>
    19a8:	20 81       	ld	r18, Z
    19aa:	22 60       	ori	r18, 0x02	; 2
    19ac:	20 83       	st	Z, r18
    19ae:	89 2b       	or	r24, r25
    19b0:	41 f0       	breq	.+16     	; 0x19c2 <LCD0_read+0x3e>
    19b2:	e0 91 8b 02 	lds	r30, 0x028B	; 0x80028b <lcd0_PORT>
    19b6:	f0 91 8c 02 	lds	r31, 0x028C	; 0x80028c <lcd0_PORT+0x1>
    19ba:	80 81       	ld	r24, Z
    19bc:	81 60       	ori	r24, 0x01	; 1
    19be:	80 83       	st	Z, r24
    19c0:	07 c0       	rjmp	.+14     	; 0x19d0 <LCD0_read+0x4c>
    19c2:	e0 91 8b 02 	lds	r30, 0x028B	; 0x80028b <lcd0_PORT>
    19c6:	f0 91 8c 02 	lds	r31, 0x028C	; 0x80028c <lcd0_PORT+0x1>
    19ca:	80 81       	ld	r24, Z
    19cc:	8e 7f       	andi	r24, 0xFE	; 254
    19ce:	80 83       	st	Z, r24
    19d0:	e0 91 8b 02 	lds	r30, 0x028B	; 0x80028b <lcd0_PORT>
    19d4:	f0 91 8c 02 	lds	r31, 0x028C	; 0x80028c <lcd0_PORT+0x1>
    19d8:	80 81       	ld	r24, Z
    19da:	84 60       	ori	r24, 0x04	; 4
    19dc:	80 83       	st	Z, r24
    19de:	e0 91 81 02 	lds	r30, 0x0281	; 0x800281 <lcd0_PIN>
    19e2:	f0 91 82 02 	lds	r31, 0x0282	; 0x800282 <lcd0_PIN+0x1>
    19e6:	80 81       	ld	r24, Z
    19e8:	88 23       	and	r24, r24
    19ea:	14 f0       	brlt	.+4      	; 0x19f0 <LCD0_read+0x6c>
    19ec:	80 e0       	ldi	r24, 0x00	; 0
    19ee:	01 c0       	rjmp	.+2      	; 0x19f2 <LCD0_read+0x6e>
    19f0:	80 e8       	ldi	r24, 0x80	; 128
    19f2:	90 81       	ld	r25, Z
    19f4:	96 ff       	sbrs	r25, 6
    19f6:	02 c0       	rjmp	.+4      	; 0x19fc <LCD0_read+0x78>
    19f8:	80 64       	ori	r24, 0x40	; 64
    19fa:	01 c0       	rjmp	.+2      	; 0x19fe <LCD0_read+0x7a>
    19fc:	8f 7b       	andi	r24, 0xBF	; 191
    19fe:	90 81       	ld	r25, Z
    1a00:	95 ff       	sbrs	r25, 5
    1a02:	02 c0       	rjmp	.+4      	; 0x1a08 <LCD0_read+0x84>
    1a04:	80 62       	ori	r24, 0x20	; 32
    1a06:	01 c0       	rjmp	.+2      	; 0x1a0a <LCD0_read+0x86>
    1a08:	8f 7d       	andi	r24, 0xDF	; 223
    1a0a:	90 81       	ld	r25, Z
    1a0c:	94 ff       	sbrs	r25, 4
    1a0e:	02 c0       	rjmp	.+4      	; 0x1a14 <LCD0_read+0x90>
    1a10:	80 61       	ori	r24, 0x10	; 16
    1a12:	01 c0       	rjmp	.+2      	; 0x1a16 <LCD0_read+0x92>
    1a14:	8f 7e       	andi	r24, 0xEF	; 239
    1a16:	e0 91 8b 02 	lds	r30, 0x028B	; 0x80028b <lcd0_PORT>
    1a1a:	f0 91 8c 02 	lds	r31, 0x028C	; 0x80028c <lcd0_PORT+0x1>
    1a1e:	90 81       	ld	r25, Z
    1a20:	9b 7f       	andi	r25, 0xFB	; 251
    1a22:	90 83       	st	Z, r25
    1a24:	e0 91 8b 02 	lds	r30, 0x028B	; 0x80028b <lcd0_PORT>
    1a28:	f0 91 8c 02 	lds	r31, 0x028C	; 0x80028c <lcd0_PORT+0x1>
    1a2c:	90 81       	ld	r25, Z
    1a2e:	94 60       	ori	r25, 0x04	; 4
    1a30:	90 83       	st	Z, r25
    1a32:	e0 91 81 02 	lds	r30, 0x0281	; 0x800281 <lcd0_PIN>
    1a36:	f0 91 82 02 	lds	r31, 0x0282	; 0x800282 <lcd0_PIN+0x1>
    1a3a:	90 81       	ld	r25, Z
    1a3c:	99 23       	and	r25, r25
    1a3e:	14 f4       	brge	.+4      	; 0x1a44 <LCD0_read+0xc0>
    1a40:	88 60       	ori	r24, 0x08	; 8
    1a42:	01 c0       	rjmp	.+2      	; 0x1a46 <LCD0_read+0xc2>
    1a44:	87 7f       	andi	r24, 0xF7	; 247
    1a46:	90 81       	ld	r25, Z
    1a48:	96 ff       	sbrs	r25, 6
    1a4a:	02 c0       	rjmp	.+4      	; 0x1a50 <LCD0_read+0xcc>
    1a4c:	84 60       	ori	r24, 0x04	; 4
    1a4e:	01 c0       	rjmp	.+2      	; 0x1a52 <LCD0_read+0xce>
    1a50:	8b 7f       	andi	r24, 0xFB	; 251
    1a52:	90 81       	ld	r25, Z
    1a54:	95 ff       	sbrs	r25, 5
    1a56:	02 c0       	rjmp	.+4      	; 0x1a5c <LCD0_read+0xd8>
    1a58:	82 60       	ori	r24, 0x02	; 2
    1a5a:	01 c0       	rjmp	.+2      	; 0x1a5e <LCD0_read+0xda>
    1a5c:	8d 7f       	andi	r24, 0xFD	; 253
    1a5e:	90 81       	ld	r25, Z
    1a60:	94 ff       	sbrs	r25, 4
    1a62:	02 c0       	rjmp	.+4      	; 0x1a68 <LCD0_read+0xe4>
    1a64:	81 60       	ori	r24, 0x01	; 1
    1a66:	01 c0       	rjmp	.+2      	; 0x1a6a <LCD0_read+0xe6>
    1a68:	8e 7f       	andi	r24, 0xFE	; 254
    1a6a:	e0 91 8b 02 	lds	r30, 0x028B	; 0x80028b <lcd0_PORT>
    1a6e:	f0 91 8c 02 	lds	r31, 0x028C	; 0x80028c <lcd0_PORT+0x1>
    1a72:	90 81       	ld	r25, Z
    1a74:	9b 7f       	andi	r25, 0xFB	; 251
    1a76:	90 83       	st	Z, r25
    1a78:	08 95       	ret

00001a7a <LCD0_BF>:
    1a7a:	cf 93       	push	r28
    1a7c:	df 93       	push	r29
    1a7e:	80 e0       	ldi	r24, 0x00	; 0
    1a80:	90 e0       	ldi	r25, 0x00	; 0
    1a82:	80 df       	rcall	.-256    	; 0x1984 <LCD0_read>
    1a84:	cb e0       	ldi	r28, 0x0B	; 11
    1a86:	d0 e0       	ldi	r29, 0x00	; 0
    1a88:	05 c0       	rjmp	.+10     	; 0x1a94 <LCD0_BF+0x1a>
    1a8a:	80 e0       	ldi	r24, 0x00	; 0
    1a8c:	90 e0       	ldi	r25, 0x00	; 0
    1a8e:	7a df       	rcall	.-268    	; 0x1984 <LCD0_read>
    1a90:	21 97       	sbiw	r28, 0x01	; 1
    1a92:	11 f0       	breq	.+4      	; 0x1a98 <LCD0_BF+0x1e>
    1a94:	88 23       	and	r24, r24
    1a96:	cc f3       	brlt	.-14     	; 0x1a8a <LCD0_BF+0x10>
    1a98:	df 91       	pop	r29
    1a9a:	cf 91       	pop	r28
    1a9c:	08 95       	ret

00001a9e <LCD0_putch>:
    1a9e:	61 e0       	ldi	r22, 0x01	; 1
    1aa0:	70 e0       	ldi	r23, 0x00	; 0
    1aa2:	ac de       	rcall	.-680    	; 0x17fc <LCD0_write>
    1aa4:	ea cf       	rjmp	.-44     	; 0x1a7a <LCD0_BF>
    1aa6:	08 95       	ret

00001aa8 <LCD0_getch>:
    1aa8:	cf 93       	push	r28
    1aaa:	81 e0       	ldi	r24, 0x01	; 1
    1aac:	90 e0       	ldi	r25, 0x00	; 0
    1aae:	6a df       	rcall	.-300    	; 0x1984 <LCD0_read>
    1ab0:	c8 2f       	mov	r28, r24
    1ab2:	e3 df       	rcall	.-58     	; 0x1a7a <LCD0_BF>
    1ab4:	8c 2f       	mov	r24, r28
    1ab6:	cf 91       	pop	r28
    1ab8:	08 95       	ret

00001aba <LCD0_string>:
    1aba:	cf 93       	push	r28
    1abc:	df 93       	push	r29
    1abe:	ec 01       	movw	r28, r24
    1ac0:	88 81       	ld	r24, Y
    1ac2:	88 23       	and	r24, r24
    1ac4:	41 f0       	breq	.+16     	; 0x1ad6 <LCD0_string+0x1c>
    1ac6:	21 96       	adiw	r28, 0x01	; 1
    1ac8:	61 e0       	ldi	r22, 0x01	; 1
    1aca:	70 e0       	ldi	r23, 0x00	; 0
    1acc:	97 de       	rcall	.-722    	; 0x17fc <LCD0_write>
    1ace:	d5 df       	rcall	.-86     	; 0x1a7a <LCD0_BF>
    1ad0:	89 91       	ld	r24, Y+
    1ad2:	81 11       	cpse	r24, r1
    1ad4:	f9 cf       	rjmp	.-14     	; 0x1ac8 <LCD0_string+0xe>
    1ad6:	df 91       	pop	r29
    1ad8:	cf 91       	pop	r28
    1ada:	08 95       	ret

00001adc <LCD0_string_size>:
    1adc:	0f 93       	push	r16
    1ade:	1f 93       	push	r17
    1ae0:	cf 93       	push	r28
    1ae2:	df 93       	push	r29
    1ae4:	fc 01       	movw	r30, r24
    1ae6:	d6 2f       	mov	r29, r22
    1ae8:	80 81       	ld	r24, Z
    1aea:	88 23       	and	r24, r24
    1aec:	51 f0       	breq	.+20     	; 0x1b02 <LCD0_string_size+0x26>
    1aee:	8f 01       	movw	r16, r30
    1af0:	0f 5f       	subi	r16, 0xFF	; 255
    1af2:	1f 4f       	sbci	r17, 0xFF	; 255
    1af4:	61 11       	cpse	r22, r1
    1af6:	09 c0       	rjmp	.+18     	; 0x1b0a <LCD0_string_size+0x2e>
    1af8:	1b c0       	rjmp	.+54     	; 0x1b30 <LCD0_string_size+0x54>
    1afa:	cf 5f       	subi	r28, 0xFF	; 255
    1afc:	dc 17       	cp	r29, r28
    1afe:	30 f4       	brcc	.+12     	; 0x1b0c <LCD0_string_size+0x30>
    1b00:	01 c0       	rjmp	.+2      	; 0x1b04 <LCD0_string_size+0x28>
    1b02:	c0 e0       	ldi	r28, 0x00	; 0
    1b04:	cd 17       	cp	r28, r29
    1b06:	60 f0       	brcs	.+24     	; 0x1b20 <LCD0_string_size+0x44>
    1b08:	13 c0       	rjmp	.+38     	; 0x1b30 <LCD0_string_size+0x54>
    1b0a:	c1 e0       	ldi	r28, 0x01	; 1
    1b0c:	61 e0       	ldi	r22, 0x01	; 1
    1b0e:	70 e0       	ldi	r23, 0x00	; 0
    1b10:	75 de       	rcall	.-790    	; 0x17fc <LCD0_write>
    1b12:	b3 df       	rcall	.-154    	; 0x1a7a <LCD0_BF>
    1b14:	f8 01       	movw	r30, r16
    1b16:	81 91       	ld	r24, Z+
    1b18:	8f 01       	movw	r16, r30
    1b1a:	81 11       	cpse	r24, r1
    1b1c:	ee cf       	rjmp	.-36     	; 0x1afa <LCD0_string_size+0x1e>
    1b1e:	f2 cf       	rjmp	.-28     	; 0x1b04 <LCD0_string_size+0x28>
    1b20:	cf 5f       	subi	r28, 0xFF	; 255
    1b22:	61 e0       	ldi	r22, 0x01	; 1
    1b24:	70 e0       	ldi	r23, 0x00	; 0
    1b26:	80 e2       	ldi	r24, 0x20	; 32
    1b28:	69 de       	rcall	.-814    	; 0x17fc <LCD0_write>
    1b2a:	a7 df       	rcall	.-178    	; 0x1a7a <LCD0_BF>
    1b2c:	cd 17       	cp	r28, r29
    1b2e:	c0 f3       	brcs	.-16     	; 0x1b20 <LCD0_string_size+0x44>
    1b30:	df 91       	pop	r29
    1b32:	cf 91       	pop	r28
    1b34:	1f 91       	pop	r17
    1b36:	0f 91       	pop	r16
    1b38:	08 95       	ret

00001b3a <LCD0_hspace>:
    1b3a:	cf 93       	push	r28
    1b3c:	c8 2f       	mov	r28, r24
    1b3e:	88 23       	and	r24, r24
    1b40:	39 f0       	breq	.+14     	; 0x1b50 <LCD0_hspace+0x16>
    1b42:	61 e0       	ldi	r22, 0x01	; 1
    1b44:	70 e0       	ldi	r23, 0x00	; 0
    1b46:	80 e2       	ldi	r24, 0x20	; 32
    1b48:	59 de       	rcall	.-846    	; 0x17fc <LCD0_write>
    1b4a:	97 df       	rcall	.-210    	; 0x1a7a <LCD0_BF>
    1b4c:	c1 50       	subi	r28, 0x01	; 1
    1b4e:	c9 f7       	brne	.-14     	; 0x1b42 <LCD0_hspace+0x8>
    1b50:	cf 91       	pop	r28
    1b52:	08 95       	ret

00001b54 <LCD0_gotoxy>:
    1b54:	26 2f       	mov	r18, r22
    1b56:	81 30       	cpi	r24, 0x01	; 1
    1b58:	91 05       	cpc	r25, r1
    1b5a:	71 f0       	breq	.+28     	; 0x1b78 <LCD0_gotoxy+0x24>
    1b5c:	30 f0       	brcs	.+12     	; 0x1b6a <LCD0_gotoxy+0x16>
    1b5e:	82 30       	cpi	r24, 0x02	; 2
    1b60:	91 05       	cpc	r25, r1
    1b62:	89 f0       	breq	.+34     	; 0x1b86 <LCD0_gotoxy+0x32>
    1b64:	03 97       	sbiw	r24, 0x03	; 3
    1b66:	b1 f0       	breq	.+44     	; 0x1b94 <LCD0_gotoxy+0x40>
    1b68:	08 95       	ret
    1b6a:	60 e0       	ldi	r22, 0x00	; 0
    1b6c:	70 e0       	ldi	r23, 0x00	; 0
    1b6e:	80 e8       	ldi	r24, 0x80	; 128
    1b70:	82 0f       	add	r24, r18
    1b72:	44 de       	rcall	.-888    	; 0x17fc <LCD0_write>
    1b74:	82 cf       	rjmp	.-252    	; 0x1a7a <LCD0_BF>
    1b76:	08 95       	ret
    1b78:	60 e0       	ldi	r22, 0x00	; 0
    1b7a:	70 e0       	ldi	r23, 0x00	; 0
    1b7c:	80 ec       	ldi	r24, 0xC0	; 192
    1b7e:	82 0f       	add	r24, r18
    1b80:	3d de       	rcall	.-902    	; 0x17fc <LCD0_write>
    1b82:	7b cf       	rjmp	.-266    	; 0x1a7a <LCD0_BF>
    1b84:	08 95       	ret
    1b86:	60 e0       	ldi	r22, 0x00	; 0
    1b88:	70 e0       	ldi	r23, 0x00	; 0
    1b8a:	84 e9       	ldi	r24, 0x94	; 148
    1b8c:	82 0f       	add	r24, r18
    1b8e:	36 de       	rcall	.-916    	; 0x17fc <LCD0_write>
    1b90:	74 cf       	rjmp	.-280    	; 0x1a7a <LCD0_BF>
    1b92:	08 95       	ret
    1b94:	60 e0       	ldi	r22, 0x00	; 0
    1b96:	70 e0       	ldi	r23, 0x00	; 0
    1b98:	84 ed       	ldi	r24, 0xD4	; 212
    1b9a:	82 0f       	add	r24, r18
    1b9c:	2f de       	rcall	.-930    	; 0x17fc <LCD0_write>
    1b9e:	6d cf       	rjmp	.-294    	; 0x1a7a <LCD0_BF>
    1ba0:	08 95       	ret

00001ba2 <LCD0_clear>:
    1ba2:	60 e0       	ldi	r22, 0x00	; 0
    1ba4:	70 e0       	ldi	r23, 0x00	; 0
    1ba6:	81 e0       	ldi	r24, 0x01	; 1
    1ba8:	29 de       	rcall	.-942    	; 0x17fc <LCD0_write>
    1baa:	87 ee       	ldi	r24, 0xE7	; 231
    1bac:	97 e1       	ldi	r25, 0x17	; 23
    1bae:	01 97       	sbiw	r24, 0x01	; 1
    1bb0:	f1 f7       	brne	.-4      	; 0x1bae <LCD0_clear+0xc>
    1bb2:	00 c0       	rjmp	.+0      	; 0x1bb4 <LCD0_clear+0x12>
    1bb4:	00 00       	nop
    1bb6:	08 95       	ret

00001bb8 <LCD0_inic>:
	return lcd0;
}
void LCD0_inic(void)
{
	//LCD INIC
	*lcd0_DDR=(1<<RS)|(1<<RW)|(1<<EN)|(0<<NC);
    1bb8:	e0 91 88 02 	lds	r30, 0x0288	; 0x800288 <lcd0_DDR>
    1bbc:	f0 91 89 02 	lds	r31, 0x0289	; 0x800289 <lcd0_DDR+0x1>
    1bc0:	87 e0       	ldi	r24, 0x07	; 7
    1bc2:	80 83       	st	Z, r24
	*lcd0_PORT=(1<<NC);
    1bc4:	e0 91 8b 02 	lds	r30, 0x028B	; 0x80028b <lcd0_PORT>
    1bc8:	f0 91 8c 02 	lds	r31, 0x028C	; 0x80028c <lcd0_PORT+0x1>
    1bcc:	88 e0       	ldi	r24, 0x08	; 8
    1bce:	80 83       	st	Z, r24
    1bd0:	2f ef       	ldi	r18, 0xFF	; 255
    1bd2:	83 ef       	ldi	r24, 0xF3	; 243
    1bd4:	91 e0       	ldi	r25, 0x01	; 1
    1bd6:	21 50       	subi	r18, 0x01	; 1
    1bd8:	80 40       	sbci	r24, 0x00	; 0
    1bda:	90 40       	sbci	r25, 0x00	; 0
    1bdc:	e1 f7       	brne	.-8      	; 0x1bd6 <LCD0_inic+0x1e>
    1bde:	00 c0       	rjmp	.+0      	; 0x1be0 <LCD0_inic+0x28>
    1be0:	00 00       	nop
	/***INICIALIZACAO LCD**datasheet*/
	_delay_ms(40);
	LCD0_write(0x33,INST); //function set
    1be2:	60 e0       	ldi	r22, 0x00	; 0
    1be4:	70 e0       	ldi	r23, 0x00	; 0
    1be6:	83 e3       	ldi	r24, 0x33	; 51
    1be8:	09 de       	rcall	.-1006   	; 0x17fc <LCD0_write>
	#else
		//round up by default
		__ticks_dc = (uint32_t)(ceil(fabs(__tmp)));
	#endif

	__builtin_avr_delay_cycles(__ticks_dc);
    1bea:	20 ed       	ldi	r18, 0xD0	; 208
    1bec:	2a 95       	dec	r18
    1bee:	f1 f7       	brne	.-4      	; 0x1bec <LCD0_inic+0x34>
	_delay_us(39);
	LCD0_write(0x33,INST); //function set
    1bf0:	60 e0       	ldi	r22, 0x00	; 0
    1bf2:	70 e0       	ldi	r23, 0x00	; 0
    1bf4:	83 e3       	ldi	r24, 0x33	; 51
    1bf6:	02 de       	rcall	.-1020   	; 0x17fc <LCD0_write>
    1bf8:	80 ed       	ldi	r24, 0xD0	; 208
    1bfa:	8a 95       	dec	r24
    1bfc:	f1 f7       	brne	.-4      	; 0x1bfa <LCD0_inic+0x42>
	_delay_us(39);
	LCD0_write(0x2B,INST); //function set
    1bfe:	60 e0       	ldi	r22, 0x00	; 0
    1c00:	70 e0       	ldi	r23, 0x00	; 0
    1c02:	8b e2       	ldi	r24, 0x2B	; 43
    1c04:	fb dd       	rcall	.-1034   	; 0x17fc <LCD0_write>
    1c06:	95 ec       	ldi	r25, 0xC5	; 197
    1c08:	9a 95       	dec	r25
    1c0a:	f1 f7       	brne	.-4      	; 0x1c08 <LCD0_inic+0x50>
    1c0c:	00 00       	nop
	_delay_us(37);
	LCD0_write(0x0C,INST);// display on/off control
    1c0e:	60 e0       	ldi	r22, 0x00	; 0
    1c10:	70 e0       	ldi	r23, 0x00	; 0
    1c12:	8c e0       	ldi	r24, 0x0C	; 12
    1c14:	f3 dd       	rcall	.-1050   	; 0x17fc <LCD0_write>
    1c16:	25 ec       	ldi	r18, 0xC5	; 197
    1c18:	2a 95       	dec	r18
    1c1a:	f1 f7       	brne	.-4      	; 0x1c18 <LCD0_inic+0x60>
	_delay_us(37);
	LCD0_write(0x01,INST);// clear display
    1c1c:	00 00       	nop
    1c1e:	60 e0       	ldi	r22, 0x00	; 0
    1c20:	70 e0       	ldi	r23, 0x00	; 0
    1c22:	81 e0       	ldi	r24, 0x01	; 1
    1c24:	eb dd       	rcall	.-1066   	; 0x17fc <LCD0_write>
	#else
		//round up by default
		__ticks_dc = (uint32_t)(ceil(fabs(__tmp)));
	#endif

	__builtin_avr_delay_cycles(__ticks_dc);
    1c26:	87 ee       	ldi	r24, 0xE7	; 231
    1c28:	97 e1       	ldi	r25, 0x17	; 23
    1c2a:	01 97       	sbiw	r24, 0x01	; 1
    1c2c:	f1 f7       	brne	.-4      	; 0x1c2a <LCD0_inic+0x72>
    1c2e:	00 c0       	rjmp	.+0      	; 0x1c30 <LCD0_inic+0x78>
	_delay_ms(1.53);
	LCD0_write(0x06,INST);// entry mode set (crazy settings)
    1c30:	00 00       	nop
    1c32:	60 e0       	ldi	r22, 0x00	; 0
    1c34:	70 e0       	ldi	r23, 0x00	; 0
    1c36:	86 e0       	ldi	r24, 0x06	; 6
    1c38:	e1 dd       	rcall	.-1086   	; 0x17fc <LCD0_write>
	#else
		//round up by default
		__ticks_dc = (uint32_t)(ceil(fabs(__tmp)));
	#endif

	__builtin_avr_delay_cycles(__ticks_dc);
    1c3a:	95 ec       	ldi	r25, 0xC5	; 197
    1c3c:	9a 95       	dec	r25
    1c3e:	f1 f7       	brne	.-4      	; 0x1c3c <LCD0_inic+0x84>
    1c40:	00 00       	nop
    1c42:	08 95       	ret

00001c44 <LCD0enable>:
unsigned int LCD_ticks(unsigned int num);
/*
** procedure and function
*/
LCD0 LCD0enable(volatile uint8_t *ddr, volatile uint8_t *pin, volatile uint8_t *port)
{
    1c44:	1f 93       	push	r17
    1c46:	cf 93       	push	r28
    1c48:	df 93       	push	r29
    1c4a:	ec 01       	movw	r28, r24
	//LOCAL VARIABLES
	uint8_t tSREG;
	tSREG=SREG;
    1c4c:	1f b7       	in	r17, 0x3f	; 63
	SREG&=~(1<<GLOBAL_INTERRUPT_ENABLE);
    1c4e:	8f b7       	in	r24, 0x3f	; 63
    1c50:	8f 77       	andi	r24, 0x7F	; 127
    1c52:	8f bf       	out	0x3f, r24	; 63
	//ALLOCAO MEMORIA PARA Estrutura
	LCD0 lcd0;
	//import parametros
	lcd0_DDR=ddr;
    1c54:	70 93 89 02 	sts	0x0289, r23	; 0x800289 <lcd0_DDR+0x1>
    1c58:	60 93 88 02 	sts	0x0288, r22	; 0x800288 <lcd0_DDR>
	lcd0_PIN=pin;
    1c5c:	50 93 82 02 	sts	0x0282, r21	; 0x800282 <lcd0_PIN+0x1>
    1c60:	40 93 81 02 	sts	0x0281, r20	; 0x800281 <lcd0_PIN>
	lcd0_PORT=port;
    1c64:	30 93 8c 02 	sts	0x028C, r19	; 0x80028c <lcd0_PORT+0x1>
    1c68:	20 93 8b 02 	sts	0x028B, r18	; 0x80028b <lcd0_PORT>
	//inic variables
	*lcd0_DDR=0x00;
    1c6c:	fb 01       	movw	r30, r22
    1c6e:	10 82       	st	Z, r1
	*lcd0_PORT=0xFF;
    1c70:	e0 91 8b 02 	lds	r30, 0x028B	; 0x80028b <lcd0_PORT>
    1c74:	f0 91 8c 02 	lds	r31, 0x028C	; 0x80028c <lcd0_PORT+0x1>
    1c78:	8f ef       	ldi	r24, 0xFF	; 255
    1c7a:	80 83       	st	Z, r24
	lcd0_detect=*lcd0_PIN & (1<<NC);
    1c7c:	e0 91 81 02 	lds	r30, 0x0281	; 0x800281 <lcd0_PIN>
    1c80:	f0 91 82 02 	lds	r31, 0x0282	; 0x800282 <lcd0_PIN+0x1>
    1c84:	80 81       	ld	r24, Z
    1c86:	88 70       	andi	r24, 0x08	; 8
    1c88:	80 93 8a 02 	sts	0x028A, r24	; 0x80028a <lcd0_detect>
	lcd0.hspace=LCD0_hspace;
	lcd0.clear=LCD0_clear;
	lcd0.gotoxy=LCD0_gotoxy;
	lcd0.reboot=LCD0_reboot;
	//LCD INIC
	LCD0_inic();
    1c8c:	95 df       	rcall	.-214    	; 0x1bb8 <LCD0_inic>
	SREG=tSREG;
    1c8e:	1f bf       	out	0x3f, r17	; 63
	//
	return lcd0;
    1c90:	8e ef       	ldi	r24, 0xFE	; 254
    1c92:	9b e0       	ldi	r25, 0x0B	; 11
    1c94:	99 83       	std	Y+1, r25	; 0x01
    1c96:	88 83       	st	Y, r24
    1c98:	82 ec       	ldi	r24, 0xC2	; 194
    1c9a:	9c e0       	ldi	r25, 0x0C	; 12
    1c9c:	9b 83       	std	Y+3, r25	; 0x03
    1c9e:	8a 83       	std	Y+2, r24	; 0x02
    1ca0:	8d e3       	ldi	r24, 0x3D	; 61
    1ca2:	9d e0       	ldi	r25, 0x0D	; 13
    1ca4:	9d 83       	std	Y+5, r25	; 0x05
    1ca6:	8c 83       	std	Y+4, r24	; 0x04
    1ca8:	8f e4       	ldi	r24, 0x4F	; 79
    1caa:	9d e0       	ldi	r25, 0x0D	; 13
    1cac:	9f 83       	std	Y+7, r25	; 0x07
    1cae:	8e 83       	std	Y+6, r24	; 0x06
    1cb0:	84 e5       	ldi	r24, 0x54	; 84
    1cb2:	9d e0       	ldi	r25, 0x0D	; 13
    1cb4:	99 87       	std	Y+9, r25	; 0x09
    1cb6:	88 87       	std	Y+8, r24	; 0x08
    1cb8:	8d e5       	ldi	r24, 0x5D	; 93
    1cba:	9d e0       	ldi	r25, 0x0D	; 13
    1cbc:	9b 87       	std	Y+11, r25	; 0x0b
    1cbe:	8a 87       	std	Y+10, r24	; 0x0a
    1cc0:	8e e6       	ldi	r24, 0x6E	; 110
    1cc2:	9d e0       	ldi	r25, 0x0D	; 13
    1cc4:	9d 87       	std	Y+13, r25	; 0x0d
    1cc6:	8c 87       	std	Y+12, r24	; 0x0c
    1cc8:	8d e9       	ldi	r24, 0x9D	; 157
    1cca:	9d e0       	ldi	r25, 0x0D	; 13
    1ccc:	9f 87       	std	Y+15, r25	; 0x0f
    1cce:	8e 87       	std	Y+14, r24	; 0x0e
    1cd0:	81 ed       	ldi	r24, 0xD1	; 209
    1cd2:	9d e0       	ldi	r25, 0x0D	; 13
    1cd4:	99 8b       	std	Y+17, r25	; 0x11
    1cd6:	88 8b       	std	Y+16, r24	; 0x10
    1cd8:	8a ea       	ldi	r24, 0xAA	; 170
    1cda:	9d e0       	ldi	r25, 0x0D	; 13
    1cdc:	9b 8b       	std	Y+19, r25	; 0x13
    1cde:	8a 8b       	std	Y+18, r24	; 0x12
    1ce0:	89 e7       	ldi	r24, 0x79	; 121
    1ce2:	9e e0       	ldi	r25, 0x0E	; 14
    1ce4:	9d 8b       	std	Y+21, r25	; 0x15
    1ce6:	8c 8b       	std	Y+20, r24	; 0x14
}
    1ce8:	ce 01       	movw	r24, r28
    1cea:	df 91       	pop	r29
    1cec:	cf 91       	pop	r28
    1cee:	1f 91       	pop	r17
    1cf0:	08 95       	ret

00001cf2 <LCD0_reboot>:
	*lcd0_PORT|=(1<<EN);
	LCD_ticks(num);
	*lcd0_PORT&=~(1<<EN);
}
void LCD0_reboot(void)
{
    1cf2:	cf 93       	push	r28
	//low high detect pin NC
	uint8_t i;
	uint8_t tmp;
	tmp=*lcd0_PIN & (1<<NC);
    1cf4:	e0 91 81 02 	lds	r30, 0x0281	; 0x800281 <lcd0_PIN>
    1cf8:	f0 91 82 02 	lds	r31, 0x0282	; 0x800282 <lcd0_PIN+0x1>
    1cfc:	c0 81       	ld	r28, Z
    1cfe:	c8 70       	andi	r28, 0x08	; 8
	i=tmp^lcd0_detect;
    1d00:	80 91 8a 02 	lds	r24, 0x028A	; 0x80028a <lcd0_detect>
    1d04:	8c 27       	eor	r24, r28
	i&=tmp;
	if(i)
    1d06:	8c 23       	and	r24, r28
    1d08:	09 f0       	breq	.+2      	; 0x1d0c <LCD0_reboot+0x1a>
		LCD0_inic();
    1d0a:	56 df       	rcall	.-340    	; 0x1bb8 <LCD0_inic>
	lcd0_detect=tmp;
    1d0c:	c0 93 8a 02 	sts	0x028A, r28	; 0x80028a <lcd0_detect>
}
    1d10:	cf 91       	pop	r28
    1d12:	08 95       	ret

00001d14 <PCF8563RTC_SetTime>:
	i2c.Write(0x00);						// Write 0x00 to Control register to disable SQW-Out
	i2c.Stop();								// Stop I2C communication after initializing PCF8563
}
/***void PCF8563RTC_SetTime(uint8_t var_hour_u8, uint8_t var_min_u8, uint8_t var_sec_u8)***/
void PCF8563RTC_SetTime(uint8_t var_hour_u8, uint8_t var_min_u8, uint8_t var_sec_u8)
{
    1d14:	ff 92       	push	r15
    1d16:	0f 93       	push	r16
    1d18:	1f 93       	push	r17
    1d1a:	cf 93       	push	r28
    1d1c:	df 93       	push	r29
    1d1e:	18 2f       	mov	r17, r24
    1d20:	06 2f       	mov	r16, r22
    1d22:	f4 2e       	mov	r15, r20
	i2c.Start();                            // Start I2C communication
    1d24:	c0 eb       	ldi	r28, 0xB0	; 176
    1d26:	d2 e0       	ldi	r29, 0x02	; 2
    1d28:	e8 81       	ld	r30, Y
    1d2a:	f9 81       	ldd	r31, Y+1	; 0x01
    1d2c:	09 95       	icall
	i2c.Write(PCF8563WriteMode_U8);         // connect to PCF8563 by sending its ID on I2c Bus
    1d2e:	ec 81       	ldd	r30, Y+4	; 0x04
    1d30:	fd 81       	ldd	r31, Y+5	; 0x05
    1d32:	82 ea       	ldi	r24, 0xA2	; 162
    1d34:	09 95       	icall
	i2c.Write(PCF8563SecondRegAddress_U8);  // Select the SEC RAM address
    1d36:	ec 81       	ldd	r30, Y+4	; 0x04
    1d38:	fd 81       	ldd	r31, Y+5	; 0x05
    1d3a:	82 e0       	ldi	r24, 0x02	; 2
    1d3c:	09 95       	icall
	i2c.Write(var_sec_u8);			        // Write sec from RAM address 02H
    1d3e:	ec 81       	ldd	r30, Y+4	; 0x04
    1d40:	fd 81       	ldd	r31, Y+5	; 0x05
    1d42:	8f 2d       	mov	r24, r15
    1d44:	09 95       	icall
	i2c.Write(var_min_u8);			        // Write min from RAM address 03H
    1d46:	ec 81       	ldd	r30, Y+4	; 0x04
    1d48:	fd 81       	ldd	r31, Y+5	; 0x05
    1d4a:	80 2f       	mov	r24, r16
    1d4c:	09 95       	icall
	i2c.Write(var_hour_u8);			        // Write hour from RAM address 04H
    1d4e:	ec 81       	ldd	r30, Y+4	; 0x04
    1d50:	fd 81       	ldd	r31, Y+5	; 0x05
    1d52:	81 2f       	mov	r24, r17
    1d54:	09 95       	icall
	i2c.Stop();           	                // Stop I2C communication after Setting the Time
    1d56:	ea 81       	ldd	r30, Y+2	; 0x02
    1d58:	fb 81       	ldd	r31, Y+3	; 0x03
    1d5a:	09 95       	icall
}
    1d5c:	df 91       	pop	r29
    1d5e:	cf 91       	pop	r28
    1d60:	1f 91       	pop	r17
    1d62:	0f 91       	pop	r16
    1d64:	ff 90       	pop	r15
    1d66:	08 95       	ret

00001d68 <PCF8563RTC_SetHour>:
/***void PCF8563RTC_SetHour(uint8_t var_hour_u8)***/
void PCF8563RTC_SetHour(uint8_t var_hour_u8)
{
    1d68:	1f 93       	push	r17
    1d6a:	cf 93       	push	r28
    1d6c:	df 93       	push	r29
    1d6e:	18 2f       	mov	r17, r24
	i2c.Start();                            // Start I2C communication
    1d70:	c0 eb       	ldi	r28, 0xB0	; 176
    1d72:	d2 e0       	ldi	r29, 0x02	; 2
    1d74:	e8 81       	ld	r30, Y
    1d76:	f9 81       	ldd	r31, Y+1	; 0x01
    1d78:	09 95       	icall
	i2c.Write(PCF8563WriteMode_U8);         // connect to PCF8563 by sending its ID on I2c Bus
    1d7a:	ec 81       	ldd	r30, Y+4	; 0x04
    1d7c:	fd 81       	ldd	r31, Y+5	; 0x05
    1d7e:	82 ea       	ldi	r24, 0xA2	; 162
    1d80:	09 95       	icall
	i2c.Write(PCF8563HourRegAddress_U8);    // Select the SEC RAM address
    1d82:	ec 81       	ldd	r30, Y+4	; 0x04
    1d84:	fd 81       	ldd	r31, Y+5	; 0x05
    1d86:	84 e0       	ldi	r24, 0x04	; 4
    1d88:	09 95       	icall
	i2c.Write(var_hour_u8);			        // Write hour from RAM address 04H
    1d8a:	ec 81       	ldd	r30, Y+4	; 0x04
    1d8c:	fd 81       	ldd	r31, Y+5	; 0x05
    1d8e:	81 2f       	mov	r24, r17
    1d90:	09 95       	icall
	i2c.Stop();           	                // Stop I2C communication after Setting the Time
    1d92:	ea 81       	ldd	r30, Y+2	; 0x02
    1d94:	fb 81       	ldd	r31, Y+3	; 0x03
    1d96:	09 95       	icall
}
    1d98:	df 91       	pop	r29
    1d9a:	cf 91       	pop	r28
    1d9c:	1f 91       	pop	r17
    1d9e:	08 95       	ret

00001da0 <PCF8563RTC_SetMinute>:
/***void PCF8563RTC_SetMinute(uint8_t var_min_u8)***/
void PCF8563RTC_SetMinute(uint8_t var_min_u8)
{
    1da0:	1f 93       	push	r17
    1da2:	cf 93       	push	r28
    1da4:	df 93       	push	r29
    1da6:	18 2f       	mov	r17, r24
	i2c.Start();                            // Start I2C communication
    1da8:	c0 eb       	ldi	r28, 0xB0	; 176
    1daa:	d2 e0       	ldi	r29, 0x02	; 2
    1dac:	e8 81       	ld	r30, Y
    1dae:	f9 81       	ldd	r31, Y+1	; 0x01
    1db0:	09 95       	icall
	i2c.Write(PCF8563WriteMode_U8);         // connect to PCF8563 by sending its ID on I2c Bus
    1db2:	ec 81       	ldd	r30, Y+4	; 0x04
    1db4:	fd 81       	ldd	r31, Y+5	; 0x05
    1db6:	82 ea       	ldi	r24, 0xA2	; 162
    1db8:	09 95       	icall
	i2c.Write(PCF8563MinuteRegAddress_U8);  // Select the SEC RAM address
    1dba:	ec 81       	ldd	r30, Y+4	; 0x04
    1dbc:	fd 81       	ldd	r31, Y+5	; 0x05
    1dbe:	83 e0       	ldi	r24, 0x03	; 3
    1dc0:	09 95       	icall
	i2c.Write(var_min_u8);			        // Write min from RAM address 03H
    1dc2:	ec 81       	ldd	r30, Y+4	; 0x04
    1dc4:	fd 81       	ldd	r31, Y+5	; 0x05
    1dc6:	81 2f       	mov	r24, r17
    1dc8:	09 95       	icall
	i2c.Stop();           	                // Stop I2C communication after Setting the Time
    1dca:	ea 81       	ldd	r30, Y+2	; 0x02
    1dcc:	fb 81       	ldd	r31, Y+3	; 0x03
    1dce:	09 95       	icall
}
    1dd0:	df 91       	pop	r29
    1dd2:	cf 91       	pop	r28
    1dd4:	1f 91       	pop	r17
    1dd6:	08 95       	ret

00001dd8 <PCF8563RTC_SetSecond>:
/***void PCF8563RTC_SetSecond(uint8_t var_sec_u8)***/
void PCF8563RTC_SetSecond(uint8_t var_sec_u8)
{
    1dd8:	1f 93       	push	r17
    1dda:	cf 93       	push	r28
    1ddc:	df 93       	push	r29
    1dde:	18 2f       	mov	r17, r24
	i2c.Start();                            // Start I2C communication
    1de0:	c0 eb       	ldi	r28, 0xB0	; 176
    1de2:	d2 e0       	ldi	r29, 0x02	; 2
    1de4:	e8 81       	ld	r30, Y
    1de6:	f9 81       	ldd	r31, Y+1	; 0x01
    1de8:	09 95       	icall
	i2c.Write(PCF8563WriteMode_U8);         // connect to PCF8563 by sending its ID on I2c Bus
    1dea:	ec 81       	ldd	r30, Y+4	; 0x04
    1dec:	fd 81       	ldd	r31, Y+5	; 0x05
    1dee:	82 ea       	ldi	r24, 0xA2	; 162
    1df0:	09 95       	icall
	i2c.Write(PCF8563SecondRegAddress_U8);  // Select the SEC RAM address
    1df2:	ec 81       	ldd	r30, Y+4	; 0x04
    1df4:	fd 81       	ldd	r31, Y+5	; 0x05
    1df6:	82 e0       	ldi	r24, 0x02	; 2
    1df8:	09 95       	icall
	i2c.Write(var_sec_u8);			        // Write sec from RAM address 02H
    1dfa:	ec 81       	ldd	r30, Y+4	; 0x04
    1dfc:	fd 81       	ldd	r31, Y+5	; 0x05
    1dfe:	81 2f       	mov	r24, r17
    1e00:	09 95       	icall
	i2c.Stop();           	                // Stop I2C communication after Setting the Time
    1e02:	ea 81       	ldd	r30, Y+2	; 0x02
    1e04:	fb 81       	ldd	r31, Y+3	; 0x03
    1e06:	09 95       	icall
}
    1e08:	df 91       	pop	r29
    1e0a:	cf 91       	pop	r28
    1e0c:	1f 91       	pop	r17
    1e0e:	08 95       	ret

00001e10 <PCF8563RTC_SetClkOut>:
/***void PCF8563RTC_SetClkOut(uint8_t onoff, uint8_t freq)***/
void PCF8563RTC_SetClkOut(uint8_t onoff, uint8_t freq)
{
    1e10:	1f 93       	push	r17
    1e12:	cf 93       	push	r28
    1e14:	df 93       	push	r29
	uint8_t word=0;
	if(onoff)
    1e16:	88 23       	and	r24, r24
    1e18:	21 f0       	breq	.+8      	; 0x1e22 <PCF8563RTC_SetClkOut+0x12>
		word=0x80 | (freq & 0x03);
    1e1a:	63 70       	andi	r22, 0x03	; 3
    1e1c:	16 2f       	mov	r17, r22
    1e1e:	10 68       	ori	r17, 0x80	; 128
    1e20:	01 c0       	rjmp	.+2      	; 0x1e24 <PCF8563RTC_SetClkOut+0x14>
	i2c.Stop();           	                // Stop I2C communication after Setting the Time
}
/***void PCF8563RTC_SetClkOut(uint8_t onoff, uint8_t freq)***/
void PCF8563RTC_SetClkOut(uint8_t onoff, uint8_t freq)
{
	uint8_t word=0;
    1e22:	10 e0       	ldi	r17, 0x00	; 0
	if(onoff)
		word=0x80 | (freq & 0x03);
	i2c.Start();                            // Start I2C communication
    1e24:	c0 eb       	ldi	r28, 0xB0	; 176
    1e26:	d2 e0       	ldi	r29, 0x02	; 2
    1e28:	e8 81       	ld	r30, Y
    1e2a:	f9 81       	ldd	r31, Y+1	; 0x01
    1e2c:	09 95       	icall
	i2c.Write(PCF8563WriteMode_U8);			// connect to PCF8563 by sending its ID on I2c Bus
    1e2e:	ec 81       	ldd	r30, Y+4	; 0x04
    1e30:	fd 81       	ldd	r31, Y+5	; 0x05
    1e32:	82 ea       	ldi	r24, 0xA2	; 162
    1e34:	09 95       	icall
	i2c.Write(PCF8563CLKOUT_control_U8);	// Select the CLKOUT RAM address
    1e36:	ec 81       	ldd	r30, Y+4	; 0x04
    1e38:	fd 81       	ldd	r31, Y+5	; 0x05
    1e3a:	8d e0       	ldi	r24, 0x0D	; 13
    1e3c:	09 95       	icall
	i2c.Write(word);						// Write Clock from RAM address 0DH						
    1e3e:	ec 81       	ldd	r30, Y+4	; 0x04
    1e40:	fd 81       	ldd	r31, Y+5	; 0x05
    1e42:	81 2f       	mov	r24, r17
    1e44:	09 95       	icall
	i2c.Stop();           	                // Stop I2C communication after Setting the Time
    1e46:	ea 81       	ldd	r30, Y+2	; 0x02
    1e48:	fb 81       	ldd	r31, Y+3	; 0x03
    1e4a:	09 95       	icall
}
    1e4c:	df 91       	pop	r29
    1e4e:	cf 91       	pop	r28
    1e50:	1f 91       	pop	r17
    1e52:	08 95       	ret

00001e54 <PCF8563RTC_SetDate>:
/***void PCF8563RTC_SetDate(uint8_t var_day_u8, uint8_t var_weekday_u8, uint8_t var_month_u8, uint8_t var_year_u8)***/
void PCF8563RTC_SetDate(uint8_t var_day_u8, uint8_t var_weekday_u8, uint8_t var_month_u8, uint8_t var_year_u8)
{
    1e54:	ef 92       	push	r14
    1e56:	ff 92       	push	r15
    1e58:	0f 93       	push	r16
    1e5a:	1f 93       	push	r17
    1e5c:	cf 93       	push	r28
    1e5e:	df 93       	push	r29
    1e60:	e8 2e       	mov	r14, r24
    1e62:	f6 2e       	mov	r15, r22
    1e64:	04 2f       	mov	r16, r20
    1e66:	12 2f       	mov	r17, r18
	i2c.Start();                          // Start I2C communication
    1e68:	c0 eb       	ldi	r28, 0xB0	; 176
    1e6a:	d2 e0       	ldi	r29, 0x02	; 2
    1e6c:	e8 81       	ld	r30, Y
    1e6e:	f9 81       	ldd	r31, Y+1	; 0x01
    1e70:	09 95       	icall
	i2c.Write(PCF8563WriteMode_U8);	      // connect to PCF8563 by sending its ID on I2c Bus
    1e72:	ec 81       	ldd	r30, Y+4	; 0x04
    1e74:	fd 81       	ldd	r31, Y+5	; 0x05
    1e76:	82 ea       	ldi	r24, 0xA2	; 162
    1e78:	09 95       	icall
	i2c.Write(PCF8563DayRegAddress_U8);  // Request DAY RAM address at 05H
    1e7a:	ec 81       	ldd	r30, Y+4	; 0x04
    1e7c:	fd 81       	ldd	r31, Y+5	; 0x05
    1e7e:	85 e0       	ldi	r24, 0x05	; 5
    1e80:	09 95       	icall
	i2c.Write(var_day_u8);			      // Write date on RAM address 05H
    1e82:	ec 81       	ldd	r30, Y+4	; 0x04
    1e84:	fd 81       	ldd	r31, Y+5	; 0x05
    1e86:	8e 2d       	mov	r24, r14
    1e88:	09 95       	icall
	i2c.Write(var_weekday_u8);            // Write date on RAM address 06H
    1e8a:	ec 81       	ldd	r30, Y+4	; 0x04
    1e8c:	fd 81       	ldd	r31, Y+5	; 0x05
    1e8e:	8f 2d       	mov	r24, r15
    1e90:	09 95       	icall
	i2c.Write(var_month_u8);			  // Write month on RAM address 07H
    1e92:	ec 81       	ldd	r30, Y+4	; 0x04
    1e94:	fd 81       	ldd	r31, Y+5	; 0x05
    1e96:	80 2f       	mov	r24, r16
    1e98:	09 95       	icall
	i2c.Write(var_year_u8);			      // Write year on RAM address 08h
    1e9a:	ec 81       	ldd	r30, Y+4	; 0x04
    1e9c:	fd 81       	ldd	r31, Y+5	; 0x05
    1e9e:	81 2f       	mov	r24, r17
    1ea0:	09 95       	icall
	i2c.Stop();				              // Stop I2C communication after Setting the Date
    1ea2:	ea 81       	ldd	r30, Y+2	; 0x02
    1ea4:	fb 81       	ldd	r31, Y+3	; 0x03
    1ea6:	09 95       	icall
}
    1ea8:	df 91       	pop	r29
    1eaa:	cf 91       	pop	r28
    1eac:	1f 91       	pop	r17
    1eae:	0f 91       	pop	r16
    1eb0:	ff 90       	pop	r15
    1eb2:	ef 90       	pop	r14
    1eb4:	08 95       	ret

00001eb6 <PCF8563RTC_SetYear>:
/***void PCF8563RTC_SetYear(uint8_t var_year_u8)***/
void PCF8563RTC_SetYear(uint8_t var_year_u8)
{
    1eb6:	1f 93       	push	r17
    1eb8:	cf 93       	push	r28
    1eba:	df 93       	push	r29
    1ebc:	18 2f       	mov	r17, r24
	i2c.Start();                          // Start I2C communication
    1ebe:	c0 eb       	ldi	r28, 0xB0	; 176
    1ec0:	d2 e0       	ldi	r29, 0x02	; 2
    1ec2:	e8 81       	ld	r30, Y
    1ec4:	f9 81       	ldd	r31, Y+1	; 0x01
    1ec6:	09 95       	icall
	i2c.Write(PCF8563WriteMode_U8);	      // connect to PCF8563 by sending its ID on I2c Bus
    1ec8:	ec 81       	ldd	r30, Y+4	; 0x04
    1eca:	fd 81       	ldd	r31, Y+5	; 0x05
    1ecc:	82 ea       	ldi	r24, 0xA2	; 162
    1ece:	09 95       	icall
	i2c.Write(PCF8563YearRegAddress_U8);  // Request DAY RAM address at 08H
    1ed0:	ec 81       	ldd	r30, Y+4	; 0x04
    1ed2:	fd 81       	ldd	r31, Y+5	; 0x05
    1ed4:	88 e0       	ldi	r24, 0x08	; 8
    1ed6:	09 95       	icall
	i2c.Write(var_year_u8);			      // Write year on RAM address 08h
    1ed8:	ec 81       	ldd	r30, Y+4	; 0x04
    1eda:	fd 81       	ldd	r31, Y+5	; 0x05
    1edc:	81 2f       	mov	r24, r17
    1ede:	09 95       	icall
	i2c.Stop();				              // Stop I2C communication after Setting the Date
    1ee0:	ea 81       	ldd	r30, Y+2	; 0x02
    1ee2:	fb 81       	ldd	r31, Y+3	; 0x03
    1ee4:	09 95       	icall
}
    1ee6:	df 91       	pop	r29
    1ee8:	cf 91       	pop	r28
    1eea:	1f 91       	pop	r17
    1eec:	08 95       	ret

00001eee <PCF8563RTC_SetMonth>:
/***void PCF8563RTC_SetMonth(uint8_t var_month_u8)***/
void PCF8563RTC_SetMonth(uint8_t var_month_u8)
{
    1eee:	1f 93       	push	r17
    1ef0:	cf 93       	push	r28
    1ef2:	df 93       	push	r29
    1ef4:	18 2f       	mov	r17, r24
	i2c.Start();                           // Start I2C communication
    1ef6:	c0 eb       	ldi	r28, 0xB0	; 176
    1ef8:	d2 e0       	ldi	r29, 0x02	; 2
    1efa:	e8 81       	ld	r30, Y
    1efc:	f9 81       	ldd	r31, Y+1	; 0x01
    1efe:	09 95       	icall
	i2c.Write(PCF8563WriteMode_U8);	       // connect to PCF8563 by sending its ID on I2c Bus
    1f00:	ec 81       	ldd	r30, Y+4	; 0x04
    1f02:	fd 81       	ldd	r31, Y+5	; 0x05
    1f04:	82 ea       	ldi	r24, 0xA2	; 162
    1f06:	09 95       	icall
	i2c.Write(PCF8563MonthRegAddress_U8);  // Request DAY RAM address at 07H
    1f08:	ec 81       	ldd	r30, Y+4	; 0x04
    1f0a:	fd 81       	ldd	r31, Y+5	; 0x05
    1f0c:	87 e0       	ldi	r24, 0x07	; 7
    1f0e:	09 95       	icall
	i2c.Write(var_month_u8);			   // Write month on RAM address 07H
    1f10:	ec 81       	ldd	r30, Y+4	; 0x04
    1f12:	fd 81       	ldd	r31, Y+5	; 0x05
    1f14:	81 2f       	mov	r24, r17
    1f16:	09 95       	icall
	i2c.Stop();				               // Stop I2C communication after Setting the Date
    1f18:	ea 81       	ldd	r30, Y+2	; 0x02
    1f1a:	fb 81       	ldd	r31, Y+3	; 0x03
    1f1c:	09 95       	icall
}
    1f1e:	df 91       	pop	r29
    1f20:	cf 91       	pop	r28
    1f22:	1f 91       	pop	r17
    1f24:	08 95       	ret

00001f26 <PCF8563RTC_SetWeekday>:
/***void PCF8563RTC_SetWeekday(uint8_t var_weekday_u8)***/
void PCF8563RTC_SetWeekday(uint8_t var_weekday_u8)
{
    1f26:	1f 93       	push	r17
    1f28:	cf 93       	push	r28
    1f2a:	df 93       	push	r29
    1f2c:	18 2f       	mov	r17, r24
	i2c.Start();                             // Start I2C communication
    1f2e:	c0 eb       	ldi	r28, 0xB0	; 176
    1f30:	d2 e0       	ldi	r29, 0x02	; 2
    1f32:	e8 81       	ld	r30, Y
    1f34:	f9 81       	ldd	r31, Y+1	; 0x01
    1f36:	09 95       	icall
	i2c.Write(PCF8563WriteMode_U8);	         // connect to PCF8563 by sending its ID on I2c Bus
    1f38:	ec 81       	ldd	r30, Y+4	; 0x04
    1f3a:	fd 81       	ldd	r31, Y+5	; 0x05
    1f3c:	82 ea       	ldi	r24, 0xA2	; 162
    1f3e:	09 95       	icall
	i2c.Write(PCF8563WeekdayRegAddress_U8);  // Request DAY RAM address at 06H
    1f40:	ec 81       	ldd	r30, Y+4	; 0x04
    1f42:	fd 81       	ldd	r31, Y+5	; 0x05
    1f44:	86 e0       	ldi	r24, 0x06	; 6
    1f46:	09 95       	icall
	i2c.Write(var_weekday_u8);               // Write date on RAM address 06H
    1f48:	ec 81       	ldd	r30, Y+4	; 0x04
    1f4a:	fd 81       	ldd	r31, Y+5	; 0x05
    1f4c:	81 2f       	mov	r24, r17
    1f4e:	09 95       	icall
	i2c.Stop();				                 // Stop I2C communication after Setting the Date
    1f50:	ea 81       	ldd	r30, Y+2	; 0x02
    1f52:	fb 81       	ldd	r31, Y+3	; 0x03
    1f54:	09 95       	icall
}
    1f56:	df 91       	pop	r29
    1f58:	cf 91       	pop	r28
    1f5a:	1f 91       	pop	r17
    1f5c:	08 95       	ret

00001f5e <PCF8563RTC_SetDay>:
/***void PCF8563RTC_SetDay(uint8_t var_day_u8)***/
void PCF8563RTC_SetDay(uint8_t var_day_u8)
{
    1f5e:	1f 93       	push	r17
    1f60:	cf 93       	push	r28
    1f62:	df 93       	push	r29
    1f64:	18 2f       	mov	r17, r24
	i2c.Start();                          // Start I2C communication
    1f66:	c0 eb       	ldi	r28, 0xB0	; 176
    1f68:	d2 e0       	ldi	r29, 0x02	; 2
    1f6a:	e8 81       	ld	r30, Y
    1f6c:	f9 81       	ldd	r31, Y+1	; 0x01
    1f6e:	09 95       	icall
	i2c.Write(PCF8563WriteMode_U8);	      // connect to PCF8563 by sending its ID on I2c Bus
    1f70:	ec 81       	ldd	r30, Y+4	; 0x04
    1f72:	fd 81       	ldd	r31, Y+5	; 0x05
    1f74:	82 ea       	ldi	r24, 0xA2	; 162
    1f76:	09 95       	icall
	i2c.Write(PCF8563DayRegAddress_U8);  // Request DAY RAM address at 05H
    1f78:	ec 81       	ldd	r30, Y+4	; 0x04
    1f7a:	fd 81       	ldd	r31, Y+5	; 0x05
    1f7c:	85 e0       	ldi	r24, 0x05	; 5
    1f7e:	09 95       	icall
	i2c.Write(var_day_u8);			      // Write date on RAM address 05H
    1f80:	ec 81       	ldd	r30, Y+4	; 0x04
    1f82:	fd 81       	ldd	r31, Y+5	; 0x05
    1f84:	81 2f       	mov	r24, r17
    1f86:	09 95       	icall
	i2c.Stop();				              // Stop I2C communication after Setting the Date
    1f88:	ea 81       	ldd	r30, Y+2	; 0x02
    1f8a:	fb 81       	ldd	r31, Y+3	; 0x03
    1f8c:	09 95       	icall
}
    1f8e:	df 91       	pop	r29
    1f90:	cf 91       	pop	r28
    1f92:	1f 91       	pop	r17
    1f94:	08 95       	ret

00001f96 <PCF8563RTC_GetTime>:
/***struct time PCF8563RTC_GetTime(void)***/
struct time PCF8563RTC_GetTime(void)
{
    1f96:	ff 92       	push	r15
    1f98:	0f 93       	push	r16
    1f9a:	1f 93       	push	r17
    1f9c:	cf 93       	push	r28
    1f9e:	df 93       	push	r29
	struct time result;
	i2c.Start();							       // Start I2C communication
    1fa0:	c0 eb       	ldi	r28, 0xB0	; 176
    1fa2:	d2 e0       	ldi	r29, 0x02	; 2
    1fa4:	e8 81       	ld	r30, Y
    1fa6:	f9 81       	ldd	r31, Y+1	; 0x01
    1fa8:	09 95       	icall
	i2c.Write(PCF8563WriteMode_U8);			       // connect to PCF8563 by sending its ID on I2c Bus
    1faa:	ec 81       	ldd	r30, Y+4	; 0x04
    1fac:	fd 81       	ldd	r31, Y+5	; 0x05
    1fae:	82 ea       	ldi	r24, 0xA2	; 162
    1fb0:	09 95       	icall
	i2c.Write(PCF8563SecondRegAddress_U8);	       // Request Sec RAM address at 00H
    1fb2:	ec 81       	ldd	r30, Y+4	; 0x04
    1fb4:	fd 81       	ldd	r31, Y+5	; 0x05
    1fb6:	82 e0       	ldi	r24, 0x02	; 2
    1fb8:	09 95       	icall
	i2c.Stop();								       // Stop I2C communication after selecting Sec Register
    1fba:	ea 81       	ldd	r30, Y+2	; 0x02
    1fbc:	fb 81       	ldd	r31, Y+3	; 0x03
    1fbe:	09 95       	icall
	i2c.Start();							       // Start I2C communication
    1fc0:	e8 81       	ld	r30, Y
    1fc2:	f9 81       	ldd	r31, Y+1	; 0x01
    1fc4:	09 95       	icall
	i2c.Write(PCF8563ReadMode_U8);			       // connect to PCF8563(Read mode) by sending its ID
    1fc6:	ec 81       	ldd	r30, Y+4	; 0x04
    1fc8:	fd 81       	ldd	r31, Y+5	; 0x05
    1fca:	83 ea       	ldi	r24, 0xA3	; 163
    1fcc:	09 95       	icall
	result.VL_seconds = i2c.Read(1) & ~0x80;	   // read second and return Positive ACK
    1fce:	ee 81       	ldd	r30, Y+6	; 0x06
    1fd0:	ff 81       	ldd	r31, Y+7	; 0x07
    1fd2:	81 e0       	ldi	r24, 0x01	; 1
    1fd4:	09 95       	icall
    1fd6:	f8 2e       	mov	r15, r24
	result.minutes = i2c.Read(1) & ~0x80;		   // read minute and return Positive ACK
    1fd8:	ee 81       	ldd	r30, Y+6	; 0x06
    1fda:	ff 81       	ldd	r31, Y+7	; 0x07
    1fdc:	81 e0       	ldi	r24, 0x01	; 1
    1fde:	09 95       	icall
    1fe0:	18 2f       	mov	r17, r24
	result.hours = i2c.Read(0) & ~0xC0;			   // read hour and return Negative/No ACK
    1fe2:	ee 81       	ldd	r30, Y+6	; 0x06
    1fe4:	ff 81       	ldd	r31, Y+7	; 0x07
    1fe6:	80 e0       	ldi	r24, 0x00	; 0
    1fe8:	09 95       	icall
    1fea:	08 2f       	mov	r16, r24
	i2c.Stop();								       // Stop I2C communication after reading the Time
    1fec:	ea 81       	ldd	r30, Y+2	; 0x02
    1fee:	fb 81       	ldd	r31, Y+3	; 0x03
    1ff0:	09 95       	icall
	return result;
    1ff2:	60 2f       	mov	r22, r16
    1ff4:	6f 73       	andi	r22, 0x3F	; 63
    1ff6:	71 2f       	mov	r23, r17
    1ff8:	7f 77       	andi	r23, 0x7F	; 127
}
    1ffa:	8f 2d       	mov	r24, r15
    1ffc:	8f 77       	andi	r24, 0x7F	; 127
    1ffe:	df 91       	pop	r29
    2000:	cf 91       	pop	r28
    2002:	1f 91       	pop	r17
    2004:	0f 91       	pop	r16
    2006:	ff 90       	pop	r15
    2008:	08 95       	ret

0000200a <PCF8563RTC_GetDate>:
/***struct date PCF8563RTC_GetDate(void)***/
struct date PCF8563RTC_GetDate(void)
{
    200a:	ef 92       	push	r14
    200c:	ff 92       	push	r15
    200e:	0f 93       	push	r16
    2010:	1f 93       	push	r17
    2012:	cf 93       	push	r28
    2014:	df 93       	push	r29
	struct date result;
	i2c.Start();							        // Start I2C communication
    2016:	c0 eb       	ldi	r28, 0xB0	; 176
    2018:	d2 e0       	ldi	r29, 0x02	; 2
    201a:	e8 81       	ld	r30, Y
    201c:	f9 81       	ldd	r31, Y+1	; 0x01
    201e:	09 95       	icall
	i2c.Write(PCF8563WriteMode_U8);			        // connect to PCF8563 by sending its ID on I2c Bus
    2020:	ec 81       	ldd	r30, Y+4	; 0x04
    2022:	fd 81       	ldd	r31, Y+5	; 0x05
    2024:	82 ea       	ldi	r24, 0xA2	; 162
    2026:	09 95       	icall
	i2c.Write(PCF8563DayRegAddress_U8);	            // Request DAY RAM address at 04H
    2028:	ec 81       	ldd	r30, Y+4	; 0x04
    202a:	fd 81       	ldd	r31, Y+5	; 0x05
    202c:	85 e0       	ldi	r24, 0x05	; 5
    202e:	09 95       	icall
	i2c.Stop();								        // Stop I2C communication after selecting DAY Register
    2030:	ea 81       	ldd	r30, Y+2	; 0x02
    2032:	fb 81       	ldd	r31, Y+3	; 0x03
    2034:	09 95       	icall
	i2c.Start();							        // Start I2C communication
    2036:	e8 81       	ld	r30, Y
    2038:	f9 81       	ldd	r31, Y+1	; 0x01
    203a:	09 95       	icall
	i2c.Write(PCF8563ReadMode_U8);			        // connect to PCF8563 (Read mode) by sending its ID
    203c:	ec 81       	ldd	r30, Y+4	; 0x04
    203e:	fd 81       	ldd	r31, Y+5	; 0x05
    2040:	83 ea       	ldi	r24, 0xA3	; 163
    2042:	09 95       	icall
	result.days = i2c.Read(1) & ~0xC0;				// read Day and return Positive ACK
    2044:	ee 81       	ldd	r30, Y+6	; 0x06
    2046:	ff 81       	ldd	r31, Y+7	; 0x07
    2048:	81 e0       	ldi	r24, 0x01	; 1
    204a:	09 95       	icall
    204c:	08 2f       	mov	r16, r24
	result.weekdays = i2c.Read(1) & ~0xF8;			// read Month and return Positive ACK
    204e:	ee 81       	ldd	r30, Y+6	; 0x06
    2050:	ff 81       	ldd	r31, Y+7	; 0x07
    2052:	81 e0       	ldi	r24, 0x01	; 1
    2054:	09 95       	icall
    2056:	f8 2e       	mov	r15, r24
	result.century_months = i2c.Read(1) & ~0xE0;
    2058:	ee 81       	ldd	r30, Y+6	; 0x06
    205a:	ff 81       	ldd	r31, Y+7	; 0x07
    205c:	81 e0       	ldi	r24, 0x01	; 1
    205e:	09 95       	icall
    2060:	18 2f       	mov	r17, r24
	result.years = i2c.Read(0);				        // read Year and return Negative/No ACK
    2062:	ee 81       	ldd	r30, Y+6	; 0x06
    2064:	ff 81       	ldd	r31, Y+7	; 0x07
    2066:	80 e0       	ldi	r24, 0x00	; 0
    2068:	09 95       	icall
    206a:	e8 2e       	mov	r14, r24
	i2c.Stop();								        // Stop I2C communication after reading the Date
    206c:	ea 81       	ldd	r30, Y+2	; 0x02
    206e:	fb 81       	ldd	r31, Y+3	; 0x03
    2070:	09 95       	icall
	return result;
    2072:	71 2f       	mov	r23, r17
    2074:	7f 71       	andi	r23, 0x1F	; 31
}
    2076:	6e 2d       	mov	r22, r14
    2078:	8f 2d       	mov	r24, r15
    207a:	87 70       	andi	r24, 0x07	; 7
    207c:	90 2f       	mov	r25, r16
    207e:	9f 73       	andi	r25, 0x3F	; 63
    2080:	df 91       	pop	r29
    2082:	cf 91       	pop	r28
    2084:	1f 91       	pop	r17
    2086:	0f 91       	pop	r16
    2088:	ff 90       	pop	r15
    208a:	ef 90       	pop	r14
    208c:	08 95       	ret

0000208e <PCF8563RTC_bcd2dec>:
/***uint8_t PCF8563RTC_bcd2dec(uint8_t num)***/
uint8_t PCF8563RTC_bcd2dec(uint8_t num)
{
	return ((num/16 * 10) + (num % 16));
    208e:	98 2f       	mov	r25, r24
    2090:	92 95       	swap	r25
    2092:	9f 70       	andi	r25, 0x0F	; 15
    2094:	99 0f       	add	r25, r25
    2096:	29 2f       	mov	r18, r25
    2098:	22 0f       	add	r18, r18
    209a:	22 0f       	add	r18, r18
    209c:	92 0f       	add	r25, r18
    209e:	8f 70       	andi	r24, 0x0F	; 15
}
    20a0:	89 0f       	add	r24, r25
    20a2:	08 95       	ret

000020a4 <PCF8563RTC_bintobcd>:
/***uint8_t PCF8563RTC_bintobcd(uint8_t bin)***/
uint8_t PCF8563RTC_bintobcd(uint8_t bin)
{
	return (((bin) / 10) << 4) + ((bin) % 10);
    20a4:	9d ec       	ldi	r25, 0xCD	; 205
    20a6:	89 9f       	mul	r24, r25
    20a8:	91 2d       	mov	r25, r1
    20aa:	11 24       	eor	r1, r1
    20ac:	96 95       	lsr	r25
    20ae:	96 95       	lsr	r25
    20b0:	96 95       	lsr	r25
    20b2:	39 2f       	mov	r19, r25
    20b4:	33 0f       	add	r19, r19
    20b6:	23 2f       	mov	r18, r19
    20b8:	22 0f       	add	r18, r18
    20ba:	22 0f       	add	r18, r18
    20bc:	23 0f       	add	r18, r19
    20be:	82 1b       	sub	r24, r18
}
    20c0:	20 e1       	ldi	r18, 0x10	; 16
    20c2:	92 9f       	mul	r25, r18
    20c4:	80 0d       	add	r24, r0
    20c6:	11 24       	eor	r1, r1
    20c8:	08 95       	ret

000020ca <PCF8563RTC_Init>:
	SREG=tSREG;
	return pcf;
}
/***void PCF8563RTC_Init(uint8_t prescaler)***/
void PCF8563RTC_Init(void)
{
    20ca:	cf 93       	push	r28
    20cc:	df 93       	push	r29
	i2c.Start();							// Start I2C communication
    20ce:	c0 eb       	ldi	r28, 0xB0	; 176
    20d0:	d2 e0       	ldi	r29, 0x02	; 2
    20d2:	e8 81       	ld	r30, Y
    20d4:	f9 81       	ldd	r31, Y+1	; 0x01
    20d6:	09 95       	icall
	i2c.Write(PCF8563WriteMode_U8);			// Connect to PCF8563 by sending its ID on I2c Bus
    20d8:	ec 81       	ldd	r30, Y+4	; 0x04
    20da:	fd 81       	ldd	r31, Y+5	; 0x05
    20dc:	82 ea       	ldi	r24, 0xA2	; 162
    20de:	09 95       	icall
	i2c.Write(PCF8563ControlRegAddress_U8);	// Select the PCF8563 ControlRegister to configure PCF8563
    20e0:	ec 81       	ldd	r30, Y+4	; 0x04
    20e2:	fd 81       	ldd	r31, Y+5	; 0x05
    20e4:	80 e0       	ldi	r24, 0x00	; 0
    20e6:	09 95       	icall
	i2c.Write(0x00);						// Write 0x00 to Control register to disable SQW-Out
    20e8:	ec 81       	ldd	r30, Y+4	; 0x04
    20ea:	fd 81       	ldd	r31, Y+5	; 0x05
    20ec:	80 e0       	ldi	r24, 0x00	; 0
    20ee:	09 95       	icall
	i2c.Stop();								// Stop I2C communication after initializing PCF8563
    20f0:	ea 81       	ldd	r30, Y+2	; 0x02
    20f2:	fb 81       	ldd	r31, Y+3	; 0x03
    20f4:	09 95       	icall
}
    20f6:	df 91       	pop	r29
    20f8:	cf 91       	pop	r28
    20fa:	08 95       	ret

000020fc <PCF8563RTCenable>:
struct date PCF8563RTC_GetDate(void);
uint8_t PCF8563RTC_bcd2dec(uint8_t num);
uint8_t PCF8563RTC_bintobcd(uint8_t bin);
/***PCF8563RTC PCF8563RTCenable(uint8_t prescaler)***/
PCF8563RTC PCF8563RTCenable(uint8_t prescaler)
{
    20fc:	ff 92       	push	r15
    20fe:	0f 93       	push	r16
    2100:	1f 93       	push	r17
    2102:	cf 93       	push	r28
    2104:	df 93       	push	r29
    2106:	cd b7       	in	r28, 0x3d	; 61
    2108:	de b7       	in	r29, 0x3e	; 62
    210a:	2a 97       	sbiw	r28, 0x0a	; 10
    210c:	0f b6       	in	r0, 0x3f	; 63
    210e:	f8 94       	cli
    2110:	de bf       	out	0x3e, r29	; 62
    2112:	0f be       	out	0x3f, r0	; 63
    2114:	cd bf       	out	0x3d, r28	; 61
    2116:	8c 01       	movw	r16, r24
	uint8_t tSREG;
	tSREG=SREG;
    2118:	ff b6       	in	r15, 0x3f	; 63
	SREG&=~(1<<GLOBAL_INTERRUPT_ENABLE);
    211a:	8f b7       	in	r24, 0x3f	; 63
    211c:	8f 77       	andi	r24, 0x7F	; 127
    211e:	8f bf       	out	0x3f, r24	; 63
	PCF8563RTC pcf;
	i2c = I2Cenable(prescaler);  			// Initialize the I2c module.
    2120:	ce 01       	movw	r24, r28
    2122:	01 96       	adiw	r24, 0x01	; 1
    2124:	39 d9       	rcall	.-3470   	; 0x1398 <I2Cenable>
    2126:	8a e0       	ldi	r24, 0x0A	; 10
    2128:	fe 01       	movw	r30, r28
    212a:	31 96       	adiw	r30, 0x01	; 1
    212c:	a0 eb       	ldi	r26, 0xB0	; 176
    212e:	b2 e0       	ldi	r27, 0x02	; 2
    2130:	01 90       	ld	r0, Z+
    2132:	0d 92       	st	X+, r0
    2134:	8a 95       	dec	r24
    2136:	e1 f7       	brne	.-8      	; 0x2130 <PCF8563RTCenable+0x34>
	PCF8563RTC_Init();                      //Initialize RTC
    2138:	c8 df       	rcall	.-112    	; 0x20ca <PCF8563RTC_Init>
    213a:	ff be       	out	0x3f, r15	; 63
	pcf.GetTime=PCF8563RTC_GetTime;
	pcf.GetDate=PCF8563RTC_GetDate;
	pcf.bcd2dec=PCF8563RTC_bcd2dec;
	pcf.bintobcd=PCF8563RTC_bintobcd;
	/******/
	SREG=tSREG;
    213c:	8a e8       	ldi	r24, 0x8A	; 138
	return pcf;
    213e:	9e e0       	ldi	r25, 0x0E	; 14
    2140:	f8 01       	movw	r30, r16
    2142:	91 83       	std	Z+1, r25	; 0x01
    2144:	80 83       	st	Z, r24
    2146:	84 eb       	ldi	r24, 0xB4	; 180
    2148:	9e e0       	ldi	r25, 0x0E	; 14
    214a:	93 83       	std	Z+3, r25	; 0x03
    214c:	82 83       	std	Z+2, r24	; 0x02
    214e:	80 ed       	ldi	r24, 0xD0	; 208
    2150:	9e e0       	ldi	r25, 0x0E	; 14
    2152:	95 83       	std	Z+5, r25	; 0x05
    2154:	84 83       	std	Z+4, r24	; 0x04
    2156:	8c ee       	ldi	r24, 0xEC	; 236
    2158:	9e e0       	ldi	r25, 0x0E	; 14
    215a:	97 83       	std	Z+7, r25	; 0x07
    215c:	86 83       	std	Z+6, r24	; 0x06
    215e:	88 e0       	ldi	r24, 0x08	; 8
    2160:	9f e0       	ldi	r25, 0x0F	; 15
    2162:	91 87       	std	Z+9, r25	; 0x09
    2164:	80 87       	std	Z+8, r24	; 0x08
    2166:	8a e2       	ldi	r24, 0x2A	; 42
    2168:	9f e0       	ldi	r25, 0x0F	; 15
    216a:	93 87       	std	Z+11, r25	; 0x0b
    216c:	82 87       	std	Z+10, r24	; 0x0a
    216e:	8f ea       	ldi	r24, 0xAF	; 175
    2170:	9f e0       	ldi	r25, 0x0F	; 15
    2172:	95 87       	std	Z+13, r25	; 0x0d
    2174:	84 87       	std	Z+12, r24	; 0x0c
    2176:	83 e9       	ldi	r24, 0x93	; 147
    2178:	9f e0       	ldi	r25, 0x0F	; 15
    217a:	97 87       	std	Z+15, r25	; 0x0f
    217c:	86 87       	std	Z+14, r24	; 0x0e
    217e:	87 e7       	ldi	r24, 0x77	; 119
    2180:	9f e0       	ldi	r25, 0x0F	; 15
    2182:	91 8b       	std	Z+17, r25	; 0x11
    2184:	80 8b       	std	Z+16, r24	; 0x10
    2186:	8b e5       	ldi	r24, 0x5B	; 91
    2188:	9f e0       	ldi	r25, 0x0F	; 15
    218a:	93 8b       	std	Z+19, r25	; 0x13
    218c:	82 8b       	std	Z+18, r24	; 0x12
    218e:	8b ec       	ldi	r24, 0xCB	; 203
    2190:	9f e0       	ldi	r25, 0x0F	; 15
    2192:	95 8b       	std	Z+21, r25	; 0x15
    2194:	84 8b       	std	Z+20, r24	; 0x14
    2196:	85 e0       	ldi	r24, 0x05	; 5
    2198:	90 e1       	ldi	r25, 0x10	; 16
    219a:	97 8b       	std	Z+23, r25	; 0x17
    219c:	86 8b       	std	Z+22, r24	; 0x16
    219e:	87 e4       	ldi	r24, 0x47	; 71
    21a0:	90 e1       	ldi	r25, 0x10	; 16
    21a2:	91 8f       	std	Z+25, r25	; 0x19
    21a4:	80 8f       	std	Z+24, r24	; 0x18
    21a6:	82 e5       	ldi	r24, 0x52	; 82
    21a8:	90 e1       	ldi	r25, 0x10	; 16
    21aa:	93 8f       	std	Z+27, r25	; 0x1b
    21ac:	82 8f       	std	Z+26, r24	; 0x1a
    21ae:	c8 01       	movw	r24, r16
}
    21b0:	2a 96       	adiw	r28, 0x0a	; 10
    21b2:	0f b6       	in	r0, 0x3f	; 63
    21b4:	f8 94       	cli
    21b6:	de bf       	out	0x3e, r29	; 62
    21b8:	0f be       	out	0x3f, r0	; 63
    21ba:	cd bf       	out	0x3d, r28	; 61
    21bc:	df 91       	pop	r29
    21be:	cf 91       	pop	r28
    21c0:	1f 91       	pop	r17
    21c2:	0f 91       	pop	r16
    21c4:	ff 90       	pop	r15
    21c6:	08 95       	ret

000021c8 <PORTINIT>:
** procedure and function
*/
void PORTINIT()
{
	//INPUT
	DDRF=0x00;
    21c8:	10 92 61 00 	sts	0x0061, r1	; 0x800061 <__TEXT_REGION_LENGTH__+0x7e0061>
	PORTF=0x0F;
    21cc:	8f e0       	ldi	r24, 0x0F	; 15
    21ce:	80 93 62 00 	sts	0x0062, r24	; 0x800062 <__TEXT_REGION_LENGTH__+0x7e0062>
	//OUTPUT
	DDRB|=(1<<5) | (1<<6) | (1<<7);
    21d2:	87 b3       	in	r24, 0x17	; 23
    21d4:	80 6e       	ori	r24, 0xE0	; 224
    21d6:	87 bb       	out	0x17, r24	; 23
    21d8:	08 95       	ret

000021da <main>:
** Header
*/
void PORTINIT();
/****MAIN****/
int main(void)
{
    21da:	cf 93       	push	r28
    21dc:	df 93       	push	r29
    21de:	cd b7       	in	r28, 0x3d	; 61
    21e0:	de b7       	in	r29, 0x3e	; 62
    21e2:	c6 55       	subi	r28, 0x56	; 86
    21e4:	d1 40       	sbci	r29, 0x01	; 1
    21e6:	0f b6       	in	r0, 0x3f	; 63
    21e8:	f8 94       	cli
    21ea:	de bf       	out	0x3e, r29	; 62
    21ec:	0f be       	out	0x3f, r0	; 63
    21ee:	cd bf       	out	0x3d, r28	; 61
	PORTINIT();
    21f0:	eb df       	rcall	.-42     	; 0x21c8 <PORTINIT>
	/***INICIALIZE OBJECTS***/
	FUNC function= FUNCenable();
    21f2:	ce 01       	movw	r24, r28
    21f4:	89 56       	subi	r24, 0x69	; 105
    21f6:	9f 4f       	sbci	r25, 0xFF	; 255
    21f8:	0e 94 84 08 	call	0x1108	; 0x1108 <FUNCenable>
    21fc:	c7 54       	subi	r28, 0x47	; 71
    21fe:	df 4f       	sbci	r29, 0xFF	; 255
    2200:	88 81       	ld	r24, Y
    2202:	99 81       	ldd	r25, Y+1	; 0x01
    2204:	c9 5b       	subi	r28, 0xB9	; 185
    2206:	d0 40       	sbci	r29, 0x00	; 0
    2208:	ce 5b       	subi	r28, 0xBE	; 190
    220a:	de 4f       	sbci	r29, 0xFE	; 254
    220c:	99 83       	std	Y+1, r25	; 0x01
    220e:	88 83       	st	Y, r24
    2210:	c2 54       	subi	r28, 0x42	; 66
    2212:	d1 40       	sbci	r29, 0x01	; 1
    2214:	cd 53       	subi	r28, 0x3D	; 61
    2216:	df 4f       	sbci	r29, 0xFF	; 255
    2218:	a8 81       	ld	r26, Y
    221a:	b9 81       	ldd	r27, Y+1	; 0x01
    221c:	c3 5c       	subi	r28, 0xC3	; 195
    221e:	d0 40       	sbci	r29, 0x00	; 0
    2220:	cd 5a       	subi	r28, 0xAD	; 173
    2222:	de 4f       	sbci	r29, 0xFE	; 254
    2224:	b9 83       	std	Y+1, r27	; 0x01
    2226:	a8 83       	st	Y, r26
    2228:	c3 55       	subi	r28, 0x53	; 83
    222a:	d1 40       	sbci	r29, 0x01	; 1
    222c:	cb 52       	subi	r28, 0x2B	; 43
    222e:	df 4f       	sbci	r29, 0xFF	; 255
    2230:	e8 81       	ld	r30, Y
    2232:	f9 81       	ldd	r31, Y+1	; 0x01
    2234:	c5 5d       	subi	r28, 0xD5	; 213
    2236:	d0 40       	sbci	r29, 0x00	; 0
    2238:	c8 5b       	subi	r28, 0xB8	; 184
    223a:	de 4f       	sbci	r29, 0xFE	; 254
    223c:	f9 83       	std	Y+1, r31	; 0x01
    223e:	e8 83       	st	Y, r30
    2240:	c8 54       	subi	r28, 0x48	; 72
    2242:	d1 40       	sbci	r29, 0x01	; 1
	LCD0 lcd0 = LCD0enable(&DDRA,&PINA,&PORTA);
    2244:	2b e3       	ldi	r18, 0x3B	; 59
    2246:	30 e0       	ldi	r19, 0x00	; 0
    2248:	49 e3       	ldi	r20, 0x39	; 57
    224a:	50 e0       	ldi	r21, 0x00	; 0
    224c:	6a e3       	ldi	r22, 0x3A	; 58
    224e:	70 e0       	ldi	r23, 0x00	; 0
    2250:	ce 01       	movw	r24, r28
    2252:	8f 51       	subi	r24, 0x1F	; 31
    2254:	9f 4f       	sbci	r25, 0xFF	; 255
    2256:	f6 dc       	rcall	.-1556   	; 0x1c44 <LCD0enable>
    2258:	c9 51       	subi	r28, 0x19	; 25
    225a:	df 4f       	sbci	r29, 0xFF	; 255
    225c:	88 81       	ld	r24, Y
    225e:	99 81       	ldd	r25, Y+1	; 0x01
    2260:	c7 5e       	subi	r28, 0xE7	; 231
    2262:	d0 40       	sbci	r29, 0x00	; 0
    2264:	ca 5b       	subi	r28, 0xBA	; 186
    2266:	de 4f       	sbci	r29, 0xFE	; 254
    2268:	99 83       	std	Y+1, r25	; 0x01
    226a:	88 83       	st	Y, r24
    226c:	c6 54       	subi	r28, 0x46	; 70
    226e:	d1 40       	sbci	r29, 0x01	; 1
    2270:	c3 51       	subi	r28, 0x13	; 19
    2272:	df 4f       	sbci	r29, 0xFF	; 255
    2274:	68 80       	ld	r6, Y
    2276:	79 80       	ldd	r7, Y+1	; 0x01
    2278:	cd 5e       	subi	r28, 0xED	; 237
    227a:	d0 40       	sbci	r29, 0x00	; 0
    227c:	cf 50       	subi	r28, 0x0F	; 15
    227e:	df 4f       	sbci	r29, 0xFF	; 255
    2280:	a8 81       	ld	r26, Y
    2282:	b9 81       	ldd	r27, Y+1	; 0x01
    2284:	c1 5f       	subi	r28, 0xF1	; 241
    2286:	d0 40       	sbci	r29, 0x00	; 0
    2288:	c0 5c       	subi	r28, 0xC0	; 192
    228a:	de 4f       	sbci	r29, 0xFE	; 254
    228c:	b9 83       	std	Y+1, r27	; 0x01
    228e:	a8 83       	st	Y, r26
    2290:	c0 54       	subi	r28, 0x40	; 64
    2292:	d1 40       	sbci	r29, 0x01	; 1
    2294:	cd 50       	subi	r28, 0x0D	; 13
    2296:	df 4f       	sbci	r29, 0xFF	; 255
    2298:	28 80       	ld	r2, Y
    229a:	39 80       	ldd	r3, Y+1	; 0x01
    229c:	c3 5f       	subi	r28, 0xF3	; 243
    229e:	d0 40       	sbci	r29, 0x00	; 0
	KEYPAD keypad = KEYPADenable(&DDRE,&PINE,&PORTE);
    22a0:	43 e2       	ldi	r20, 0x23	; 35
    22a2:	50 e0       	ldi	r21, 0x00	; 0
    22a4:	61 e2       	ldi	r22, 0x21	; 33
    22a6:	70 e0       	ldi	r23, 0x00	; 0
    22a8:	82 e2       	ldi	r24, 0x22	; 34
    22aa:	90 e0       	ldi	r25, 0x00	; 0
    22ac:	4c da       	rcall	.-2920   	; 0x1746 <KEYPADenable>
    22ae:	c7 50       	subi	r28, 0x07	; 7
    22b0:	df 4f       	sbci	r29, 0xFF	; 255
    22b2:	48 83       	st	Y, r20
    22b4:	c9 5f       	subi	r28, 0xF9	; 249
    22b6:	d0 40       	sbci	r29, 0x00	; 0
    22b8:	c6 50       	subi	r28, 0x06	; 6
    22ba:	df 4f       	sbci	r29, 0xFF	; 255
    22bc:	58 83       	st	Y, r21
    22be:	ca 5f       	subi	r28, 0xFA	; 250
    22c0:	d0 40       	sbci	r29, 0x00	; 0
    22c2:	c5 50       	subi	r28, 0x05	; 5
    22c4:	df 4f       	sbci	r29, 0xFF	; 255
    22c6:	68 83       	st	Y, r22
    22c8:	cb 5f       	subi	r28, 0xFB	; 251
    22ca:	d0 40       	sbci	r29, 0x00	; 0
    22cc:	c4 50       	subi	r28, 0x04	; 4
    22ce:	df 4f       	sbci	r29, 0xFF	; 255
    22d0:	78 83       	st	Y, r23
    22d2:	cc 5f       	subi	r28, 0xFC	; 252
    22d4:	d0 40       	sbci	r29, 0x00	; 0
    22d6:	c3 50       	subi	r28, 0x03	; 3
    22d8:	df 4f       	sbci	r29, 0xFF	; 255
    22da:	88 83       	st	Y, r24
    22dc:	cd 5f       	subi	r28, 0xFD	; 253
    22de:	d0 40       	sbci	r29, 0x00	; 0
    22e0:	c2 50       	subi	r28, 0x02	; 2
    22e2:	df 4f       	sbci	r29, 0xFF	; 255
    22e4:	98 83       	st	Y, r25
    22e6:	ce 5f       	subi	r28, 0xFE	; 254
    22e8:	d0 40       	sbci	r29, 0x00	; 0
    22ea:	c5 50       	subi	r28, 0x05	; 5
    22ec:	df 4f       	sbci	r29, 0xFF	; 255
    22ee:	88 80       	ld	r8, Y
    22f0:	99 80       	ldd	r9, Y+1	; 0x01
    22f2:	cb 5f       	subi	r28, 0xFB	; 251
    22f4:	d0 40       	sbci	r29, 0x00	; 0
    22f6:	c3 50       	subi	r28, 0x03	; 3
    22f8:	df 4f       	sbci	r29, 0xFF	; 255
    22fa:	e8 81       	ld	r30, Y
    22fc:	f9 81       	ldd	r31, Y+1	; 0x01
    22fe:	cd 5f       	subi	r28, 0xFD	; 253
    2300:	d0 40       	sbci	r29, 0x00	; 0
    2302:	c2 5c       	subi	r28, 0xC2	; 194
    2304:	de 4f       	sbci	r29, 0xFE	; 254
    2306:	f9 83       	std	Y+1, r31	; 0x01
    2308:	e8 83       	st	Y, r30
    230a:	ce 53       	subi	r28, 0x3E	; 62
    230c:	d1 40       	sbci	r29, 0x01	; 1
	ANALOG analog = ANALOGenable(1, 128, 1, 0); // channel 0 for position
    230e:	1f 92       	push	r1
    2310:	1f 92       	push	r1
    2312:	1f 92       	push	r1
    2314:	81 e0       	ldi	r24, 0x01	; 1
    2316:	8f 93       	push	r24
    2318:	90 e8       	ldi	r25, 0x80	; 128
    231a:	9f 93       	push	r25
    231c:	8f 93       	push	r24
    231e:	0e 94 92 00 	call	0x124	; 0x124 <ANALOGenable>
    2322:	c3 5b       	subi	r28, 0xB3	; 179
    2324:	de 4f       	sbci	r29, 0xFE	; 254
    2326:	68 83       	st	Y, r22
    2328:	79 83       	std	Y+1, r23	; 0x01
    232a:	8a 83       	std	Y+2, r24	; 0x02
    232c:	9b 83       	std	Y+3, r25	; 0x03
    232e:	cd 54       	subi	r28, 0x4D	; 77
    2330:	d1 40       	sbci	r29, 0x01	; 1
	TIMER_COUNTER1 timer1 = TIMER_COUNTER1enable(9,0); // PWM positioning
    2332:	40 e0       	ldi	r20, 0x00	; 0
    2334:	69 e0       	ldi	r22, 0x09	; 9
    2336:	ce 01       	movw	r24, r28
    2338:	81 50       	subi	r24, 0x01	; 1
    233a:	9f 4f       	sbci	r25, 0xFF	; 255
    233c:	0e 94 46 02 	call	0x48c	; 0x48c <TIMER_COUNTER1enable>
    2340:	c9 5f       	subi	r28, 0xF9	; 249
    2342:	de 4f       	sbci	r29, 0xFE	; 254
    2344:	88 81       	ld	r24, Y
    2346:	99 81       	ldd	r25, Y+1	; 0x01
    2348:	c7 50       	subi	r28, 0x07	; 7
    234a:	d1 40       	sbci	r29, 0x01	; 1
    234c:	c6 5b       	subi	r28, 0xB6	; 182
    234e:	de 4f       	sbci	r29, 0xFE	; 254
    2350:	99 83       	std	Y+1, r25	; 0x01
    2352:	88 83       	st	Y, r24
    2354:	ca 54       	subi	r28, 0x4A	; 74
    2356:	d1 40       	sbci	r29, 0x01	; 1
	//TIMER_COUNTER3 timer3 = TIMER_COUNTER3enable(12,12);
	PCF8563RTC rtc = PCF8563RTCenable(16);
    2358:	60 e1       	ldi	r22, 0x10	; 16
    235a:	ce 01       	movw	r24, r28
    235c:	81 5f       	subi	r24, 0xF1	; 241
    235e:	9e 4f       	sbci	r25, 0xFE	; 254
    2360:	cd de       	rcall	.-614    	; 0x20fc <PCF8563RTCenable>
    2362:	c9 5d       	subi	r28, 0xD9	; 217
    2364:	de 4f       	sbci	r29, 0xFE	; 254
    2366:	a8 81       	ld	r26, Y
    2368:	b9 81       	ldd	r27, Y+1	; 0x01
    236a:	c7 52       	subi	r28, 0x27	; 39
    236c:	d1 40       	sbci	r29, 0x01	; 1
    236e:	cc 5b       	subi	r28, 0xBC	; 188
    2370:	de 4f       	sbci	r29, 0xFE	; 254
    2372:	b9 83       	std	Y+1, r27	; 0x01
    2374:	a8 83       	st	Y, r26
    2376:	c4 54       	subi	r28, 0x44	; 68
    2378:	d1 40       	sbci	r29, 0x01	; 1
    237a:	c7 5d       	subi	r28, 0xD7	; 215
    237c:	de 4f       	sbci	r29, 0xFE	; 254
    237e:	e8 81       	ld	r30, Y
    2380:	f9 81       	ldd	r31, Y+1	; 0x01
    2382:	c9 52       	subi	r28, 0x29	; 41
    2384:	d1 40       	sbci	r29, 0x01	; 1
    2386:	cb 5a       	subi	r28, 0xAB	; 171
    2388:	de 4f       	sbci	r29, 0xFE	; 254
    238a:	f9 83       	std	Y+1, r31	; 0x01
    238c:	e8 83       	st	Y, r30
    238e:	c5 55       	subi	r28, 0x55	; 85
    2390:	d1 40       	sbci	r29, 0x01	; 1
	/******/
	char Menu='1';
	int16_t adcvalue;
	char str[6]="0";
    2392:	fe 01       	movw	r30, r28
    2394:	e5 5d       	subi	r30, 0xD5	; 213
    2396:	fe 4f       	sbci	r31, 0xFE	; 254
    2398:	80 e3       	ldi	r24, 0x30	; 48
    239a:	90 e0       	ldi	r25, 0x00	; 0
    239c:	81 93       	st	Z+, r24
    239e:	91 93       	st	Z+, r25
    23a0:	84 e0       	ldi	r24, 0x04	; 4
    23a2:	df 01       	movw	r26, r30
    23a4:	1d 92       	st	X+, r1
    23a6:	8a 95       	dec	r24
    23a8:	e9 f7       	brne	.-6      	; 0x23a4 <main+0x1ca>
	int16_t mvalue=90; //inic value
	int16_t m_value;
	char mstr[6]="90";
    23aa:	89 e3       	ldi	r24, 0x39	; 57
    23ac:	90 e3       	ldi	r25, 0x30	; 48
    23ae:	cf 5c       	subi	r28, 0xCF	; 207
    23b0:	de 4f       	sbci	r29, 0xFE	; 254
    23b2:	99 83       	std	Y+1, r25	; 0x01
    23b4:	88 83       	st	Y, r24
    23b6:	c1 53       	subi	r28, 0x31	; 49
    23b8:	d1 40       	sbci	r29, 0x01	; 1
    23ba:	cd 5c       	subi	r28, 0xCD	; 205
    23bc:	de 4f       	sbci	r29, 0xFE	; 254
    23be:	19 82       	std	Y+1, r1	; 0x01
    23c0:	18 82       	st	Y, r1
    23c2:	c3 53       	subi	r28, 0x33	; 51
    23c4:	d1 40       	sbci	r29, 0x01	; 1
    23c6:	cb 5c       	subi	r28, 0xCB	; 203
    23c8:	de 4f       	sbci	r29, 0xFE	; 254
    23ca:	19 82       	std	Y+1, r1	; 0x01
    23cc:	18 82       	st	Y, r1
    23ce:	c5 53       	subi	r28, 0x35	; 53
    23d0:	d1 40       	sbci	r29, 0x01	; 1
	char tstr[6];
	char cal='0';
	uint16_t set;
	/***Parameters timers***/
	timer1.compoutmodeB(2);
    23d2:	cf 5f       	subi	r28, 0xFF	; 255
    23d4:	de 4f       	sbci	r29, 0xFE	; 254
    23d6:	e8 81       	ld	r30, Y
    23d8:	f9 81       	ldd	r31, Y+1	; 0x01
    23da:	c1 50       	subi	r28, 0x01	; 1
    23dc:	d1 40       	sbci	r29, 0x01	; 1
    23de:	82 e0       	ldi	r24, 0x02	; 2
    23e0:	09 95       	icall
	timer1.compareA(20000);
    23e2:	cb 5f       	subi	r28, 0xFB	; 251
    23e4:	de 4f       	sbci	r29, 0xFE	; 254
    23e6:	e8 81       	ld	r30, Y
    23e8:	f9 81       	ldd	r31, Y+1	; 0x01
    23ea:	c5 50       	subi	r28, 0x05	; 5
    23ec:	d1 40       	sbci	r29, 0x01	; 1
    23ee:	80 e2       	ldi	r24, 0x20	; 32
    23f0:	9e e4       	ldi	r25, 0x4E	; 78
    23f2:	09 95       	icall
	timer1.start(8);
    23f4:	c5 5f       	subi	r28, 0xF5	; 245
    23f6:	de 4f       	sbci	r29, 0xFE	; 254
    23f8:	e8 81       	ld	r30, Y
    23fa:	f9 81       	ldd	r31, Y+1	; 0x01
    23fc:	cb 50       	subi	r28, 0x0B	; 11
    23fe:	d1 40       	sbci	r29, 0x01	; 1
    2400:	88 e0       	ldi	r24, 0x08	; 8
    2402:	90 e0       	ldi	r25, 0x00	; 0
    2404:	09 95       	icall
	rtc.SetClkOut(1, 2);
    2406:	c9 5e       	subi	r28, 0xE9	; 233
    2408:	de 4f       	sbci	r29, 0xFE	; 254
    240a:	e8 81       	ld	r30, Y
    240c:	f9 81       	ldd	r31, Y+1	; 0x01
    240e:	c7 51       	subi	r28, 0x17	; 23
    2410:	d1 40       	sbci	r29, 0x01	; 1
    2412:	62 e0       	ldi	r22, 0x02	; 2
    2414:	81 e0       	ldi	r24, 0x01	; 1
    2416:	09 95       	icall
    2418:	0f 90       	pop	r0
    241a:	0f 90       	pop	r0
    241c:	0f 90       	pop	r0
    241e:	0f 90       	pop	r0
    2420:	0f 90       	pop	r0
    2422:	0f 90       	pop	r0
	char str[6]="0";
	int16_t mvalue=90; //inic value
	int16_t m_value;
	char mstr[6]="90";
	char tstr[6];
	char cal='0';
    2424:	b0 e3       	ldi	r27, 0x30	; 48
    2426:	c4 5b       	subi	r28, 0xB4	; 180
    2428:	de 4f       	sbci	r29, 0xFE	; 254
    242a:	b8 83       	st	Y, r27
    242c:	cc 54       	subi	r28, 0x4C	; 76
    242e:	d1 40       	sbci	r29, 0x01	; 1
	ANALOG analog = ANALOGenable(1, 128, 1, 0); // channel 0 for position
	TIMER_COUNTER1 timer1 = TIMER_COUNTER1enable(9,0); // PWM positioning
	//TIMER_COUNTER3 timer3 = TIMER_COUNTER3enable(12,12);
	PCF8563RTC rtc = PCF8563RTCenable(16);
	/******/
	char Menu='1';
    2430:	e1 e3       	ldi	r30, 0x31	; 49
    2432:	c3 5c       	subi	r28, 0xC3	; 195
    2434:	de 4f       	sbci	r29, 0xFE	; 254
    2436:	e8 83       	st	Y, r30
    2438:	cd 53       	subi	r28, 0x3D	; 61
    243a:	d1 40       	sbci	r29, 0x01	; 1
    243c:	06 c0       	rjmp	.+12     	; 0x244a <main+0x270>
								}
								keypad.flush();
							}
						break;
						default:
							cal='0';
    243e:	f0 e3       	ldi	r31, 0x30	; 48
    2440:	c4 5b       	subi	r28, 0xB4	; 180
    2442:	de 4f       	sbci	r29, 0xFE	; 254
    2444:	f8 83       	st	Y, r31
    2446:	cc 54       	subi	r28, 0x4C	; 76
    2448:	d1 40       	sbci	r29, 0x01	; 1
	rtc.SetClkOut(1, 2);
	/**********/
	//TODO:: Please write your application code
	while(TRUE){
		//PREAMBLE
		lcd0.reboot();
    244a:	cb 50       	subi	r28, 0x0B	; 11
    244c:	df 4f       	sbci	r29, 0xFF	; 255
    244e:	48 80       	ld	r4, Y
    2450:	59 80       	ldd	r5, Y+1	; 0x01
    2452:	c5 5f       	subi	r28, 0xF5	; 245
    2454:	d0 40       	sbci	r29, 0x00	; 0
    2456:	f2 01       	movw	r30, r4
    2458:	09 95       	icall
		keypad.read();
    245a:	c7 50       	subi	r28, 0x07	; 7
    245c:	df 4f       	sbci	r29, 0xFF	; 255
    245e:	08 81       	ld	r16, Y
    2460:	19 81       	ldd	r17, Y+1	; 0x01
    2462:	c9 5f       	subi	r28, 0xF9	; 249
    2464:	d0 40       	sbci	r29, 0x00	; 0
    2466:	f8 01       	movw	r30, r16
    2468:	09 95       	icall
		/***Entry Start***/
		lcd0.gotoxy(3,14);
    246a:	6e e0       	ldi	r22, 0x0E	; 14
    246c:	70 e0       	ldi	r23, 0x00	; 0
    246e:	83 e0       	ldi	r24, 0x03	; 3
    2470:	90 e0       	ldi	r25, 0x00	; 0
    2472:	f1 01       	movw	r30, r2
    2474:	09 95       	icall
		lcd0.string_size(keypad.get().printstring,6);
    2476:	f4 01       	movw	r30, r8
    2478:	09 95       	icall
    247a:	cd 56       	subi	r28, 0x6D	; 109
    247c:	df 4f       	sbci	r29, 0xFF	; 255
    247e:	38 83       	st	Y, r19
    2480:	c3 59       	subi	r28, 0x93	; 147
    2482:	d0 40       	sbci	r29, 0x00	; 0
    2484:	cc 56       	subi	r28, 0x6C	; 108
    2486:	df 4f       	sbci	r29, 0xFF	; 255
    2488:	48 83       	st	Y, r20
    248a:	c4 59       	subi	r28, 0x94	; 148
    248c:	d0 40       	sbci	r29, 0x00	; 0
    248e:	66 e0       	ldi	r22, 0x06	; 6
    2490:	cd 56       	subi	r28, 0x6D	; 109
    2492:	df 4f       	sbci	r29, 0xFF	; 255
    2494:	88 81       	ld	r24, Y
    2496:	99 81       	ldd	r25, Y+1	; 0x01
    2498:	c3 59       	subi	r28, 0x93	; 147
    249a:	d0 40       	sbci	r29, 0x00	; 0
    249c:	f3 01       	movw	r30, r6
    249e:	09 95       	icall
		/***ENTRY END***/
		switch(Menu){
    24a0:	c3 5c       	subi	r28, 0xC3	; 195
    24a2:	de 4f       	sbci	r29, 0xFE	; 254
    24a4:	f8 81       	ld	r31, Y
    24a6:	cd 53       	subi	r28, 0x3D	; 61
    24a8:	d1 40       	sbci	r29, 0x01	; 1
    24aa:	f2 33       	cpi	r31, 0x32	; 50
    24ac:	09 f4       	brne	.+2      	; 0x24b0 <main+0x2d6>
    24ae:	83 c1       	rjmp	.+774    	; 0x27b6 <main+0x5dc>
    24b0:	f3 33       	cpi	r31, 0x33	; 51
    24b2:	09 f4       	brne	.+2      	; 0x24b6 <main+0x2dc>
    24b4:	c7 c2       	rjmp	.+1422   	; 0x2a44 <main+0x86a>
    24b6:	f1 33       	cpi	r31, 0x31	; 49
    24b8:	09 f0       	breq	.+2      	; 0x24bc <main+0x2e2>
    24ba:	36 c7       	rjmp	.+3692   	; 0x3328 <main+0x114e>
			/***MENU 1***/
			case '1': //Main Program Menu
				if(!strcmp(keypad.get().string,"A")){Menu='2';keypad.flush();lcd0.clear();}
    24bc:	f4 01       	movw	r30, r8
    24be:	09 95       	icall
    24c0:	c0 57       	subi	r28, 0x70	; 112
    24c2:	df 4f       	sbci	r29, 0xFF	; 255
    24c4:	58 83       	st	Y, r21
    24c6:	c0 59       	subi	r28, 0x90	; 144
    24c8:	d0 40       	sbci	r29, 0x00	; 0
    24ca:	cf 56       	subi	r28, 0x6F	; 111
    24cc:	df 4f       	sbci	r29, 0xFF	; 255
    24ce:	68 83       	st	Y, r22
    24d0:	c1 59       	subi	r28, 0x91	; 145
    24d2:	d0 40       	sbci	r29, 0x00	; 0
    24d4:	62 e1       	ldi	r22, 0x12	; 18
    24d6:	71 e0       	ldi	r23, 0x01	; 1
    24d8:	c0 57       	subi	r28, 0x70	; 112
    24da:	df 4f       	sbci	r29, 0xFF	; 255
    24dc:	88 81       	ld	r24, Y
    24de:	99 81       	ldd	r25, Y+1	; 0x01
    24e0:	c0 59       	subi	r28, 0x90	; 144
    24e2:	d0 40       	sbci	r29, 0x00	; 0
    24e4:	d7 d7       	rcall	.+4014   	; 0x3494 <strcmp>
    24e6:	89 2b       	or	r24, r25
    24e8:	a9 f4       	brne	.+42     	; 0x2514 <main+0x33a>
    24ea:	c2 5c       	subi	r28, 0xC2	; 194
    24ec:	de 4f       	sbci	r29, 0xFE	; 254
    24ee:	e8 81       	ld	r30, Y
    24f0:	f9 81       	ldd	r31, Y+1	; 0x01
    24f2:	ce 53       	subi	r28, 0x3E	; 62
    24f4:	d1 40       	sbci	r29, 0x01	; 1
    24f6:	09 95       	icall
    24f8:	c0 5c       	subi	r28, 0xC0	; 192
    24fa:	de 4f       	sbci	r29, 0xFE	; 254
    24fc:	e8 81       	ld	r30, Y
    24fe:	f9 81       	ldd	r31, Y+1	; 0x01
    2500:	c0 54       	subi	r28, 0x40	; 64
    2502:	d1 40       	sbci	r29, 0x01	; 1
    2504:	09 95       	icall
    2506:	f2 e3       	ldi	r31, 0x32	; 50
    2508:	c3 5c       	subi	r28, 0xC3	; 195
    250a:	de 4f       	sbci	r29, 0xFE	; 254
    250c:	f8 83       	st	Y, r31
    250e:	cd 53       	subi	r28, 0x3D	; 61
    2510:	d1 40       	sbci	r29, 0x01	; 1
    2512:	9b cf       	rjmp	.-202    	; 0x244a <main+0x270>
				else 
				if(!strcmp(keypad.get().string,"B")){Menu='3';keypad.flush();lcd0.clear();}
    2514:	f4 01       	movw	r30, r8
    2516:	09 95       	icall
    2518:	c5 57       	subi	r28, 0x75	; 117
    251a:	df 4f       	sbci	r29, 0xFF	; 255
    251c:	58 83       	st	Y, r21
    251e:	cb 58       	subi	r28, 0x8B	; 139
    2520:	d0 40       	sbci	r29, 0x00	; 0
    2522:	c4 57       	subi	r28, 0x74	; 116
    2524:	df 4f       	sbci	r29, 0xFF	; 255
    2526:	68 83       	st	Y, r22
    2528:	cc 58       	subi	r28, 0x8C	; 140
    252a:	d0 40       	sbci	r29, 0x00	; 0
    252c:	64 e1       	ldi	r22, 0x14	; 20
    252e:	71 e0       	ldi	r23, 0x01	; 1
    2530:	c5 57       	subi	r28, 0x75	; 117
    2532:	df 4f       	sbci	r29, 0xFF	; 255
    2534:	88 81       	ld	r24, Y
    2536:	99 81       	ldd	r25, Y+1	; 0x01
    2538:	cb 58       	subi	r28, 0x8B	; 139
    253a:	d0 40       	sbci	r29, 0x00	; 0
    253c:	ab d7       	rcall	.+3926   	; 0x3494 <strcmp>
    253e:	89 2b       	or	r24, r25
    2540:	a9 f4       	brne	.+42     	; 0x256c <main+0x392>
    2542:	c2 5c       	subi	r28, 0xC2	; 194
    2544:	de 4f       	sbci	r29, 0xFE	; 254
    2546:	e8 81       	ld	r30, Y
    2548:	f9 81       	ldd	r31, Y+1	; 0x01
    254a:	ce 53       	subi	r28, 0x3E	; 62
    254c:	d1 40       	sbci	r29, 0x01	; 1
    254e:	09 95       	icall
    2550:	c0 5c       	subi	r28, 0xC0	; 192
    2552:	de 4f       	sbci	r29, 0xFE	; 254
    2554:	e8 81       	ld	r30, Y
    2556:	f9 81       	ldd	r31, Y+1	; 0x01
    2558:	c0 54       	subi	r28, 0x40	; 64
    255a:	d1 40       	sbci	r29, 0x01	; 1
    255c:	09 95       	icall
    255e:	f3 e3       	ldi	r31, 0x33	; 51
    2560:	c3 5c       	subi	r28, 0xC3	; 195
    2562:	de 4f       	sbci	r29, 0xFE	; 254
    2564:	f8 83       	st	Y, r31
    2566:	cd 53       	subi	r28, 0x3D	; 61
    2568:	d1 40       	sbci	r29, 0x01	; 1
    256a:	6f cf       	rjmp	.-290    	; 0x244a <main+0x270>
				else{
					/***RTC***/
					tm=rtc.GetTime();
    256c:	cd 5d       	subi	r28, 0xDD	; 221
    256e:	de 4f       	sbci	r29, 0xFE	; 254
    2570:	e8 81       	ld	r30, Y
    2572:	f9 81       	ldd	r31, Y+1	; 0x01
    2574:	c3 52       	subi	r28, 0x23	; 35
    2576:	d1 40       	sbci	r29, 0x01	; 1
    2578:	09 95       	icall
    257a:	60 93 ba 02 	sts	0x02BA, r22	; 0x8002ba <tm>
    257e:	70 93 bb 02 	sts	0x02BB, r23	; 0x8002bb <tm+0x1>
    2582:	80 93 bc 02 	sts	0x02BC, r24	; 0x8002bc <tm+0x2>
					dt=rtc.GetDate();
    2586:	cb 5d       	subi	r28, 0xDB	; 219
    2588:	de 4f       	sbci	r29, 0xFE	; 254
    258a:	e8 81       	ld	r30, Y
    258c:	f9 81       	ldd	r31, Y+1	; 0x01
    258e:	c5 52       	subi	r28, 0x25	; 37
    2590:	d1 40       	sbci	r29, 0x01	; 1
    2592:	09 95       	icall
    2594:	60 93 bd 02 	sts	0x02BD, r22	; 0x8002bd <dt>
    2598:	70 93 be 02 	sts	0x02BE, r23	; 0x8002be <dt+0x1>
    259c:	80 93 bf 02 	sts	0x02BF, r24	; 0x8002bf <dt+0x2>
    25a0:	90 93 c0 02 	sts	0x02C0, r25	; 0x8002c0 <dt+0x3>
					/***Reading analog***/
					adcvalue=analog.read(0);
    25a4:	80 e0       	ldi	r24, 0x00	; 0
    25a6:	90 e0       	ldi	r25, 0x00	; 0
    25a8:	c1 5b       	subi	r28, 0xB1	; 177
    25aa:	de 4f       	sbci	r29, 0xFE	; 254
    25ac:	e8 81       	ld	r30, Y
    25ae:	f9 81       	ldd	r31, Y+1	; 0x01
    25b0:	cf 54       	subi	r28, 0x4F	; 79
    25b2:	d1 40       	sbci	r29, 0x01	; 1
    25b4:	09 95       	icall
    25b6:	2c 01       	movw	r4, r24
					/***Set Position***/
					timer1.compareB(function.trimmer(adcvalue,0,1023,Min,Max));
    25b8:	bc 01       	movw	r22, r24
    25ba:	99 0f       	add	r25, r25
    25bc:	88 0b       	sbc	r24, r24
    25be:	99 0b       	sbc	r25, r25
    25c0:	1f 92       	push	r1
    25c2:	1f 92       	push	r1
    25c4:	29 e0       	ldi	r18, 0x09	; 9
    25c6:	2f 93       	push	r18
    25c8:	2e e2       	ldi	r18, 0x2E	; 46
    25ca:	2f 93       	push	r18
    25cc:	0f 2e       	mov	r0, r31
    25ce:	f4 ef       	ldi	r31, 0xF4	; 244
    25d0:	af 2e       	mov	r10, r31
    25d2:	bb 24       	eor	r11, r11
    25d4:	b3 94       	inc	r11
    25d6:	c1 2c       	mov	r12, r1
    25d8:	d1 2c       	mov	r13, r1
    25da:	f0 2d       	mov	r31, r0
    25dc:	ee 24       	eor	r14, r14
    25de:	ea 94       	dec	r14
    25e0:	13 e0       	ldi	r17, 0x03	; 3
    25e2:	f1 2e       	mov	r15, r17
    25e4:	00 e0       	ldi	r16, 0x00	; 0
    25e6:	10 e0       	ldi	r17, 0x00	; 0
    25e8:	20 e0       	ldi	r18, 0x00	; 0
    25ea:	30 e0       	ldi	r19, 0x00	; 0
    25ec:	a9 01       	movw	r20, r18
    25ee:	c8 5b       	subi	r28, 0xB8	; 184
    25f0:	de 4f       	sbci	r29, 0xFE	; 254
    25f2:	e8 81       	ld	r30, Y
    25f4:	f9 81       	ldd	r31, Y+1	; 0x01
    25f6:	c8 54       	subi	r28, 0x48	; 72
    25f8:	d1 40       	sbci	r29, 0x01	; 1
    25fa:	09 95       	icall
    25fc:	cb 01       	movw	r24, r22
    25fe:	c6 5b       	subi	r28, 0xB6	; 182
    2600:	de 4f       	sbci	r29, 0xFE	; 254
    2602:	e8 81       	ld	r30, Y
    2604:	f9 81       	ldd	r31, Y+1	; 0x01
    2606:	ca 54       	subi	r28, 0x4A	; 74
    2608:	d1 40       	sbci	r29, 0x01	; 1
    260a:	09 95       	icall
					lcd0.gotoxy(0,0);
    260c:	60 e0       	ldi	r22, 0x00	; 0
    260e:	70 e0       	ldi	r23, 0x00	; 0
    2610:	80 e0       	ldi	r24, 0x00	; 0
    2612:	90 e0       	ldi	r25, 0x00	; 0
    2614:	f1 01       	movw	r30, r2
    2616:	09 95       	icall
					lcd0.string_size("Sense: ",7);
    2618:	67 e0       	ldi	r22, 0x07	; 7
    261a:	86 e1       	ldi	r24, 0x16	; 22
    261c:	91 e0       	ldi	r25, 0x01	; 1
    261e:	f3 01       	movw	r30, r6
    2620:	09 95       	icall
					//lcd0.hspace(1);
					strcpy(str,function.i16toa(adcvalue));
    2622:	c9 54       	subi	r28, 0x49	; 73
    2624:	df 4f       	sbci	r29, 0xFF	; 255
    2626:	e8 81       	ld	r30, Y
    2628:	f9 81       	ldd	r31, Y+1	; 0x01
    262a:	c7 5b       	subi	r28, 0xB7	; 183
    262c:	d0 40       	sbci	r29, 0x00	; 0
    262e:	c2 01       	movw	r24, r4
    2630:	09 95       	icall
    2632:	bc 01       	movw	r22, r24
    2634:	ce 01       	movw	r24, r28
    2636:	85 5d       	subi	r24, 0xD5	; 213
    2638:	9e 4f       	sbci	r25, 0xFE	; 254
    263a:	35 d7       	rcall	.+3690   	; 0x34a6 <strcpy>
					lcd0.string_size(str,4);
    263c:	64 e0       	ldi	r22, 0x04	; 4
    263e:	ce 01       	movw	r24, r28
    2640:	85 5d       	subi	r24, 0xD5	; 213
    2642:	9e 4f       	sbci	r25, 0xFE	; 254
    2644:	f3 01       	movw	r30, r6
    2646:	09 95       	icall
					lcd0.gotoxy(0,12);
    2648:	6c e0       	ldi	r22, 0x0C	; 12
    264a:	70 e0       	ldi	r23, 0x00	; 0
    264c:	80 e0       	ldi	r24, 0x00	; 0
    264e:	90 e0       	ldi	r25, 0x00	; 0
    2650:	f1 01       	movw	r30, r2
    2652:	09 95       	icall
					lcd0.string_size(function.ui16toa(rtc.bcd2dec(dt.days)),2);
    2654:	0d eb       	ldi	r16, 0xBD	; 189
    2656:	12 e0       	ldi	r17, 0x02	; 2
    2658:	d8 01       	movw	r26, r16
    265a:	13 96       	adiw	r26, 0x03	; 3
    265c:	8c 91       	ld	r24, X
    265e:	cc 5b       	subi	r28, 0xBC	; 188
    2660:	de 4f       	sbci	r29, 0xFE	; 254
    2662:	e8 81       	ld	r30, Y
    2664:	f9 81       	ldd	r31, Y+1	; 0x01
    2666:	c4 54       	subi	r28, 0x44	; 68
    2668:	d1 40       	sbci	r29, 0x01	; 1
    266a:	09 95       	icall
    266c:	90 e0       	ldi	r25, 0x00	; 0
    266e:	ce 5b       	subi	r28, 0xBE	; 190
    2670:	de 4f       	sbci	r29, 0xFE	; 254
    2672:	e8 81       	ld	r30, Y
    2674:	f9 81       	ldd	r31, Y+1	; 0x01
    2676:	c2 54       	subi	r28, 0x42	; 66
    2678:	d1 40       	sbci	r29, 0x01	; 1
    267a:	09 95       	icall
    267c:	62 e0       	ldi	r22, 0x02	; 2
    267e:	f3 01       	movw	r30, r6
    2680:	09 95       	icall
					lcd0.putch(':');
    2682:	8a e3       	ldi	r24, 0x3A	; 58
    2684:	ca 5b       	subi	r28, 0xBA	; 186
    2686:	de 4f       	sbci	r29, 0xFE	; 254
    2688:	e8 81       	ld	r30, Y
    268a:	f9 81       	ldd	r31, Y+1	; 0x01
    268c:	c6 54       	subi	r28, 0x46	; 70
    268e:	d1 40       	sbci	r29, 0x01	; 1
    2690:	09 95       	icall
					lcd0.string_size(function.ui16toa(rtc.bcd2dec(dt.century_months)),2);
    2692:	d8 01       	movw	r26, r16
    2694:	11 96       	adiw	r26, 0x01	; 1
    2696:	8c 91       	ld	r24, X
    2698:	cc 5b       	subi	r28, 0xBC	; 188
    269a:	de 4f       	sbci	r29, 0xFE	; 254
    269c:	e8 81       	ld	r30, Y
    269e:	f9 81       	ldd	r31, Y+1	; 0x01
    26a0:	c4 54       	subi	r28, 0x44	; 68
    26a2:	d1 40       	sbci	r29, 0x01	; 1
    26a4:	09 95       	icall
    26a6:	90 e0       	ldi	r25, 0x00	; 0
    26a8:	ce 5b       	subi	r28, 0xBE	; 190
    26aa:	de 4f       	sbci	r29, 0xFE	; 254
    26ac:	e8 81       	ld	r30, Y
    26ae:	f9 81       	ldd	r31, Y+1	; 0x01
    26b0:	c2 54       	subi	r28, 0x42	; 66
    26b2:	d1 40       	sbci	r29, 0x01	; 1
    26b4:	09 95       	icall
    26b6:	62 e0       	ldi	r22, 0x02	; 2
    26b8:	f3 01       	movw	r30, r6
    26ba:	09 95       	icall
					lcd0.putch(':');
    26bc:	8a e3       	ldi	r24, 0x3A	; 58
    26be:	ca 5b       	subi	r28, 0xBA	; 186
    26c0:	de 4f       	sbci	r29, 0xFE	; 254
    26c2:	e8 81       	ld	r30, Y
    26c4:	f9 81       	ldd	r31, Y+1	; 0x01
    26c6:	c6 54       	subi	r28, 0x46	; 70
    26c8:	d1 40       	sbci	r29, 0x01	; 1
    26ca:	09 95       	icall
					lcd0.string_size(function.ui16toa(rtc.bcd2dec(dt.years)),2);
    26cc:	d8 01       	movw	r26, r16
    26ce:	8c 91       	ld	r24, X
    26d0:	cc 5b       	subi	r28, 0xBC	; 188
    26d2:	de 4f       	sbci	r29, 0xFE	; 254
    26d4:	e8 81       	ld	r30, Y
    26d6:	f9 81       	ldd	r31, Y+1	; 0x01
    26d8:	c4 54       	subi	r28, 0x44	; 68
    26da:	d1 40       	sbci	r29, 0x01	; 1
    26dc:	09 95       	icall
    26de:	90 e0       	ldi	r25, 0x00	; 0
    26e0:	ce 5b       	subi	r28, 0xBE	; 190
    26e2:	de 4f       	sbci	r29, 0xFE	; 254
    26e4:	e8 81       	ld	r30, Y
    26e6:	f9 81       	ldd	r31, Y+1	; 0x01
    26e8:	c2 54       	subi	r28, 0x42	; 66
    26ea:	d1 40       	sbci	r29, 0x01	; 1
    26ec:	09 95       	icall
    26ee:	62 e0       	ldi	r22, 0x02	; 2
    26f0:	f3 01       	movw	r30, r6
    26f2:	09 95       	icall
					lcd0.gotoxy(1,12);
    26f4:	6c e0       	ldi	r22, 0x0C	; 12
    26f6:	70 e0       	ldi	r23, 0x00	; 0
    26f8:	81 e0       	ldi	r24, 0x01	; 1
    26fa:	90 e0       	ldi	r25, 0x00	; 0
    26fc:	f1 01       	movw	r30, r2
    26fe:	09 95       	icall
					lcd0.string_size(function.ui16toa(rtc.bcd2dec(tm.hours)),2);
    2700:	0a eb       	ldi	r16, 0xBA	; 186
    2702:	12 e0       	ldi	r17, 0x02	; 2
    2704:	d8 01       	movw	r26, r16
    2706:	8c 91       	ld	r24, X
    2708:	cc 5b       	subi	r28, 0xBC	; 188
    270a:	de 4f       	sbci	r29, 0xFE	; 254
    270c:	e8 81       	ld	r30, Y
    270e:	f9 81       	ldd	r31, Y+1	; 0x01
    2710:	c4 54       	subi	r28, 0x44	; 68
    2712:	d1 40       	sbci	r29, 0x01	; 1
    2714:	09 95       	icall
    2716:	90 e0       	ldi	r25, 0x00	; 0
    2718:	ce 5b       	subi	r28, 0xBE	; 190
    271a:	de 4f       	sbci	r29, 0xFE	; 254
    271c:	e8 81       	ld	r30, Y
    271e:	f9 81       	ldd	r31, Y+1	; 0x01
    2720:	c2 54       	subi	r28, 0x42	; 66
    2722:	d1 40       	sbci	r29, 0x01	; 1
    2724:	09 95       	icall
    2726:	62 e0       	ldi	r22, 0x02	; 2
    2728:	f3 01       	movw	r30, r6
    272a:	09 95       	icall
					lcd0.putch(':');
    272c:	8a e3       	ldi	r24, 0x3A	; 58
    272e:	ca 5b       	subi	r28, 0xBA	; 186
    2730:	de 4f       	sbci	r29, 0xFE	; 254
    2732:	e8 81       	ld	r30, Y
    2734:	f9 81       	ldd	r31, Y+1	; 0x01
    2736:	c6 54       	subi	r28, 0x46	; 70
    2738:	d1 40       	sbci	r29, 0x01	; 1
    273a:	09 95       	icall
					lcd0.string_size(function.ui16toa(rtc.bcd2dec(tm.minutes)),2);
    273c:	d8 01       	movw	r26, r16
    273e:	11 96       	adiw	r26, 0x01	; 1
    2740:	8c 91       	ld	r24, X
    2742:	cc 5b       	subi	r28, 0xBC	; 188
    2744:	de 4f       	sbci	r29, 0xFE	; 254
    2746:	e8 81       	ld	r30, Y
    2748:	f9 81       	ldd	r31, Y+1	; 0x01
    274a:	c4 54       	subi	r28, 0x44	; 68
    274c:	d1 40       	sbci	r29, 0x01	; 1
    274e:	09 95       	icall
    2750:	90 e0       	ldi	r25, 0x00	; 0
    2752:	ce 5b       	subi	r28, 0xBE	; 190
    2754:	de 4f       	sbci	r29, 0xFE	; 254
    2756:	e8 81       	ld	r30, Y
    2758:	f9 81       	ldd	r31, Y+1	; 0x01
    275a:	c2 54       	subi	r28, 0x42	; 66
    275c:	d1 40       	sbci	r29, 0x01	; 1
    275e:	09 95       	icall
    2760:	62 e0       	ldi	r22, 0x02	; 2
    2762:	f3 01       	movw	r30, r6
    2764:	09 95       	icall
					lcd0.putch(':');
    2766:	8a e3       	ldi	r24, 0x3A	; 58
    2768:	ca 5b       	subi	r28, 0xBA	; 186
    276a:	de 4f       	sbci	r29, 0xFE	; 254
    276c:	e8 81       	ld	r30, Y
    276e:	f9 81       	ldd	r31, Y+1	; 0x01
    2770:	c6 54       	subi	r28, 0x46	; 70
    2772:	d1 40       	sbci	r29, 0x01	; 1
    2774:	09 95       	icall
					lcd0.string_size(function.ui16toa(rtc.bcd2dec(tm.VL_seconds)),2);
    2776:	d8 01       	movw	r26, r16
    2778:	12 96       	adiw	r26, 0x02	; 2
    277a:	8c 91       	ld	r24, X
    277c:	cc 5b       	subi	r28, 0xBC	; 188
    277e:	de 4f       	sbci	r29, 0xFE	; 254
    2780:	e8 81       	ld	r30, Y
    2782:	f9 81       	ldd	r31, Y+1	; 0x01
    2784:	c4 54       	subi	r28, 0x44	; 68
    2786:	d1 40       	sbci	r29, 0x01	; 1
    2788:	09 95       	icall
    278a:	90 e0       	ldi	r25, 0x00	; 0
    278c:	ce 5b       	subi	r28, 0xBE	; 190
    278e:	de 4f       	sbci	r29, 0xFE	; 254
    2790:	e8 81       	ld	r30, Y
    2792:	f9 81       	ldd	r31, Y+1	; 0x01
    2794:	c2 54       	subi	r28, 0x42	; 66
    2796:	d1 40       	sbci	r29, 0x01	; 1
    2798:	09 95       	icall
    279a:	62 e0       	ldi	r22, 0x02	; 2
    279c:	f3 01       	movw	r30, r6
    279e:	09 95       	icall
    27a0:	0f 90       	pop	r0
    27a2:	0f 90       	pop	r0
    27a4:	0f 90       	pop	r0
    27a6:	0f 90       	pop	r0
    27a8:	f1 e3       	ldi	r31, 0x31	; 49
    27aa:	c3 5c       	subi	r28, 0xC3	; 195
    27ac:	de 4f       	sbci	r29, 0xFE	; 254
    27ae:	f8 83       	st	Y, r31
    27b0:	cd 53       	subi	r28, 0x3D	; 61
    27b2:	d1 40       	sbci	r29, 0x01	; 1
    27b4:	4a ce       	rjmp	.-876    	; 0x244a <main+0x270>
				}
				break;
			/***MENU 2***/
			case '2': // Manual position override 
				if(!strcmp(keypad.get().string,"A")){Menu='3';keypad.flush();lcd0.clear();
    27b6:	f4 01       	movw	r30, r8
    27b8:	09 95       	icall
    27ba:	ca 57       	subi	r28, 0x7A	; 122
    27bc:	df 4f       	sbci	r29, 0xFF	; 255
    27be:	58 83       	st	Y, r21
    27c0:	c6 58       	subi	r28, 0x86	; 134
    27c2:	d0 40       	sbci	r29, 0x00	; 0
    27c4:	c9 57       	subi	r28, 0x79	; 121
    27c6:	df 4f       	sbci	r29, 0xFF	; 255
    27c8:	68 83       	st	Y, r22
    27ca:	c7 58       	subi	r28, 0x87	; 135
    27cc:	d0 40       	sbci	r29, 0x00	; 0
    27ce:	62 e1       	ldi	r22, 0x12	; 18
    27d0:	71 e0       	ldi	r23, 0x01	; 1
    27d2:	ca 57       	subi	r28, 0x7A	; 122
    27d4:	df 4f       	sbci	r29, 0xFF	; 255
    27d6:	88 81       	ld	r24, Y
    27d8:	99 81       	ldd	r25, Y+1	; 0x01
    27da:	c6 58       	subi	r28, 0x86	; 134
    27dc:	d0 40       	sbci	r29, 0x00	; 0
    27de:	5a d6       	rcall	.+3252   	; 0x3494 <strcmp>
    27e0:	89 2b       	or	r24, r25
    27e2:	a9 f4       	brne	.+42     	; 0x280e <main+0x634>
    27e4:	c2 5c       	subi	r28, 0xC2	; 194
    27e6:	de 4f       	sbci	r29, 0xFE	; 254
    27e8:	e8 81       	ld	r30, Y
    27ea:	f9 81       	ldd	r31, Y+1	; 0x01
    27ec:	ce 53       	subi	r28, 0x3E	; 62
    27ee:	d1 40       	sbci	r29, 0x01	; 1
    27f0:	09 95       	icall
    27f2:	c0 5c       	subi	r28, 0xC0	; 192
    27f4:	de 4f       	sbci	r29, 0xFE	; 254
    27f6:	e8 81       	ld	r30, Y
    27f8:	f9 81       	ldd	r31, Y+1	; 0x01
    27fa:	c0 54       	subi	r28, 0x40	; 64
    27fc:	d1 40       	sbci	r29, 0x01	; 1
    27fe:	09 95       	icall
    2800:	f3 e3       	ldi	r31, 0x33	; 51
    2802:	c3 5c       	subi	r28, 0xC3	; 195
    2804:	de 4f       	sbci	r29, 0xFE	; 254
    2806:	f8 83       	st	Y, r31
    2808:	cd 53       	subi	r28, 0x3D	; 61
    280a:	d1 40       	sbci	r29, 0x01	; 1
    280c:	1e ce       	rjmp	.-964    	; 0x244a <main+0x270>
				}else if(!strcmp(keypad.get().string,"B")){Menu='1';keypad.flush();lcd0.clear();
    280e:	f4 01       	movw	r30, r8
    2810:	09 95       	icall
    2812:	cf 57       	subi	r28, 0x7F	; 127
    2814:	df 4f       	sbci	r29, 0xFF	; 255
    2816:	58 83       	st	Y, r21
    2818:	c1 58       	subi	r28, 0x81	; 129
    281a:	d0 40       	sbci	r29, 0x00	; 0
    281c:	ce 57       	subi	r28, 0x7E	; 126
    281e:	df 4f       	sbci	r29, 0xFF	; 255
    2820:	68 83       	st	Y, r22
    2822:	c2 58       	subi	r28, 0x82	; 130
    2824:	d0 40       	sbci	r29, 0x00	; 0
    2826:	64 e1       	ldi	r22, 0x14	; 20
    2828:	71 e0       	ldi	r23, 0x01	; 1
    282a:	cf 57       	subi	r28, 0x7F	; 127
    282c:	df 4f       	sbci	r29, 0xFF	; 255
    282e:	88 81       	ld	r24, Y
    2830:	99 81       	ldd	r25, Y+1	; 0x01
    2832:	c1 58       	subi	r28, 0x81	; 129
    2834:	d0 40       	sbci	r29, 0x00	; 0
    2836:	2e d6       	rcall	.+3164   	; 0x3494 <strcmp>
    2838:	89 2b       	or	r24, r25
    283a:	a9 f4       	brne	.+42     	; 0x2866 <main+0x68c>
    283c:	c2 5c       	subi	r28, 0xC2	; 194
    283e:	de 4f       	sbci	r29, 0xFE	; 254
    2840:	e8 81       	ld	r30, Y
    2842:	f9 81       	ldd	r31, Y+1	; 0x01
    2844:	ce 53       	subi	r28, 0x3E	; 62
    2846:	d1 40       	sbci	r29, 0x01	; 1
    2848:	09 95       	icall
    284a:	c0 5c       	subi	r28, 0xC0	; 192
    284c:	de 4f       	sbci	r29, 0xFE	; 254
    284e:	e8 81       	ld	r30, Y
    2850:	f9 81       	ldd	r31, Y+1	; 0x01
    2852:	c0 54       	subi	r28, 0x40	; 64
    2854:	d1 40       	sbci	r29, 0x01	; 1
    2856:	09 95       	icall
    2858:	f1 e3       	ldi	r31, 0x31	; 49
    285a:	c3 5c       	subi	r28, 0xC3	; 195
    285c:	de 4f       	sbci	r29, 0xFE	; 254
    285e:	f8 83       	st	Y, r31
    2860:	cd 53       	subi	r28, 0x3D	; 61
    2862:	d1 40       	sbci	r29, 0x01	; 1
    2864:	f2 cd       	rjmp	.-1052   	; 0x244a <main+0x270>
				}else{
					lcd0.gotoxy(0,0);
    2866:	60 e0       	ldi	r22, 0x00	; 0
    2868:	70 e0       	ldi	r23, 0x00	; 0
    286a:	80 e0       	ldi	r24, 0x00	; 0
    286c:	90 e0       	ldi	r25, 0x00	; 0
    286e:	f1 01       	movw	r30, r2
    2870:	09 95       	icall
					lcd0.string_size("Manual: ",8);
    2872:	68 e0       	ldi	r22, 0x08	; 8
    2874:	8e e1       	ldi	r24, 0x1E	; 30
    2876:	91 e0       	ldi	r25, 0x01	; 1
    2878:	f3 01       	movw	r30, r6
    287a:	09 95       	icall
					lcd0.string_size(mstr,3);
    287c:	63 e0       	ldi	r22, 0x03	; 3
    287e:	ce 01       	movw	r24, r28
    2880:	8f 5c       	subi	r24, 0xCF	; 207
    2882:	9e 4f       	sbci	r25, 0xFE	; 254
    2884:	f3 01       	movw	r30, r6
    2886:	09 95       	icall
					if(keypad.get().character==KEYPADENTERKEY){
    2888:	f4 01       	movw	r30, r8
    288a:	09 95       	icall
    288c:	24 34       	cpi	r18, 0x44	; 68
    288e:	09 f0       	breq	.+2      	; 0x2892 <main+0x6b8>
    2890:	8f c0       	rjmp	.+286    	; 0x29b0 <main+0x7d6>
						if(!strcmp(keypad.get().string,"C")){Menu='1';keypad.flush();lcd0.clear();break;}
    2892:	f4 01       	movw	r30, r8
    2894:	09 95       	icall
    2896:	e8 96       	adiw	r28, 0x38	; 56
    2898:	5f af       	std	Y+63, r21	; 0x3f
    289a:	e8 97       	sbiw	r28, 0x38	; 56
    289c:	e9 96       	adiw	r28, 0x39	; 57
    289e:	6f af       	std	Y+63, r22	; 0x3f
    28a0:	e9 97       	sbiw	r28, 0x39	; 57
    28a2:	67 e2       	ldi	r22, 0x27	; 39
    28a4:	71 e0       	ldi	r23, 0x01	; 1
    28a6:	e9 96       	adiw	r28, 0x39	; 57
    28a8:	8e ad       	ldd	r24, Y+62	; 0x3e
    28aa:	9f ad       	ldd	r25, Y+63	; 0x3f
    28ac:	e9 97       	sbiw	r28, 0x39	; 57
    28ae:	f2 d5       	rcall	.+3044   	; 0x3494 <strcmp>
    28b0:	89 2b       	or	r24, r25
    28b2:	a9 f4       	brne	.+42     	; 0x28de <main+0x704>
    28b4:	c2 5c       	subi	r28, 0xC2	; 194
    28b6:	de 4f       	sbci	r29, 0xFE	; 254
    28b8:	e8 81       	ld	r30, Y
    28ba:	f9 81       	ldd	r31, Y+1	; 0x01
    28bc:	ce 53       	subi	r28, 0x3E	; 62
    28be:	d1 40       	sbci	r29, 0x01	; 1
    28c0:	09 95       	icall
    28c2:	c0 5c       	subi	r28, 0xC0	; 192
    28c4:	de 4f       	sbci	r29, 0xFE	; 254
    28c6:	e8 81       	ld	r30, Y
    28c8:	f9 81       	ldd	r31, Y+1	; 0x01
    28ca:	c0 54       	subi	r28, 0x40	; 64
    28cc:	d1 40       	sbci	r29, 0x01	; 1
    28ce:	09 95       	icall
    28d0:	f1 e3       	ldi	r31, 0x31	; 49
    28d2:	c3 5c       	subi	r28, 0xC3	; 195
    28d4:	de 4f       	sbci	r29, 0xFE	; 254
    28d6:	f8 83       	st	Y, r31
    28d8:	cd 53       	subi	r28, 0x3D	; 61
    28da:	d1 40       	sbci	r29, 0x01	; 1
    28dc:	b6 cd       	rjmp	.-1172   	; 0x244a <main+0x270>
						strncpy(mstr,keypad.get().string,6);
    28de:	f4 01       	movw	r30, r8
    28e0:	09 95       	icall
    28e2:	e3 96       	adiw	r28, 0x33	; 51
    28e4:	5f af       	std	Y+63, r21	; 0x3f
    28e6:	e3 97       	sbiw	r28, 0x33	; 51
    28e8:	e4 96       	adiw	r28, 0x34	; 52
    28ea:	6f af       	std	Y+63, r22	; 0x3f
    28ec:	e4 97       	sbiw	r28, 0x34	; 52
    28ee:	e4 96       	adiw	r28, 0x34	; 52
    28f0:	6e ad       	ldd	r22, Y+62	; 0x3e
    28f2:	7f ad       	ldd	r23, Y+63	; 0x3f
    28f4:	e4 97       	sbiw	r28, 0x34	; 52
    28f6:	46 e0       	ldi	r20, 0x06	; 6
    28f8:	50 e0       	ldi	r21, 0x00	; 0
    28fa:	ce 01       	movw	r24, r28
    28fc:	8f 5c       	subi	r24, 0xCF	; 207
    28fe:	9e 4f       	sbci	r25, 0xFE	; 254
    2900:	d9 d5       	rcall	.+2994   	; 0x34b4 <strncpy>
						mvalue=function.strToInt(mstr);
    2902:	ce 01       	movw	r24, r28
    2904:	8f 5c       	subi	r24, 0xCF	; 207
    2906:	9e 4f       	sbci	r25, 0xFE	; 254
    2908:	cd 5a       	subi	r28, 0xAD	; 173
    290a:	de 4f       	sbci	r29, 0xFE	; 254
    290c:	e8 81       	ld	r30, Y
    290e:	f9 81       	ldd	r31, Y+1	; 0x01
    2910:	c3 55       	subi	r28, 0x53	; 83
    2912:	d1 40       	sbci	r29, 0x01	; 1
    2914:	09 95       	icall
    2916:	2c 01       	movw	r4, r24
						if(mvalue >=0 && mvalue <181){
    2918:	85 3b       	cpi	r24, 0xB5	; 181
    291a:	91 05       	cpc	r25, r1
    291c:	e0 f5       	brcc	.+120    	; 0x2996 <main+0x7bc>
							m_value=mvalue;
							timer1.compareB(function.trimmer(m_value,0,180,Min,Max));
    291e:	bc 01       	movw	r22, r24
    2920:	99 0f       	add	r25, r25
    2922:	88 0b       	sbc	r24, r24
    2924:	99 0b       	sbc	r25, r25
    2926:	1f 92       	push	r1
    2928:	1f 92       	push	r1
    292a:	29 e0       	ldi	r18, 0x09	; 9
    292c:	2f 93       	push	r18
    292e:	2e e2       	ldi	r18, 0x2E	; 46
    2930:	2f 93       	push	r18
    2932:	0f 2e       	mov	r0, r31
    2934:	f4 ef       	ldi	r31, 0xF4	; 244
    2936:	af 2e       	mov	r10, r31
    2938:	bb 24       	eor	r11, r11
    293a:	b3 94       	inc	r11
    293c:	c1 2c       	mov	r12, r1
    293e:	d1 2c       	mov	r13, r1
    2940:	f0 2d       	mov	r31, r0
    2942:	14 eb       	ldi	r17, 0xB4	; 180
    2944:	e1 2e       	mov	r14, r17
    2946:	f1 2c       	mov	r15, r1
    2948:	00 e0       	ldi	r16, 0x00	; 0
    294a:	10 e0       	ldi	r17, 0x00	; 0
    294c:	20 e0       	ldi	r18, 0x00	; 0
    294e:	30 e0       	ldi	r19, 0x00	; 0
    2950:	a9 01       	movw	r20, r18
    2952:	c8 5b       	subi	r28, 0xB8	; 184
    2954:	de 4f       	sbci	r29, 0xFE	; 254
    2956:	e8 81       	ld	r30, Y
    2958:	f9 81       	ldd	r31, Y+1	; 0x01
    295a:	c8 54       	subi	r28, 0x48	; 72
    295c:	d1 40       	sbci	r29, 0x01	; 1
    295e:	09 95       	icall
    2960:	cb 01       	movw	r24, r22
    2962:	c6 5b       	subi	r28, 0xB6	; 182
    2964:	de 4f       	sbci	r29, 0xFE	; 254
    2966:	e8 81       	ld	r30, Y
    2968:	f9 81       	ldd	r31, Y+1	; 0x01
    296a:	ca 54       	subi	r28, 0x4A	; 74
    296c:	d1 40       	sbci	r29, 0x01	; 1
    296e:	09 95       	icall
							lcd0.hspace(5);
    2970:	c1 51       	subi	r28, 0x11	; 17
    2972:	df 4f       	sbci	r29, 0xFF	; 255
    2974:	e8 81       	ld	r30, Y
    2976:	f9 81       	ldd	r31, Y+1	; 0x01
    2978:	cf 5e       	subi	r28, 0xEF	; 239
    297a:	d0 40       	sbci	r29, 0x00	; 0
    297c:	85 e0       	ldi	r24, 0x05	; 5
    297e:	09 95       	icall
    2980:	0f 90       	pop	r0
    2982:	0f 90       	pop	r0
    2984:	0f 90       	pop	r0
    2986:	0f 90       	pop	r0
					if(keypad.get().character==KEYPADENTERKEY){
						if(!strcmp(keypad.get().string,"C")){Menu='1';keypad.flush();lcd0.clear();break;}
						strncpy(mstr,keypad.get().string,6);
						mvalue=function.strToInt(mstr);
						if(mvalue >=0 && mvalue <181){
							m_value=mvalue;
    2988:	cf 5a       	subi	r28, 0xAF	; 175
    298a:	de 4f       	sbci	r29, 0xFE	; 254
    298c:	59 82       	std	Y+1, r5	; 0x01
    298e:	48 82       	st	Y, r4
    2990:	c1 55       	subi	r28, 0x51	; 81
    2992:	d1 40       	sbci	r29, 0x01	; 1
    2994:	05 c0       	rjmp	.+10     	; 0x29a0 <main+0x7c6>
							timer1.compareB(function.trimmer(m_value,0,180,Min,Max));
							lcd0.hspace(5);
						}else{
							lcd0.string_size("  err",5);
    2996:	65 e0       	ldi	r22, 0x05	; 5
    2998:	89 e2       	ldi	r24, 0x29	; 41
    299a:	91 e0       	ldi	r25, 0x01	; 1
    299c:	f3 01       	movw	r30, r6
    299e:	09 95       	icall
						}
						keypad.flush();
    29a0:	c2 5c       	subi	r28, 0xC2	; 194
    29a2:	de 4f       	sbci	r29, 0xFE	; 254
    29a4:	e8 81       	ld	r30, Y
    29a6:	f9 81       	ldd	r31, Y+1	; 0x01
    29a8:	ce 53       	subi	r28, 0x3E	; 62
    29aa:	d1 40       	sbci	r29, 0x01	; 1
    29ac:	09 95       	icall
    29ae:	33 c0       	rjmp	.+102    	; 0x2a16 <main+0x83c>
					}else
						timer1.compareB(function.trimmer(m_value,0,180,Min,Max));
    29b0:	1f 92       	push	r1
    29b2:	1f 92       	push	r1
    29b4:	89 e0       	ldi	r24, 0x09	; 9
    29b6:	8f 93       	push	r24
    29b8:	8e e2       	ldi	r24, 0x2E	; 46
    29ba:	8f 93       	push	r24
    29bc:	0f 2e       	mov	r0, r31
    29be:	f4 ef       	ldi	r31, 0xF4	; 244
    29c0:	af 2e       	mov	r10, r31
    29c2:	bb 24       	eor	r11, r11
    29c4:	b3 94       	inc	r11
    29c6:	c1 2c       	mov	r12, r1
    29c8:	d1 2c       	mov	r13, r1
    29ca:	f0 2d       	mov	r31, r0
    29cc:	14 eb       	ldi	r17, 0xB4	; 180
    29ce:	e1 2e       	mov	r14, r17
    29d0:	f1 2c       	mov	r15, r1
    29d2:	00 e0       	ldi	r16, 0x00	; 0
    29d4:	10 e0       	ldi	r17, 0x00	; 0
    29d6:	20 e0       	ldi	r18, 0x00	; 0
    29d8:	30 e0       	ldi	r19, 0x00	; 0
    29da:	a9 01       	movw	r20, r18
    29dc:	cf 5a       	subi	r28, 0xAF	; 175
    29de:	de 4f       	sbci	r29, 0xFE	; 254
    29e0:	a8 81       	ld	r26, Y
    29e2:	b9 81       	ldd	r27, Y+1	; 0x01
    29e4:	c1 55       	subi	r28, 0x51	; 81
    29e6:	d1 40       	sbci	r29, 0x01	; 1
    29e8:	bd 01       	movw	r22, r26
    29ea:	bb 0f       	add	r27, r27
    29ec:	88 0b       	sbc	r24, r24
    29ee:	99 0b       	sbc	r25, r25
    29f0:	c8 5b       	subi	r28, 0xB8	; 184
    29f2:	de 4f       	sbci	r29, 0xFE	; 254
    29f4:	e8 81       	ld	r30, Y
    29f6:	f9 81       	ldd	r31, Y+1	; 0x01
    29f8:	c8 54       	subi	r28, 0x48	; 72
    29fa:	d1 40       	sbci	r29, 0x01	; 1
    29fc:	09 95       	icall
    29fe:	cb 01       	movw	r24, r22
    2a00:	c6 5b       	subi	r28, 0xB6	; 182
    2a02:	de 4f       	sbci	r29, 0xFE	; 254
    2a04:	e8 81       	ld	r30, Y
    2a06:	f9 81       	ldd	r31, Y+1	; 0x01
    2a08:	ca 54       	subi	r28, 0x4A	; 74
    2a0a:	d1 40       	sbci	r29, 0x01	; 1
    2a0c:	09 95       	icall
    2a0e:	0f 90       	pop	r0
    2a10:	0f 90       	pop	r0
    2a12:	0f 90       	pop	r0
    2a14:	0f 90       	pop	r0
					lcd0.gotoxy(3,0);
    2a16:	60 e0       	ldi	r22, 0x00	; 0
    2a18:	70 e0       	ldi	r23, 0x00	; 0
    2a1a:	83 e0       	ldi	r24, 0x03	; 3
    2a1c:	90 e0       	ldi	r25, 0x00	; 0
    2a1e:	f1 01       	movw	r30, r2
    2a20:	09 95       	icall
					lcd0.string_size("C - exit",8);lcd0.gotoxy(3,0);
    2a22:	68 e0       	ldi	r22, 0x08	; 8
    2a24:	8f e2       	ldi	r24, 0x2F	; 47
    2a26:	91 e0       	ldi	r25, 0x01	; 1
    2a28:	f3 01       	movw	r30, r6
    2a2a:	09 95       	icall
    2a2c:	60 e0       	ldi	r22, 0x00	; 0
    2a2e:	70 e0       	ldi	r23, 0x00	; 0
    2a30:	83 e0       	ldi	r24, 0x03	; 3
    2a32:	90 e0       	ldi	r25, 0x00	; 0
    2a34:	f1 01       	movw	r30, r2
    2a36:	09 95       	icall
					lcd0.string_size("C - exit",8);
    2a38:	68 e0       	ldi	r22, 0x08	; 8
    2a3a:	8f e2       	ldi	r24, 0x2F	; 47
    2a3c:	91 e0       	ldi	r25, 0x01	; 1
    2a3e:	f3 01       	movw	r30, r6
    2a40:	09 95       	icall
    2a42:	03 cd       	rjmp	.-1530   	; 0x244a <main+0x270>
				}
				break;
			/***MENU 3***/
			case '3': //Set Time and Date
				if(!strcmp(keypad.get().string,"A")){Menu='1';keypad.flush();lcd0.clear();
    2a44:	f4 01       	movw	r30, r8
    2a46:	09 95       	icall
    2a48:	ae 96       	adiw	r28, 0x2e	; 46
    2a4a:	5f af       	std	Y+63, r21	; 0x3f
    2a4c:	ae 97       	sbiw	r28, 0x2e	; 46
    2a4e:	af 96       	adiw	r28, 0x2f	; 47
    2a50:	6f af       	std	Y+63, r22	; 0x3f
    2a52:	af 97       	sbiw	r28, 0x2f	; 47
    2a54:	62 e1       	ldi	r22, 0x12	; 18
    2a56:	71 e0       	ldi	r23, 0x01	; 1
    2a58:	af 96       	adiw	r28, 0x2f	; 47
    2a5a:	8e ad       	ldd	r24, Y+62	; 0x3e
    2a5c:	9f ad       	ldd	r25, Y+63	; 0x3f
    2a5e:	af 97       	sbiw	r28, 0x2f	; 47
    2a60:	19 d5       	rcall	.+2610   	; 0x3494 <strcmp>
    2a62:	89 2b       	or	r24, r25
    2a64:	a9 f4       	brne	.+42     	; 0x2a90 <main+0x8b6>
    2a66:	c2 5c       	subi	r28, 0xC2	; 194
    2a68:	de 4f       	sbci	r29, 0xFE	; 254
    2a6a:	e8 81       	ld	r30, Y
    2a6c:	f9 81       	ldd	r31, Y+1	; 0x01
    2a6e:	ce 53       	subi	r28, 0x3E	; 62
    2a70:	d1 40       	sbci	r29, 0x01	; 1
    2a72:	09 95       	icall
    2a74:	c0 5c       	subi	r28, 0xC0	; 192
    2a76:	de 4f       	sbci	r29, 0xFE	; 254
    2a78:	e8 81       	ld	r30, Y
    2a7a:	f9 81       	ldd	r31, Y+1	; 0x01
    2a7c:	c0 54       	subi	r28, 0x40	; 64
    2a7e:	d1 40       	sbci	r29, 0x01	; 1
    2a80:	09 95       	icall
    2a82:	f1 e3       	ldi	r31, 0x31	; 49
    2a84:	c3 5c       	subi	r28, 0xC3	; 195
    2a86:	de 4f       	sbci	r29, 0xFE	; 254
    2a88:	f8 83       	st	Y, r31
    2a8a:	cd 53       	subi	r28, 0x3D	; 61
    2a8c:	d1 40       	sbci	r29, 0x01	; 1
    2a8e:	dd cc       	rjmp	.-1606   	; 0x244a <main+0x270>
				}else if(!strcmp(keypad.get().string,"B")){Menu='2';keypad.flush();lcd0.clear();
    2a90:	f4 01       	movw	r30, r8
    2a92:	09 95       	icall
    2a94:	a9 96       	adiw	r28, 0x29	; 41
    2a96:	5f af       	std	Y+63, r21	; 0x3f
    2a98:	a9 97       	sbiw	r28, 0x29	; 41
    2a9a:	aa 96       	adiw	r28, 0x2a	; 42
    2a9c:	6f af       	std	Y+63, r22	; 0x3f
    2a9e:	aa 97       	sbiw	r28, 0x2a	; 42
    2aa0:	64 e1       	ldi	r22, 0x14	; 20
    2aa2:	71 e0       	ldi	r23, 0x01	; 1
    2aa4:	aa 96       	adiw	r28, 0x2a	; 42
    2aa6:	8e ad       	ldd	r24, Y+62	; 0x3e
    2aa8:	9f ad       	ldd	r25, Y+63	; 0x3f
    2aaa:	aa 97       	sbiw	r28, 0x2a	; 42
    2aac:	f3 d4       	rcall	.+2534   	; 0x3494 <strcmp>
    2aae:	89 2b       	or	r24, r25
    2ab0:	a9 f4       	brne	.+42     	; 0x2adc <main+0x902>
    2ab2:	c2 5c       	subi	r28, 0xC2	; 194
    2ab4:	de 4f       	sbci	r29, 0xFE	; 254
    2ab6:	e8 81       	ld	r30, Y
    2ab8:	f9 81       	ldd	r31, Y+1	; 0x01
    2aba:	ce 53       	subi	r28, 0x3E	; 62
    2abc:	d1 40       	sbci	r29, 0x01	; 1
    2abe:	09 95       	icall
    2ac0:	c0 5c       	subi	r28, 0xC0	; 192
    2ac2:	de 4f       	sbci	r29, 0xFE	; 254
    2ac4:	e8 81       	ld	r30, Y
    2ac6:	f9 81       	ldd	r31, Y+1	; 0x01
    2ac8:	c0 54       	subi	r28, 0x40	; 64
    2aca:	d1 40       	sbci	r29, 0x01	; 1
    2acc:	09 95       	icall
    2ace:	f2 e3       	ldi	r31, 0x32	; 50
    2ad0:	c3 5c       	subi	r28, 0xC3	; 195
    2ad2:	de 4f       	sbci	r29, 0xFE	; 254
    2ad4:	f8 83       	st	Y, r31
    2ad6:	cd 53       	subi	r28, 0x3D	; 61
    2ad8:	d1 40       	sbci	r29, 0x01	; 1
    2ada:	b7 cc       	rjmp	.-1682   	; 0x244a <main+0x270>
				}else{
					/*** Menu to set RTC Time and Date ***/
					lcd0.gotoxy(0,0);
    2adc:	60 e0       	ldi	r22, 0x00	; 0
    2ade:	70 e0       	ldi	r23, 0x00	; 0
    2ae0:	80 e0       	ldi	r24, 0x00	; 0
    2ae2:	90 e0       	ldi	r25, 0x00	; 0
    2ae4:	f1 01       	movw	r30, r2
    2ae6:	09 95       	icall
					lcd0.string_size("Date and Time Setup",19);
    2ae8:	63 e1       	ldi	r22, 0x13	; 19
    2aea:	88 e3       	ldi	r24, 0x38	; 56
    2aec:	91 e0       	ldi	r25, 0x01	; 1
    2aee:	f3 01       	movw	r30, r6
    2af0:	09 95       	icall
					/***Calibrate***/
					switch(cal){
    2af2:	c4 5b       	subi	r28, 0xB4	; 180
    2af4:	de 4f       	sbci	r29, 0xFE	; 254
    2af6:	f8 81       	ld	r31, Y
    2af8:	cc 54       	subi	r28, 0x4C	; 76
    2afa:	d1 40       	sbci	r29, 0x01	; 1
    2afc:	8f 2f       	mov	r24, r31
    2afe:	90 e0       	ldi	r25, 0x00	; 0
    2b00:	fc 01       	movw	r30, r24
    2b02:	f0 97       	sbiw	r30, 0x30	; 48
    2b04:	e7 30       	cpi	r30, 0x07	; 7
    2b06:	f1 05       	cpc	r31, r1
    2b08:	08 f0       	brcs	.+2      	; 0x2b0c <main+0x932>
    2b0a:	99 cc       	rjmp	.-1742   	; 0x243e <main+0x264>
    2b0c:	ef 59       	subi	r30, 0x9F	; 159
    2b0e:	ff 4f       	sbci	r31, 0xFF	; 255
    2b10:	9f c4       	rjmp	.+2366   	; 0x3450 <__tablejump2__>
						case '0':
							lcd0.gotoxy(1,0);
    2b12:	60 e0       	ldi	r22, 0x00	; 0
    2b14:	70 e0       	ldi	r23, 0x00	; 0
    2b16:	81 e0       	ldi	r24, 0x01	; 1
    2b18:	90 e0       	ldi	r25, 0x00	; 0
    2b1a:	f1 01       	movw	r30, r2
    2b1c:	09 95       	icall
							lcd0.string_size("1-Year",7);
    2b1e:	67 e0       	ldi	r22, 0x07	; 7
    2b20:	8c e4       	ldi	r24, 0x4C	; 76
    2b22:	91 e0       	ldi	r25, 0x01	; 1
    2b24:	f3 01       	movw	r30, r6
    2b26:	09 95       	icall
							lcd0.string_size("2-Month",8);
    2b28:	68 e0       	ldi	r22, 0x08	; 8
    2b2a:	83 e5       	ldi	r24, 0x53	; 83
    2b2c:	91 e0       	ldi	r25, 0x01	; 1
    2b2e:	f3 01       	movw	r30, r6
    2b30:	09 95       	icall
							lcd0.string_size("3-Day",5);
    2b32:	65 e0       	ldi	r22, 0x05	; 5
    2b34:	8b e5       	ldi	r24, 0x5B	; 91
    2b36:	91 e0       	ldi	r25, 0x01	; 1
    2b38:	f3 01       	movw	r30, r6
    2b3a:	09 95       	icall
							lcd0.gotoxy(2,0);
    2b3c:	60 e0       	ldi	r22, 0x00	; 0
    2b3e:	70 e0       	ldi	r23, 0x00	; 0
    2b40:	82 e0       	ldi	r24, 0x02	; 2
    2b42:	90 e0       	ldi	r25, 0x00	; 0
    2b44:	f1 01       	movw	r30, r2
    2b46:	09 95       	icall
							lcd0.string_size("4-Hour",7);
    2b48:	67 e0       	ldi	r22, 0x07	; 7
    2b4a:	81 e6       	ldi	r24, 0x61	; 97
    2b4c:	91 e0       	ldi	r25, 0x01	; 1
    2b4e:	f3 01       	movw	r30, r6
    2b50:	09 95       	icall
							lcd0.string_size("5-Min",8);
    2b52:	68 e0       	ldi	r22, 0x08	; 8
    2b54:	88 e6       	ldi	r24, 0x68	; 104
    2b56:	91 e0       	ldi	r25, 0x01	; 1
    2b58:	f3 01       	movw	r30, r6
    2b5a:	09 95       	icall
							lcd0.string_size("6-Sec",5);
    2b5c:	65 e0       	ldi	r22, 0x05	; 5
    2b5e:	8e e6       	ldi	r24, 0x6E	; 110
    2b60:	91 e0       	ldi	r25, 0x01	; 1
    2b62:	f3 01       	movw	r30, r6
    2b64:	09 95       	icall
							lcd0.gotoxy(3,0);
    2b66:	60 e0       	ldi	r22, 0x00	; 0
    2b68:	70 e0       	ldi	r23, 0x00	; 0
    2b6a:	83 e0       	ldi	r24, 0x03	; 3
    2b6c:	90 e0       	ldi	r25, 0x00	; 0
    2b6e:	f1 01       	movw	r30, r2
    2b70:	09 95       	icall
							lcd0.string_size("C - exit",8);
    2b72:	68 e0       	ldi	r22, 0x08	; 8
    2b74:	8f e2       	ldi	r24, 0x2F	; 47
    2b76:	91 e0       	ldi	r25, 0x01	; 1
    2b78:	f3 01       	movw	r30, r6
    2b7a:	09 95       	icall
							if(!strcmp(keypad.get().string,"1")){cal='1';keypad.flush();lcd0.clear();}
    2b7c:	f4 01       	movw	r30, r8
    2b7e:	09 95       	icall
    2b80:	a4 96       	adiw	r28, 0x24	; 36
    2b82:	5f af       	std	Y+63, r21	; 0x3f
    2b84:	a4 97       	sbiw	r28, 0x24	; 36
    2b86:	a5 96       	adiw	r28, 0x25	; 37
    2b88:	6f af       	std	Y+63, r22	; 0x3f
    2b8a:	a5 97       	sbiw	r28, 0x25	; 37
    2b8c:	64 e7       	ldi	r22, 0x74	; 116
    2b8e:	71 e0       	ldi	r23, 0x01	; 1
    2b90:	a5 96       	adiw	r28, 0x25	; 37
    2b92:	8e ad       	ldd	r24, Y+62	; 0x3e
    2b94:	9f ad       	ldd	r25, Y+63	; 0x3f
    2b96:	a5 97       	sbiw	r28, 0x25	; 37
    2b98:	7d d4       	rcall	.+2298   	; 0x3494 <strcmp>
    2b9a:	89 2b       	or	r24, r25
    2b9c:	a1 f4       	brne	.+40     	; 0x2bc6 <main+0x9ec>
    2b9e:	c2 5c       	subi	r28, 0xC2	; 194
    2ba0:	de 4f       	sbci	r29, 0xFE	; 254
    2ba2:	e8 81       	ld	r30, Y
    2ba4:	f9 81       	ldd	r31, Y+1	; 0x01
    2ba6:	ce 53       	subi	r28, 0x3E	; 62
    2ba8:	d1 40       	sbci	r29, 0x01	; 1
    2baa:	09 95       	icall
    2bac:	c0 5c       	subi	r28, 0xC0	; 192
    2bae:	de 4f       	sbci	r29, 0xFE	; 254
    2bb0:	e8 81       	ld	r30, Y
    2bb2:	f9 81       	ldd	r31, Y+1	; 0x01
    2bb4:	c0 54       	subi	r28, 0x40	; 64
    2bb6:	d1 40       	sbci	r29, 0x01	; 1
    2bb8:	09 95       	icall
    2bba:	f1 e3       	ldi	r31, 0x31	; 49
    2bbc:	c4 5b       	subi	r28, 0xB4	; 180
    2bbe:	de 4f       	sbci	r29, 0xFE	; 254
    2bc0:	f8 83       	st	Y, r31
    2bc2:	cc 54       	subi	r28, 0x4C	; 76
							if(!strcmp(keypad.get().string,"2")){cal='2';keypad.flush();lcd0.clear();}
    2bc4:	d1 40       	sbci	r29, 0x01	; 1
    2bc6:	f4 01       	movw	r30, r8
    2bc8:	09 95       	icall
    2bca:	6f 96       	adiw	r28, 0x1f	; 31
    2bcc:	5f af       	std	Y+63, r21	; 0x3f
    2bce:	6f 97       	sbiw	r28, 0x1f	; 31
    2bd0:	a0 96       	adiw	r28, 0x20	; 32
    2bd2:	6f af       	std	Y+63, r22	; 0x3f
    2bd4:	a0 97       	sbiw	r28, 0x20	; 32
    2bd6:	66 e7       	ldi	r22, 0x76	; 118
    2bd8:	71 e0       	ldi	r23, 0x01	; 1
    2bda:	a0 96       	adiw	r28, 0x20	; 32
    2bdc:	8e ad       	ldd	r24, Y+62	; 0x3e
    2bde:	9f ad       	ldd	r25, Y+63	; 0x3f
    2be0:	a0 97       	sbiw	r28, 0x20	; 32
    2be2:	58 d4       	rcall	.+2224   	; 0x3494 <strcmp>
    2be4:	89 2b       	or	r24, r25
    2be6:	a1 f4       	brne	.+40     	; 0x2c10 <main+0xa36>
    2be8:	c2 5c       	subi	r28, 0xC2	; 194
    2bea:	de 4f       	sbci	r29, 0xFE	; 254
    2bec:	e8 81       	ld	r30, Y
    2bee:	f9 81       	ldd	r31, Y+1	; 0x01
    2bf0:	ce 53       	subi	r28, 0x3E	; 62
    2bf2:	d1 40       	sbci	r29, 0x01	; 1
    2bf4:	09 95       	icall
    2bf6:	c0 5c       	subi	r28, 0xC0	; 192
    2bf8:	de 4f       	sbci	r29, 0xFE	; 254
    2bfa:	e8 81       	ld	r30, Y
    2bfc:	f9 81       	ldd	r31, Y+1	; 0x01
    2bfe:	c0 54       	subi	r28, 0x40	; 64
    2c00:	d1 40       	sbci	r29, 0x01	; 1
    2c02:	09 95       	icall
    2c04:	f2 e3       	ldi	r31, 0x32	; 50
    2c06:	c4 5b       	subi	r28, 0xB4	; 180
    2c08:	de 4f       	sbci	r29, 0xFE	; 254
    2c0a:	f8 83       	st	Y, r31
    2c0c:	cc 54       	subi	r28, 0x4C	; 76
							if(!strcmp(keypad.get().string,"3")){cal='3';keypad.flush();lcd0.clear();}
    2c0e:	d1 40       	sbci	r29, 0x01	; 1
    2c10:	f4 01       	movw	r30, r8
    2c12:	09 95       	icall
    2c14:	6a 96       	adiw	r28, 0x1a	; 26
    2c16:	5f af       	std	Y+63, r21	; 0x3f
    2c18:	6a 97       	sbiw	r28, 0x1a	; 26
    2c1a:	6b 96       	adiw	r28, 0x1b	; 27
    2c1c:	6f af       	std	Y+63, r22	; 0x3f
    2c1e:	6b 97       	sbiw	r28, 0x1b	; 27
    2c20:	68 e7       	ldi	r22, 0x78	; 120
    2c22:	71 e0       	ldi	r23, 0x01	; 1
    2c24:	6b 96       	adiw	r28, 0x1b	; 27
    2c26:	8e ad       	ldd	r24, Y+62	; 0x3e
    2c28:	9f ad       	ldd	r25, Y+63	; 0x3f
    2c2a:	6b 97       	sbiw	r28, 0x1b	; 27
    2c2c:	33 d4       	rcall	.+2150   	; 0x3494 <strcmp>
    2c2e:	89 2b       	or	r24, r25
    2c30:	a1 f4       	brne	.+40     	; 0x2c5a <main+0xa80>
    2c32:	c2 5c       	subi	r28, 0xC2	; 194
    2c34:	de 4f       	sbci	r29, 0xFE	; 254
    2c36:	e8 81       	ld	r30, Y
    2c38:	f9 81       	ldd	r31, Y+1	; 0x01
    2c3a:	ce 53       	subi	r28, 0x3E	; 62
    2c3c:	d1 40       	sbci	r29, 0x01	; 1
    2c3e:	09 95       	icall
    2c40:	c0 5c       	subi	r28, 0xC0	; 192
    2c42:	de 4f       	sbci	r29, 0xFE	; 254
    2c44:	e8 81       	ld	r30, Y
    2c46:	f9 81       	ldd	r31, Y+1	; 0x01
    2c48:	c0 54       	subi	r28, 0x40	; 64
    2c4a:	d1 40       	sbci	r29, 0x01	; 1
    2c4c:	09 95       	icall
    2c4e:	f3 e3       	ldi	r31, 0x33	; 51
    2c50:	c4 5b       	subi	r28, 0xB4	; 180
    2c52:	de 4f       	sbci	r29, 0xFE	; 254
    2c54:	f8 83       	st	Y, r31
    2c56:	cc 54       	subi	r28, 0x4C	; 76
							if(!strcmp(keypad.get().string,"4")){cal='4';keypad.flush();lcd0.clear();}
    2c58:	d1 40       	sbci	r29, 0x01	; 1
    2c5a:	f4 01       	movw	r30, r8
    2c5c:	09 95       	icall
    2c5e:	65 96       	adiw	r28, 0x15	; 21
    2c60:	5f af       	std	Y+63, r21	; 0x3f
    2c62:	65 97       	sbiw	r28, 0x15	; 21
    2c64:	66 96       	adiw	r28, 0x16	; 22
    2c66:	6f af       	std	Y+63, r22	; 0x3f
    2c68:	66 97       	sbiw	r28, 0x16	; 22
    2c6a:	6a e7       	ldi	r22, 0x7A	; 122
    2c6c:	71 e0       	ldi	r23, 0x01	; 1
    2c6e:	66 96       	adiw	r28, 0x16	; 22
    2c70:	8e ad       	ldd	r24, Y+62	; 0x3e
    2c72:	9f ad       	ldd	r25, Y+63	; 0x3f
    2c74:	66 97       	sbiw	r28, 0x16	; 22
    2c76:	0e d4       	rcall	.+2076   	; 0x3494 <strcmp>
    2c78:	89 2b       	or	r24, r25
    2c7a:	a1 f4       	brne	.+40     	; 0x2ca4 <main+0xaca>
    2c7c:	c2 5c       	subi	r28, 0xC2	; 194
    2c7e:	de 4f       	sbci	r29, 0xFE	; 254
    2c80:	e8 81       	ld	r30, Y
    2c82:	f9 81       	ldd	r31, Y+1	; 0x01
    2c84:	ce 53       	subi	r28, 0x3E	; 62
    2c86:	d1 40       	sbci	r29, 0x01	; 1
    2c88:	09 95       	icall
    2c8a:	c0 5c       	subi	r28, 0xC0	; 192
    2c8c:	de 4f       	sbci	r29, 0xFE	; 254
    2c8e:	e8 81       	ld	r30, Y
    2c90:	f9 81       	ldd	r31, Y+1	; 0x01
    2c92:	c0 54       	subi	r28, 0x40	; 64
    2c94:	d1 40       	sbci	r29, 0x01	; 1
    2c96:	09 95       	icall
    2c98:	f4 e3       	ldi	r31, 0x34	; 52
    2c9a:	c4 5b       	subi	r28, 0xB4	; 180
    2c9c:	de 4f       	sbci	r29, 0xFE	; 254
    2c9e:	f8 83       	st	Y, r31
    2ca0:	cc 54       	subi	r28, 0x4C	; 76
							if(!strcmp(keypad.get().string,"5")){cal='5';keypad.flush();lcd0.clear();}
    2ca2:	d1 40       	sbci	r29, 0x01	; 1
    2ca4:	f4 01       	movw	r30, r8
    2ca6:	09 95       	icall
    2ca8:	60 96       	adiw	r28, 0x10	; 16
    2caa:	5f af       	std	Y+63, r21	; 0x3f
    2cac:	60 97       	sbiw	r28, 0x10	; 16
    2cae:	61 96       	adiw	r28, 0x11	; 17
    2cb0:	6f af       	std	Y+63, r22	; 0x3f
    2cb2:	61 97       	sbiw	r28, 0x11	; 17
    2cb4:	6c e7       	ldi	r22, 0x7C	; 124
    2cb6:	71 e0       	ldi	r23, 0x01	; 1
    2cb8:	61 96       	adiw	r28, 0x11	; 17
    2cba:	8e ad       	ldd	r24, Y+62	; 0x3e
    2cbc:	9f ad       	ldd	r25, Y+63	; 0x3f
    2cbe:	61 97       	sbiw	r28, 0x11	; 17
    2cc0:	e9 d3       	rcall	.+2002   	; 0x3494 <strcmp>
    2cc2:	89 2b       	or	r24, r25
    2cc4:	a1 f4       	brne	.+40     	; 0x2cee <main+0xb14>
    2cc6:	c2 5c       	subi	r28, 0xC2	; 194
    2cc8:	de 4f       	sbci	r29, 0xFE	; 254
    2cca:	e8 81       	ld	r30, Y
    2ccc:	f9 81       	ldd	r31, Y+1	; 0x01
    2cce:	ce 53       	subi	r28, 0x3E	; 62
    2cd0:	d1 40       	sbci	r29, 0x01	; 1
    2cd2:	09 95       	icall
    2cd4:	c0 5c       	subi	r28, 0xC0	; 192
    2cd6:	de 4f       	sbci	r29, 0xFE	; 254
    2cd8:	e8 81       	ld	r30, Y
    2cda:	f9 81       	ldd	r31, Y+1	; 0x01
    2cdc:	c0 54       	subi	r28, 0x40	; 64
    2cde:	d1 40       	sbci	r29, 0x01	; 1
    2ce0:	09 95       	icall
    2ce2:	f5 e3       	ldi	r31, 0x35	; 53
    2ce4:	c4 5b       	subi	r28, 0xB4	; 180
    2ce6:	de 4f       	sbci	r29, 0xFE	; 254
    2ce8:	f8 83       	st	Y, r31
    2cea:	cc 54       	subi	r28, 0x4C	; 76
							if(!strcmp(keypad.get().string,"6")){cal='6';keypad.flush();lcd0.clear();}
    2cec:	d1 40       	sbci	r29, 0x01	; 1
    2cee:	f4 01       	movw	r30, r8
    2cf0:	09 95       	icall
    2cf2:	2b 96       	adiw	r28, 0x0b	; 11
    2cf4:	5f af       	std	Y+63, r21	; 0x3f
    2cf6:	2b 97       	sbiw	r28, 0x0b	; 11
    2cf8:	2c 96       	adiw	r28, 0x0c	; 12
    2cfa:	6f af       	std	Y+63, r22	; 0x3f
    2cfc:	2c 97       	sbiw	r28, 0x0c	; 12
    2cfe:	6e e7       	ldi	r22, 0x7E	; 126
    2d00:	71 e0       	ldi	r23, 0x01	; 1
    2d02:	2c 96       	adiw	r28, 0x0c	; 12
    2d04:	8e ad       	ldd	r24, Y+62	; 0x3e
    2d06:	9f ad       	ldd	r25, Y+63	; 0x3f
    2d08:	2c 97       	sbiw	r28, 0x0c	; 12
    2d0a:	c4 d3       	rcall	.+1928   	; 0x3494 <strcmp>
    2d0c:	89 2b       	or	r24, r25
    2d0e:	a1 f4       	brne	.+40     	; 0x2d38 <main+0xb5e>
    2d10:	c2 5c       	subi	r28, 0xC2	; 194
    2d12:	de 4f       	sbci	r29, 0xFE	; 254
    2d14:	e8 81       	ld	r30, Y
    2d16:	f9 81       	ldd	r31, Y+1	; 0x01
    2d18:	ce 53       	subi	r28, 0x3E	; 62
    2d1a:	d1 40       	sbci	r29, 0x01	; 1
    2d1c:	09 95       	icall
    2d1e:	c0 5c       	subi	r28, 0xC0	; 192
    2d20:	de 4f       	sbci	r29, 0xFE	; 254
    2d22:	e8 81       	ld	r30, Y
    2d24:	f9 81       	ldd	r31, Y+1	; 0x01
    2d26:	c0 54       	subi	r28, 0x40	; 64
    2d28:	d1 40       	sbci	r29, 0x01	; 1
    2d2a:	09 95       	icall
    2d2c:	f6 e3       	ldi	r31, 0x36	; 54
    2d2e:	c4 5b       	subi	r28, 0xB4	; 180
    2d30:	de 4f       	sbci	r29, 0xFE	; 254
    2d32:	f8 83       	st	Y, r31
    2d34:	cc 54       	subi	r28, 0x4C	; 76
							//if(keypad.get().character=='1'){cal='1';keypad.flush();lcd0.clear();}
							if(!strcmp(keypad.get().string,"C")){Menu='1';keypad.flush();lcd0.clear();}
    2d36:	d1 40       	sbci	r29, 0x01	; 1
    2d38:	f4 01       	movw	r30, r8
    2d3a:	09 95       	icall
    2d3c:	26 96       	adiw	r28, 0x06	; 6
    2d3e:	5f af       	std	Y+63, r21	; 0x3f
    2d40:	26 97       	sbiw	r28, 0x06	; 6
    2d42:	27 96       	adiw	r28, 0x07	; 7
    2d44:	6f af       	std	Y+63, r22	; 0x3f
    2d46:	27 97       	sbiw	r28, 0x07	; 7
    2d48:	67 e2       	ldi	r22, 0x27	; 39
    2d4a:	71 e0       	ldi	r23, 0x01	; 1
    2d4c:	27 96       	adiw	r28, 0x07	; 7
    2d4e:	8e ad       	ldd	r24, Y+62	; 0x3e
    2d50:	9f ad       	ldd	r25, Y+63	; 0x3f
    2d52:	27 97       	sbiw	r28, 0x07	; 7
    2d54:	9f d3       	rcall	.+1854   	; 0x3494 <strcmp>
    2d56:	89 2b       	or	r24, r25
    2d58:	09 f0       	breq	.+2      	; 0x2d5c <main+0xb82>
    2d5a:	77 cb       	rjmp	.-2322   	; 0x244a <main+0x270>
    2d5c:	c2 5c       	subi	r28, 0xC2	; 194
    2d5e:	de 4f       	sbci	r29, 0xFE	; 254
    2d60:	e8 81       	ld	r30, Y
    2d62:	f9 81       	ldd	r31, Y+1	; 0x01
    2d64:	ce 53       	subi	r28, 0x3E	; 62
    2d66:	d1 40       	sbci	r29, 0x01	; 1
    2d68:	09 95       	icall
    2d6a:	c0 5c       	subi	r28, 0xC0	; 192
    2d6c:	de 4f       	sbci	r29, 0xFE	; 254
    2d6e:	e8 81       	ld	r30, Y
    2d70:	f9 81       	ldd	r31, Y+1	; 0x01
    2d72:	c0 54       	subi	r28, 0x40	; 64
    2d74:	d1 40       	sbci	r29, 0x01	; 1
    2d76:	09 95       	icall
    2d78:	f1 e3       	ldi	r31, 0x31	; 49
    2d7a:	c3 5c       	subi	r28, 0xC3	; 195
    2d7c:	de 4f       	sbci	r29, 0xFE	; 254
    2d7e:	f8 83       	st	Y, r31
    2d80:	cd 53       	subi	r28, 0x3D	; 61
    2d82:	d1 40       	sbci	r29, 0x01	; 1
    2d84:	62 cb       	rjmp	.-2364   	; 0x244a <main+0x270>
							break;
						/********************************************************************/
						case '1': // YEAR
							lcd0.gotoxy(1,0);
    2d86:	60 e0       	ldi	r22, 0x00	; 0
    2d88:	70 e0       	ldi	r23, 0x00	; 0
    2d8a:	81 e0       	ldi	r24, 0x01	; 1
    2d8c:	90 e0       	ldi	r25, 0x00	; 0
    2d8e:	f1 01       	movw	r30, r2
    2d90:	09 95       	icall
							lcd0.string_size("Enter Value:",9);
    2d92:	69 e0       	ldi	r22, 0x09	; 9
    2d94:	80 e8       	ldi	r24, 0x80	; 128
    2d96:	91 e0       	ldi	r25, 0x01	; 1
    2d98:	f3 01       	movw	r30, r6
    2d9a:	09 95       	icall
							lcd0.gotoxy(3,0);
    2d9c:	60 e0       	ldi	r22, 0x00	; 0
    2d9e:	70 e0       	ldi	r23, 0x00	; 0
    2da0:	83 e0       	ldi	r24, 0x03	; 3
    2da2:	90 e0       	ldi	r25, 0x00	; 0
    2da4:	f1 01       	movw	r30, r2
							lcd0.string_size("C - exit",8);	
    2da6:	09 95       	icall
    2da8:	68 e0       	ldi	r22, 0x08	; 8
    2daa:	8f e2       	ldi	r24, 0x2F	; 47
    2dac:	91 e0       	ldi	r25, 0x01	; 1
    2dae:	f3 01       	movw	r30, r6
							/***YEAR***/
							if(keypad.get().character==KEYPADENTERKEY){
    2db0:	09 95       	icall
    2db2:	f4 01       	movw	r30, r8
    2db4:	09 95       	icall
    2db6:	24 34       	cpi	r18, 0x44	; 68
    2db8:	09 f0       	breq	.+2      	; 0x2dbc <main+0xbe2>
								if(!strcmp(keypad.get().string,"C")){cal='0';keypad.flush();break;}
    2dba:	47 cb       	rjmp	.-2418   	; 0x244a <main+0x270>
    2dbc:	f4 01       	movw	r30, r8
    2dbe:	09 95       	icall
    2dc0:	5b af       	std	Y+59, r21	; 0x3b
    2dc2:	6c af       	std	Y+60, r22	; 0x3c
    2dc4:	67 e2       	ldi	r22, 0x27	; 39
    2dc6:	71 e0       	ldi	r23, 0x01	; 1
    2dc8:	8b ad       	ldd	r24, Y+59	; 0x3b
    2dca:	9c ad       	ldd	r25, Y+60	; 0x3c
    2dcc:	63 d3       	rcall	.+1734   	; 0x3494 <strcmp>
    2dce:	89 2b       	or	r24, r25
    2dd0:	71 f4       	brne	.+28     	; 0x2dee <main+0xc14>
    2dd2:	c2 5c       	subi	r28, 0xC2	; 194
    2dd4:	de 4f       	sbci	r29, 0xFE	; 254
    2dd6:	e8 81       	ld	r30, Y
    2dd8:	f9 81       	ldd	r31, Y+1	; 0x01
    2dda:	ce 53       	subi	r28, 0x3E	; 62
    2ddc:	d1 40       	sbci	r29, 0x01	; 1
    2dde:	09 95       	icall
    2de0:	f0 e3       	ldi	r31, 0x30	; 48
    2de2:	c4 5b       	subi	r28, 0xB4	; 180
    2de4:	de 4f       	sbci	r29, 0xFE	; 254
    2de6:	f8 83       	st	Y, r31
    2de8:	cc 54       	subi	r28, 0x4C	; 76
    2dea:	d1 40       	sbci	r29, 0x01	; 1
								strcpy(tstr,keypad.get().string);
    2dec:	2e cb       	rjmp	.-2468   	; 0x244a <main+0x270>
    2dee:	f4 01       	movw	r30, r8
    2df0:	09 95       	icall
    2df2:	5e ab       	std	Y+54, r21	; 0x36
    2df4:	6f ab       	std	Y+55, r22	; 0x37
    2df6:	6e a9       	ldd	r22, Y+54	; 0x36
    2df8:	7f a9       	ldd	r23, Y+55	; 0x37
    2dfa:	ce 01       	movw	r24, r28
    2dfc:	89 5c       	subi	r24, 0xC9	; 201
    2dfe:	9e 4f       	sbci	r25, 0xFE	; 254
    2e00:	52 d3       	rcall	.+1700   	; 0x34a6 <strcpy>
								set=function.strToInt(tstr);
    2e02:	ce 01       	movw	r24, r28
    2e04:	89 5c       	subi	r24, 0xC9	; 201
    2e06:	9e 4f       	sbci	r25, 0xFE	; 254
    2e08:	cd 5a       	subi	r28, 0xAD	; 173
    2e0a:	de 4f       	sbci	r29, 0xFE	; 254
    2e0c:	e8 81       	ld	r30, Y
    2e0e:	f9 81       	ldd	r31, Y+1	; 0x01
    2e10:	c3 55       	subi	r28, 0x53	; 83
    2e12:	d1 40       	sbci	r29, 0x01	; 1
    2e14:	09 95       	icall
								if(set >=0 && set <100){
    2e16:	84 36       	cpi	r24, 0x64	; 100
    2e18:	91 05       	cpc	r25, r1
    2e1a:	b0 f4       	brcc	.+44     	; 0x2e48 <main+0xc6e>
									rtc.SetYear(rtc.bintobcd(set));
    2e1c:	cf 5d       	subi	r28, 0xDF	; 223
    2e1e:	de 4f       	sbci	r29, 0xFE	; 254
    2e20:	08 81       	ld	r16, Y
    2e22:	19 81       	ldd	r17, Y+1	; 0x01
    2e24:	c1 52       	subi	r28, 0x21	; 33
    2e26:	d1 40       	sbci	r29, 0x01	; 1
    2e28:	cb 5a       	subi	r28, 0xAB	; 171
    2e2a:	de 4f       	sbci	r29, 0xFE	; 254
    2e2c:	e8 81       	ld	r30, Y
    2e2e:	f9 81       	ldd	r31, Y+1	; 0x01
    2e30:	c5 55       	subi	r28, 0x55	; 85
    2e32:	d1 40       	sbci	r29, 0x01	; 1
    2e34:	09 95       	icall
    2e36:	f8 01       	movw	r30, r16
    2e38:	09 95       	icall
									cal='0';
    2e3a:	f0 e3       	ldi	r31, 0x30	; 48
    2e3c:	c4 5b       	subi	r28, 0xB4	; 180
    2e3e:	de 4f       	sbci	r29, 0xFE	; 254
    2e40:	f8 83       	st	Y, r31
    2e42:	cc 54       	subi	r28, 0x4C	; 76
    2e44:	d1 40       	sbci	r29, 0x01	; 1
    2e46:	10 c0       	rjmp	.+32     	; 0x2e68 <main+0xc8e>
									}else{
									strcpy(tstr,"err");
    2e48:	85 e6       	ldi	r24, 0x65	; 101
    2e4a:	92 e7       	ldi	r25, 0x72	; 114
    2e4c:	c9 5c       	subi	r28, 0xC9	; 201
    2e4e:	de 4f       	sbci	r29, 0xFE	; 254
    2e50:	99 83       	std	Y+1, r25	; 0x01
    2e52:	88 83       	st	Y, r24
    2e54:	c7 53       	subi	r28, 0x37	; 55
    2e56:	d1 40       	sbci	r29, 0x01	; 1
    2e58:	82 e7       	ldi	r24, 0x72	; 114
    2e5a:	90 e0       	ldi	r25, 0x00	; 0
    2e5c:	c7 5c       	subi	r28, 0xC7	; 199
    2e5e:	de 4f       	sbci	r29, 0xFE	; 254
    2e60:	99 83       	std	Y+1, r25	; 0x01
    2e62:	88 83       	st	Y, r24
    2e64:	c9 53       	subi	r28, 0x39	; 57
    2e66:	d1 40       	sbci	r29, 0x01	; 1
								}
								keypad.flush();
    2e68:	c2 5c       	subi	r28, 0xC2	; 194
    2e6a:	de 4f       	sbci	r29, 0xFE	; 254
    2e6c:	e8 81       	ld	r30, Y
    2e6e:	f9 81       	ldd	r31, Y+1	; 0x01
    2e70:	ce 53       	subi	r28, 0x3E	; 62
    2e72:	d1 40       	sbci	r29, 0x01	; 1
    2e74:	09 95       	icall
    2e76:	e9 ca       	rjmp	.-2606   	; 0x244a <main+0x270>
							}
						break;
						/********************************************************************/
						case '2': // MONTH
							lcd0.gotoxy(1,0);
    2e78:	60 e0       	ldi	r22, 0x00	; 0
    2e7a:	70 e0       	ldi	r23, 0x00	; 0
    2e7c:	81 e0       	ldi	r24, 0x01	; 1
    2e7e:	90 e0       	ldi	r25, 0x00	; 0
    2e80:	f1 01       	movw	r30, r2
    2e82:	09 95       	icall
							lcd0.string_size("Enter Value:",9);
    2e84:	69 e0       	ldi	r22, 0x09	; 9
    2e86:	80 e8       	ldi	r24, 0x80	; 128
    2e88:	91 e0       	ldi	r25, 0x01	; 1
    2e8a:	f3 01       	movw	r30, r6
    2e8c:	09 95       	icall
							lcd0.gotoxy(3,0);
    2e8e:	60 e0       	ldi	r22, 0x00	; 0
    2e90:	70 e0       	ldi	r23, 0x00	; 0
    2e92:	83 e0       	ldi	r24, 0x03	; 3
    2e94:	90 e0       	ldi	r25, 0x00	; 0
    2e96:	f1 01       	movw	r30, r2
							lcd0.string_size("C - exit",8);
    2e98:	09 95       	icall
    2e9a:	68 e0       	ldi	r22, 0x08	; 8
    2e9c:	8f e2       	ldi	r24, 0x2F	; 47
    2e9e:	91 e0       	ldi	r25, 0x01	; 1
    2ea0:	f3 01       	movw	r30, r6
							/***MONTH***/
							if(keypad.get().character==KEYPADENTERKEY){
    2ea2:	09 95       	icall
    2ea4:	f4 01       	movw	r30, r8
    2ea6:	09 95       	icall
    2ea8:	24 34       	cpi	r18, 0x44	; 68
    2eaa:	09 f0       	breq	.+2      	; 0x2eae <main+0xcd4>
								strcpy(tstr,keypad.get().string);
    2eac:	ce ca       	rjmp	.-2660   	; 0x244a <main+0x270>
    2eae:	f4 01       	movw	r30, r8
    2eb0:	09 95       	icall
    2eb2:	5c a7       	std	Y+44, r21	; 0x2c
    2eb4:	6d a7       	std	Y+45, r22	; 0x2d
    2eb6:	6c a5       	ldd	r22, Y+44	; 0x2c
    2eb8:	7d a5       	ldd	r23, Y+45	; 0x2d
    2eba:	ce 01       	movw	r24, r28
    2ebc:	89 5c       	subi	r24, 0xC9	; 201
    2ebe:	9e 4f       	sbci	r25, 0xFE	; 254
								set=function.strToInt(tstr);
    2ec0:	f2 d2       	rcall	.+1508   	; 0x34a6 <strcpy>
    2ec2:	ce 01       	movw	r24, r28
    2ec4:	89 5c       	subi	r24, 0xC9	; 201
    2ec6:	9e 4f       	sbci	r25, 0xFE	; 254
    2ec8:	cd 5a       	subi	r28, 0xAD	; 173
    2eca:	de 4f       	sbci	r29, 0xFE	; 254
    2ecc:	e8 81       	ld	r30, Y
    2ece:	f9 81       	ldd	r31, Y+1	; 0x01
    2ed0:	c3 55       	subi	r28, 0x53	; 83
    2ed2:	d1 40       	sbci	r29, 0x01	; 1
    2ed4:	09 95       	icall
								if(!strcmp(tstr,"C")){cal='0';keypad.flush();break;}
    2ed6:	8c 01       	movw	r16, r24
    2ed8:	67 e2       	ldi	r22, 0x27	; 39
    2eda:	71 e0       	ldi	r23, 0x01	; 1
    2edc:	ce 01       	movw	r24, r28
    2ede:	89 5c       	subi	r24, 0xC9	; 201
    2ee0:	9e 4f       	sbci	r25, 0xFE	; 254
    2ee2:	d8 d2       	rcall	.+1456   	; 0x3494 <strcmp>
    2ee4:	89 2b       	or	r24, r25
    2ee6:	71 f4       	brne	.+28     	; 0x2f04 <main+0xd2a>
    2ee8:	c2 5c       	subi	r28, 0xC2	; 194
    2eea:	de 4f       	sbci	r29, 0xFE	; 254
    2eec:	e8 81       	ld	r30, Y
    2eee:	f9 81       	ldd	r31, Y+1	; 0x01
    2ef0:	ce 53       	subi	r28, 0x3E	; 62
    2ef2:	d1 40       	sbci	r29, 0x01	; 1
    2ef4:	09 95       	icall
    2ef6:	f0 e3       	ldi	r31, 0x30	; 48
    2ef8:	c4 5b       	subi	r28, 0xB4	; 180
    2efa:	de 4f       	sbci	r29, 0xFE	; 254
    2efc:	f8 83       	st	Y, r31
    2efe:	cc 54       	subi	r28, 0x4C	; 76
    2f00:	d1 40       	sbci	r29, 0x01	; 1
    2f02:	a3 ca       	rjmp	.-2746   	; 0x244a <main+0x270>
								if(set >=0 && set <13){
    2f04:	0d 30       	cpi	r16, 0x0D	; 13
    2f06:	11 05       	cpc	r17, r1
    2f08:	b8 f4       	brcc	.+46     	; 0x2f38 <main+0xd5e>
									rtc.SetMonth(rtc.bintobcd(set));
    2f0a:	c1 5e       	subi	r28, 0xE1	; 225
    2f0c:	de 4f       	sbci	r29, 0xFE	; 254
    2f0e:	48 80       	ld	r4, Y
    2f10:	59 80       	ldd	r5, Y+1	; 0x01
    2f12:	cf 51       	subi	r28, 0x1F	; 31
    2f14:	d1 40       	sbci	r29, 0x01	; 1
    2f16:	80 2f       	mov	r24, r16
    2f18:	cb 5a       	subi	r28, 0xAB	; 171
    2f1a:	de 4f       	sbci	r29, 0xFE	; 254
    2f1c:	e8 81       	ld	r30, Y
    2f1e:	f9 81       	ldd	r31, Y+1	; 0x01
    2f20:	c5 55       	subi	r28, 0x55	; 85
    2f22:	d1 40       	sbci	r29, 0x01	; 1
    2f24:	09 95       	icall
    2f26:	f2 01       	movw	r30, r4
    2f28:	09 95       	icall
									cal='0';
    2f2a:	f0 e3       	ldi	r31, 0x30	; 48
    2f2c:	c4 5b       	subi	r28, 0xB4	; 180
    2f2e:	de 4f       	sbci	r29, 0xFE	; 254
    2f30:	f8 83       	st	Y, r31
    2f32:	cc 54       	subi	r28, 0x4C	; 76
    2f34:	d1 40       	sbci	r29, 0x01	; 1
    2f36:	10 c0       	rjmp	.+32     	; 0x2f58 <main+0xd7e>
								}else{
									strcpy(tstr,"err");
    2f38:	85 e6       	ldi	r24, 0x65	; 101
    2f3a:	92 e7       	ldi	r25, 0x72	; 114
    2f3c:	c9 5c       	subi	r28, 0xC9	; 201
    2f3e:	de 4f       	sbci	r29, 0xFE	; 254
    2f40:	99 83       	std	Y+1, r25	; 0x01
    2f42:	88 83       	st	Y, r24
    2f44:	c7 53       	subi	r28, 0x37	; 55
    2f46:	d1 40       	sbci	r29, 0x01	; 1
    2f48:	82 e7       	ldi	r24, 0x72	; 114
    2f4a:	90 e0       	ldi	r25, 0x00	; 0
    2f4c:	c7 5c       	subi	r28, 0xC7	; 199
    2f4e:	de 4f       	sbci	r29, 0xFE	; 254
    2f50:	99 83       	std	Y+1, r25	; 0x01
    2f52:	88 83       	st	Y, r24
    2f54:	c9 53       	subi	r28, 0x39	; 57
    2f56:	d1 40       	sbci	r29, 0x01	; 1
								}
								keypad.flush();
    2f58:	c2 5c       	subi	r28, 0xC2	; 194
    2f5a:	de 4f       	sbci	r29, 0xFE	; 254
    2f5c:	e8 81       	ld	r30, Y
    2f5e:	f9 81       	ldd	r31, Y+1	; 0x01
    2f60:	ce 53       	subi	r28, 0x3E	; 62
    2f62:	d1 40       	sbci	r29, 0x01	; 1
    2f64:	09 95       	icall
    2f66:	71 ca       	rjmp	.-2846   	; 0x244a <main+0x270>
							}
							break;
						/********************************************************************/
						case '3': // DAY
							lcd0.gotoxy(1,0);
    2f68:	60 e0       	ldi	r22, 0x00	; 0
    2f6a:	70 e0       	ldi	r23, 0x00	; 0
    2f6c:	81 e0       	ldi	r24, 0x01	; 1
    2f6e:	90 e0       	ldi	r25, 0x00	; 0
    2f70:	f1 01       	movw	r30, r2
    2f72:	09 95       	icall
							lcd0.string_size("Enter Value:",9);
    2f74:	69 e0       	ldi	r22, 0x09	; 9
    2f76:	80 e8       	ldi	r24, 0x80	; 128
    2f78:	91 e0       	ldi	r25, 0x01	; 1
    2f7a:	f3 01       	movw	r30, r6
    2f7c:	09 95       	icall
							lcd0.gotoxy(3,0);
    2f7e:	60 e0       	ldi	r22, 0x00	; 0
    2f80:	70 e0       	ldi	r23, 0x00	; 0
    2f82:	83 e0       	ldi	r24, 0x03	; 3
    2f84:	90 e0       	ldi	r25, 0x00	; 0
    2f86:	f1 01       	movw	r30, r2
							lcd0.string_size("C - exit",8);
    2f88:	09 95       	icall
    2f8a:	68 e0       	ldi	r22, 0x08	; 8
    2f8c:	8f e2       	ldi	r24, 0x2F	; 47
    2f8e:	91 e0       	ldi	r25, 0x01	; 1
    2f90:	f3 01       	movw	r30, r6
							/***DAY***/
							if(keypad.get().character==KEYPADENTERKEY){
    2f92:	09 95       	icall
    2f94:	f4 01       	movw	r30, r8
    2f96:	09 95       	icall
    2f98:	24 34       	cpi	r18, 0x44	; 68
    2f9a:	09 f0       	breq	.+2      	; 0x2f9e <main+0xdc4>
								strcpy(tstr,keypad.get().string);
    2f9c:	56 ca       	rjmp	.-2900   	; 0x244a <main+0x270>
    2f9e:	f4 01       	movw	r30, r8
    2fa0:	09 95       	icall
    2fa2:	5a a3       	std	Y+34, r21	; 0x22
    2fa4:	6b a3       	std	Y+35, r22	; 0x23
    2fa6:	6a a1       	ldd	r22, Y+34	; 0x22
    2fa8:	7b a1       	ldd	r23, Y+35	; 0x23
    2faa:	ce 01       	movw	r24, r28
    2fac:	89 5c       	subi	r24, 0xC9	; 201
    2fae:	9e 4f       	sbci	r25, 0xFE	; 254
								set=function.strToInt(tstr);
    2fb0:	7a d2       	rcall	.+1268   	; 0x34a6 <strcpy>
    2fb2:	ce 01       	movw	r24, r28
    2fb4:	89 5c       	subi	r24, 0xC9	; 201
    2fb6:	9e 4f       	sbci	r25, 0xFE	; 254
    2fb8:	cd 5a       	subi	r28, 0xAD	; 173
    2fba:	de 4f       	sbci	r29, 0xFE	; 254
    2fbc:	e8 81       	ld	r30, Y
    2fbe:	f9 81       	ldd	r31, Y+1	; 0x01
    2fc0:	c3 55       	subi	r28, 0x53	; 83
    2fc2:	d1 40       	sbci	r29, 0x01	; 1
    2fc4:	09 95       	icall
								if(!strcmp(tstr,"C")){cal='0';keypad.flush();break;}
    2fc6:	8c 01       	movw	r16, r24
    2fc8:	67 e2       	ldi	r22, 0x27	; 39
    2fca:	71 e0       	ldi	r23, 0x01	; 1
    2fcc:	ce 01       	movw	r24, r28
    2fce:	89 5c       	subi	r24, 0xC9	; 201
    2fd0:	9e 4f       	sbci	r25, 0xFE	; 254
    2fd2:	60 d2       	rcall	.+1216   	; 0x3494 <strcmp>
    2fd4:	89 2b       	or	r24, r25
    2fd6:	71 f4       	brne	.+28     	; 0x2ff4 <main+0xe1a>
    2fd8:	c2 5c       	subi	r28, 0xC2	; 194
    2fda:	de 4f       	sbci	r29, 0xFE	; 254
    2fdc:	e8 81       	ld	r30, Y
    2fde:	f9 81       	ldd	r31, Y+1	; 0x01
    2fe0:	ce 53       	subi	r28, 0x3E	; 62
    2fe2:	d1 40       	sbci	r29, 0x01	; 1
    2fe4:	09 95       	icall
    2fe6:	f0 e3       	ldi	r31, 0x30	; 48
    2fe8:	c4 5b       	subi	r28, 0xB4	; 180
    2fea:	de 4f       	sbci	r29, 0xFE	; 254
    2fec:	f8 83       	st	Y, r31
    2fee:	cc 54       	subi	r28, 0x4C	; 76
    2ff0:	d1 40       	sbci	r29, 0x01	; 1
    2ff2:	2b ca       	rjmp	.-2986   	; 0x244a <main+0x270>
								if(set >=0 && set <32){
    2ff4:	00 32       	cpi	r16, 0x20	; 32
    2ff6:	11 05       	cpc	r17, r1
    2ff8:	b8 f4       	brcc	.+46     	; 0x3028 <main+0xe4e>
									rtc.SetDay(rtc.bintobcd(set));
    2ffa:	c5 5e       	subi	r28, 0xE5	; 229
    2ffc:	de 4f       	sbci	r29, 0xFE	; 254
    2ffe:	48 80       	ld	r4, Y
    3000:	59 80       	ldd	r5, Y+1	; 0x01
    3002:	cb 51       	subi	r28, 0x1B	; 27
    3004:	d1 40       	sbci	r29, 0x01	; 1
    3006:	80 2f       	mov	r24, r16
    3008:	cb 5a       	subi	r28, 0xAB	; 171
    300a:	de 4f       	sbci	r29, 0xFE	; 254
    300c:	e8 81       	ld	r30, Y
    300e:	f9 81       	ldd	r31, Y+1	; 0x01
    3010:	c5 55       	subi	r28, 0x55	; 85
    3012:	d1 40       	sbci	r29, 0x01	; 1
    3014:	09 95       	icall
    3016:	f2 01       	movw	r30, r4
    3018:	09 95       	icall
									cal='0';
    301a:	f0 e3       	ldi	r31, 0x30	; 48
    301c:	c4 5b       	subi	r28, 0xB4	; 180
    301e:	de 4f       	sbci	r29, 0xFE	; 254
    3020:	f8 83       	st	Y, r31
    3022:	cc 54       	subi	r28, 0x4C	; 76
    3024:	d1 40       	sbci	r29, 0x01	; 1
    3026:	10 c0       	rjmp	.+32     	; 0x3048 <main+0xe6e>
								}else{
									strcpy(tstr,"err");
    3028:	85 e6       	ldi	r24, 0x65	; 101
    302a:	92 e7       	ldi	r25, 0x72	; 114
    302c:	c9 5c       	subi	r28, 0xC9	; 201
    302e:	de 4f       	sbci	r29, 0xFE	; 254
    3030:	99 83       	std	Y+1, r25	; 0x01
    3032:	88 83       	st	Y, r24
    3034:	c7 53       	subi	r28, 0x37	; 55
    3036:	d1 40       	sbci	r29, 0x01	; 1
    3038:	82 e7       	ldi	r24, 0x72	; 114
    303a:	90 e0       	ldi	r25, 0x00	; 0
    303c:	c7 5c       	subi	r28, 0xC7	; 199
    303e:	de 4f       	sbci	r29, 0xFE	; 254
    3040:	99 83       	std	Y+1, r25	; 0x01
    3042:	88 83       	st	Y, r24
    3044:	c9 53       	subi	r28, 0x39	; 57
    3046:	d1 40       	sbci	r29, 0x01	; 1
								}
								keypad.flush();
    3048:	c2 5c       	subi	r28, 0xC2	; 194
    304a:	de 4f       	sbci	r29, 0xFE	; 254
    304c:	e8 81       	ld	r30, Y
    304e:	f9 81       	ldd	r31, Y+1	; 0x01
    3050:	ce 53       	subi	r28, 0x3E	; 62
    3052:	d1 40       	sbci	r29, 0x01	; 1
    3054:	09 95       	icall
    3056:	f9 c9       	rjmp	.-3086   	; 0x244a <main+0x270>
							}
						break;
						/********************************************************************/
						case '4': // HOUR
							lcd0.gotoxy(1,0);
    3058:	60 e0       	ldi	r22, 0x00	; 0
    305a:	70 e0       	ldi	r23, 0x00	; 0
    305c:	81 e0       	ldi	r24, 0x01	; 1
    305e:	90 e0       	ldi	r25, 0x00	; 0
    3060:	f1 01       	movw	r30, r2
    3062:	09 95       	icall
							lcd0.string_size("Enter Value:",9);
    3064:	69 e0       	ldi	r22, 0x09	; 9
    3066:	80 e8       	ldi	r24, 0x80	; 128
    3068:	91 e0       	ldi	r25, 0x01	; 1
    306a:	f3 01       	movw	r30, r6
							lcd0.gotoxy(3,0);
    306c:	09 95       	icall
    306e:	60 e0       	ldi	r22, 0x00	; 0
    3070:	70 e0       	ldi	r23, 0x00	; 0
    3072:	83 e0       	ldi	r24, 0x03	; 3
    3074:	90 e0       	ldi	r25, 0x00	; 0
    3076:	f1 01       	movw	r30, r2
							lcd0.string_size("C - exit",8);
    3078:	09 95       	icall
    307a:	68 e0       	ldi	r22, 0x08	; 8
    307c:	8f e2       	ldi	r24, 0x2F	; 47
    307e:	91 e0       	ldi	r25, 0x01	; 1
    3080:	f3 01       	movw	r30, r6
							/***HOUR***/
							if(keypad.get().character==KEYPADENTERKEY){
    3082:	09 95       	icall
    3084:	f4 01       	movw	r30, r8
    3086:	09 95       	icall
    3088:	24 34       	cpi	r18, 0x44	; 68
								strcpy(tstr,keypad.get().string);
    308a:	09 f0       	breq	.+2      	; 0x308e <main+0xeb4>
    308c:	de c9       	rjmp	.-3140   	; 0x244a <main+0x270>
    308e:	f4 01       	movw	r30, r8
    3090:	09 95       	icall
    3092:	58 8f       	std	Y+24, r21	; 0x18
    3094:	69 8f       	std	Y+25, r22	; 0x19
    3096:	68 8d       	ldd	r22, Y+24	; 0x18
    3098:	79 8d       	ldd	r23, Y+25	; 0x19
    309a:	ce 01       	movw	r24, r28
    309c:	89 5c       	subi	r24, 0xC9	; 201
    309e:	9e 4f       	sbci	r25, 0xFE	; 254
								set=function.strToInt(tstr);
    30a0:	02 d2       	rcall	.+1028   	; 0x34a6 <strcpy>
    30a2:	ce 01       	movw	r24, r28
    30a4:	89 5c       	subi	r24, 0xC9	; 201
    30a6:	9e 4f       	sbci	r25, 0xFE	; 254
    30a8:	cd 5a       	subi	r28, 0xAD	; 173
    30aa:	de 4f       	sbci	r29, 0xFE	; 254
    30ac:	e8 81       	ld	r30, Y
    30ae:	f9 81       	ldd	r31, Y+1	; 0x01
    30b0:	c3 55       	subi	r28, 0x53	; 83
    30b2:	d1 40       	sbci	r29, 0x01	; 1
    30b4:	09 95       	icall
								if(!strcmp(tstr,"C")){cal='0';keypad.flush();break;}
    30b6:	8c 01       	movw	r16, r24
    30b8:	67 e2       	ldi	r22, 0x27	; 39
    30ba:	71 e0       	ldi	r23, 0x01	; 1
    30bc:	ce 01       	movw	r24, r28
    30be:	89 5c       	subi	r24, 0xC9	; 201
    30c0:	9e 4f       	sbci	r25, 0xFE	; 254
    30c2:	e8 d1       	rcall	.+976    	; 0x3494 <strcmp>
    30c4:	89 2b       	or	r24, r25
    30c6:	71 f4       	brne	.+28     	; 0x30e4 <main+0xf0a>
    30c8:	c2 5c       	subi	r28, 0xC2	; 194
    30ca:	de 4f       	sbci	r29, 0xFE	; 254
    30cc:	e8 81       	ld	r30, Y
    30ce:	f9 81       	ldd	r31, Y+1	; 0x01
    30d0:	ce 53       	subi	r28, 0x3E	; 62
    30d2:	d1 40       	sbci	r29, 0x01	; 1
    30d4:	09 95       	icall
    30d6:	f0 e3       	ldi	r31, 0x30	; 48
    30d8:	c4 5b       	subi	r28, 0xB4	; 180
    30da:	de 4f       	sbci	r29, 0xFE	; 254
    30dc:	f8 83       	st	Y, r31
    30de:	cc 54       	subi	r28, 0x4C	; 76
    30e0:	d1 40       	sbci	r29, 0x01	; 1
    30e2:	b3 c9       	rjmp	.-3226   	; 0x244a <main+0x270>
								if(set >=0 && set <24){
    30e4:	08 31       	cpi	r16, 0x18	; 24
    30e6:	11 05       	cpc	r17, r1
    30e8:	b8 f4       	brcc	.+46     	; 0x3118 <main+0xf3e>
									rtc.SetHour(rtc.bintobcd(set));
    30ea:	cf 5e       	subi	r28, 0xEF	; 239
    30ec:	de 4f       	sbci	r29, 0xFE	; 254
    30ee:	48 80       	ld	r4, Y
    30f0:	59 80       	ldd	r5, Y+1	; 0x01
    30f2:	c1 51       	subi	r28, 0x11	; 17
    30f4:	d1 40       	sbci	r29, 0x01	; 1
    30f6:	80 2f       	mov	r24, r16
    30f8:	cb 5a       	subi	r28, 0xAB	; 171
    30fa:	de 4f       	sbci	r29, 0xFE	; 254
    30fc:	e8 81       	ld	r30, Y
    30fe:	f9 81       	ldd	r31, Y+1	; 0x01
    3100:	c5 55       	subi	r28, 0x55	; 85
    3102:	d1 40       	sbci	r29, 0x01	; 1
    3104:	09 95       	icall
    3106:	f2 01       	movw	r30, r4
    3108:	09 95       	icall
									cal='0';
    310a:	f0 e3       	ldi	r31, 0x30	; 48
    310c:	c4 5b       	subi	r28, 0xB4	; 180
    310e:	de 4f       	sbci	r29, 0xFE	; 254
    3110:	f8 83       	st	Y, r31
    3112:	cc 54       	subi	r28, 0x4C	; 76
    3114:	d1 40       	sbci	r29, 0x01	; 1
    3116:	10 c0       	rjmp	.+32     	; 0x3138 <main+0xf5e>
								}else{
									strcpy(tstr,"err");
    3118:	85 e6       	ldi	r24, 0x65	; 101
    311a:	92 e7       	ldi	r25, 0x72	; 114
    311c:	c9 5c       	subi	r28, 0xC9	; 201
    311e:	de 4f       	sbci	r29, 0xFE	; 254
    3120:	99 83       	std	Y+1, r25	; 0x01
    3122:	88 83       	st	Y, r24
    3124:	c7 53       	subi	r28, 0x37	; 55
    3126:	d1 40       	sbci	r29, 0x01	; 1
    3128:	82 e7       	ldi	r24, 0x72	; 114
    312a:	90 e0       	ldi	r25, 0x00	; 0
    312c:	c7 5c       	subi	r28, 0xC7	; 199
    312e:	de 4f       	sbci	r29, 0xFE	; 254
    3130:	99 83       	std	Y+1, r25	; 0x01
    3132:	88 83       	st	Y, r24
    3134:	c9 53       	subi	r28, 0x39	; 57
    3136:	d1 40       	sbci	r29, 0x01	; 1
								}
								keypad.flush();
    3138:	c2 5c       	subi	r28, 0xC2	; 194
    313a:	de 4f       	sbci	r29, 0xFE	; 254
    313c:	e8 81       	ld	r30, Y
    313e:	f9 81       	ldd	r31, Y+1	; 0x01
    3140:	ce 53       	subi	r28, 0x3E	; 62
    3142:	d1 40       	sbci	r29, 0x01	; 1
    3144:	09 95       	icall
    3146:	81 c9       	rjmp	.-3326   	; 0x244a <main+0x270>
							}
						break;
						/********************************************************************/
						case '5': // MINUTE
							lcd0.gotoxy(1,0);
    3148:	60 e0       	ldi	r22, 0x00	; 0
    314a:	70 e0       	ldi	r23, 0x00	; 0
    314c:	81 e0       	ldi	r24, 0x01	; 1
    314e:	90 e0       	ldi	r25, 0x00	; 0
    3150:	f1 01       	movw	r30, r2
    3152:	09 95       	icall
							lcd0.string_size("Enter Value:",9);
    3154:	69 e0       	ldi	r22, 0x09	; 9
    3156:	80 e8       	ldi	r24, 0x80	; 128
    3158:	91 e0       	ldi	r25, 0x01	; 1
    315a:	f3 01       	movw	r30, r6
							lcd0.gotoxy(3,0);
    315c:	09 95       	icall
    315e:	60 e0       	ldi	r22, 0x00	; 0
    3160:	70 e0       	ldi	r23, 0x00	; 0
    3162:	83 e0       	ldi	r24, 0x03	; 3
    3164:	90 e0       	ldi	r25, 0x00	; 0
    3166:	f1 01       	movw	r30, r2
							lcd0.string_size("C - exit",8);
    3168:	09 95       	icall
    316a:	68 e0       	ldi	r22, 0x08	; 8
    316c:	8f e2       	ldi	r24, 0x2F	; 47
    316e:	91 e0       	ldi	r25, 0x01	; 1
    3170:	f3 01       	movw	r30, r6
							/***MINUTE***/
							if(keypad.get().character==KEYPADENTERKEY){
    3172:	09 95       	icall
    3174:	f4 01       	movw	r30, r8
    3176:	09 95       	icall
    3178:	24 34       	cpi	r18, 0x44	; 68
								strcpy(tstr,keypad.get().string);
    317a:	09 f0       	breq	.+2      	; 0x317e <main+0xfa4>
    317c:	66 c9       	rjmp	.-3380   	; 0x244a <main+0x270>
    317e:	f4 01       	movw	r30, r8
    3180:	09 95       	icall
    3182:	5e 87       	std	Y+14, r21	; 0x0e
    3184:	6f 87       	std	Y+15, r22	; 0x0f
    3186:	6e 85       	ldd	r22, Y+14	; 0x0e
    3188:	7f 85       	ldd	r23, Y+15	; 0x0f
    318a:	ce 01       	movw	r24, r28
    318c:	89 5c       	subi	r24, 0xC9	; 201
    318e:	9e 4f       	sbci	r25, 0xFE	; 254
								set=function.strToInt(tstr);
    3190:	8a d1       	rcall	.+788    	; 0x34a6 <strcpy>
    3192:	ce 01       	movw	r24, r28
    3194:	89 5c       	subi	r24, 0xC9	; 201
    3196:	9e 4f       	sbci	r25, 0xFE	; 254
    3198:	cd 5a       	subi	r28, 0xAD	; 173
    319a:	de 4f       	sbci	r29, 0xFE	; 254
    319c:	e8 81       	ld	r30, Y
    319e:	f9 81       	ldd	r31, Y+1	; 0x01
    31a0:	c3 55       	subi	r28, 0x53	; 83
    31a2:	d1 40       	sbci	r29, 0x01	; 1
    31a4:	09 95       	icall
								if(!strcmp(tstr,"C")){cal='0';keypad.flush();break;}
    31a6:	8c 01       	movw	r16, r24
    31a8:	67 e2       	ldi	r22, 0x27	; 39
    31aa:	71 e0       	ldi	r23, 0x01	; 1
    31ac:	ce 01       	movw	r24, r28
    31ae:	89 5c       	subi	r24, 0xC9	; 201
    31b0:	9e 4f       	sbci	r25, 0xFE	; 254
    31b2:	70 d1       	rcall	.+736    	; 0x3494 <strcmp>
    31b4:	89 2b       	or	r24, r25
    31b6:	71 f4       	brne	.+28     	; 0x31d4 <main+0xffa>
    31b8:	c2 5c       	subi	r28, 0xC2	; 194
    31ba:	de 4f       	sbci	r29, 0xFE	; 254
    31bc:	e8 81       	ld	r30, Y
    31be:	f9 81       	ldd	r31, Y+1	; 0x01
    31c0:	ce 53       	subi	r28, 0x3E	; 62
    31c2:	d1 40       	sbci	r29, 0x01	; 1
    31c4:	09 95       	icall
    31c6:	f0 e3       	ldi	r31, 0x30	; 48
    31c8:	c4 5b       	subi	r28, 0xB4	; 180
    31ca:	de 4f       	sbci	r29, 0xFE	; 254
    31cc:	f8 83       	st	Y, r31
    31ce:	cc 54       	subi	r28, 0x4C	; 76
    31d0:	d1 40       	sbci	r29, 0x01	; 1
    31d2:	3b c9       	rjmp	.-3466   	; 0x244a <main+0x270>
								if(set >=0 && set <60){
    31d4:	0c 33       	cpi	r16, 0x3C	; 60
    31d6:	11 05       	cpc	r17, r1
    31d8:	b8 f4       	brcc	.+46     	; 0x3208 <main+0x102e>
									rtc.SetMinute(rtc.bintobcd(set));
    31da:	cd 5e       	subi	r28, 0xED	; 237
    31dc:	de 4f       	sbci	r29, 0xFE	; 254
    31de:	48 80       	ld	r4, Y
    31e0:	59 80       	ldd	r5, Y+1	; 0x01
    31e2:	c3 51       	subi	r28, 0x13	; 19
    31e4:	d1 40       	sbci	r29, 0x01	; 1
    31e6:	80 2f       	mov	r24, r16
    31e8:	cb 5a       	subi	r28, 0xAB	; 171
    31ea:	de 4f       	sbci	r29, 0xFE	; 254
    31ec:	e8 81       	ld	r30, Y
    31ee:	f9 81       	ldd	r31, Y+1	; 0x01
    31f0:	c5 55       	subi	r28, 0x55	; 85
    31f2:	d1 40       	sbci	r29, 0x01	; 1
    31f4:	09 95       	icall
    31f6:	f2 01       	movw	r30, r4
    31f8:	09 95       	icall
									cal='0';
    31fa:	f0 e3       	ldi	r31, 0x30	; 48
    31fc:	c4 5b       	subi	r28, 0xB4	; 180
    31fe:	de 4f       	sbci	r29, 0xFE	; 254
    3200:	f8 83       	st	Y, r31
    3202:	cc 54       	subi	r28, 0x4C	; 76
    3204:	d1 40       	sbci	r29, 0x01	; 1
    3206:	10 c0       	rjmp	.+32     	; 0x3228 <main+0x104e>
								}else{
									strcpy(tstr,"err");
    3208:	85 e6       	ldi	r24, 0x65	; 101
    320a:	92 e7       	ldi	r25, 0x72	; 114
    320c:	c9 5c       	subi	r28, 0xC9	; 201
    320e:	de 4f       	sbci	r29, 0xFE	; 254
    3210:	99 83       	std	Y+1, r25	; 0x01
    3212:	88 83       	st	Y, r24
    3214:	c7 53       	subi	r28, 0x37	; 55
    3216:	d1 40       	sbci	r29, 0x01	; 1
    3218:	82 e7       	ldi	r24, 0x72	; 114
    321a:	90 e0       	ldi	r25, 0x00	; 0
    321c:	c7 5c       	subi	r28, 0xC7	; 199
    321e:	de 4f       	sbci	r29, 0xFE	; 254
    3220:	99 83       	std	Y+1, r25	; 0x01
    3222:	88 83       	st	Y, r24
    3224:	c9 53       	subi	r28, 0x39	; 57
    3226:	d1 40       	sbci	r29, 0x01	; 1
								}
								keypad.flush();
    3228:	c2 5c       	subi	r28, 0xC2	; 194
    322a:	de 4f       	sbci	r29, 0xFE	; 254
    322c:	e8 81       	ld	r30, Y
    322e:	f9 81       	ldd	r31, Y+1	; 0x01
    3230:	ce 53       	subi	r28, 0x3E	; 62
    3232:	d1 40       	sbci	r29, 0x01	; 1
    3234:	09 95       	icall
    3236:	09 c9       	rjmp	.-3566   	; 0x244a <main+0x270>
							}
						break;
						/********************************************************************/
						case '6': // SECOND
							lcd0.gotoxy(1,0);
    3238:	60 e0       	ldi	r22, 0x00	; 0
    323a:	70 e0       	ldi	r23, 0x00	; 0
    323c:	81 e0       	ldi	r24, 0x01	; 1
    323e:	90 e0       	ldi	r25, 0x00	; 0
    3240:	f1 01       	movw	r30, r2
							lcd0.string_size("Enter Value:",9);
    3242:	09 95       	icall
    3244:	69 e0       	ldi	r22, 0x09	; 9
    3246:	80 e8       	ldi	r24, 0x80	; 128
    3248:	91 e0       	ldi	r25, 0x01	; 1
    324a:	f3 01       	movw	r30, r6
							lcd0.gotoxy(3,0);
    324c:	09 95       	icall
    324e:	60 e0       	ldi	r22, 0x00	; 0
    3250:	70 e0       	ldi	r23, 0x00	; 0
    3252:	83 e0       	ldi	r24, 0x03	; 3
    3254:	90 e0       	ldi	r25, 0x00	; 0
    3256:	f1 01       	movw	r30, r2
							lcd0.string_size("C - exit",8);
    3258:	09 95       	icall
    325a:	68 e0       	ldi	r22, 0x08	; 8
    325c:	8f e2       	ldi	r24, 0x2F	; 47
    325e:	91 e0       	ldi	r25, 0x01	; 1
    3260:	f3 01       	movw	r30, r6
							/***SECOND***/
							if(keypad.get().character==KEYPADENTERKEY){
    3262:	09 95       	icall
    3264:	f4 01       	movw	r30, r8
    3266:	09 95       	icall
    3268:	24 34       	cpi	r18, 0x44	; 68
								strcpy(tstr,keypad.get().string);
    326a:	09 f0       	breq	.+2      	; 0x326e <main+0x1094>
    326c:	ee c8       	rjmp	.-3620   	; 0x244a <main+0x270>
    326e:	f4 01       	movw	r30, r8
    3270:	09 95       	icall
    3272:	5c 83       	std	Y+4, r21	; 0x04
    3274:	6d 83       	std	Y+5, r22	; 0x05
    3276:	6c 81       	ldd	r22, Y+4	; 0x04
    3278:	7d 81       	ldd	r23, Y+5	; 0x05
    327a:	ce 01       	movw	r24, r28
    327c:	89 5c       	subi	r24, 0xC9	; 201
    327e:	9e 4f       	sbci	r25, 0xFE	; 254
								set=function.strToInt(tstr);
    3280:	12 d1       	rcall	.+548    	; 0x34a6 <strcpy>
    3282:	ce 01       	movw	r24, r28
    3284:	89 5c       	subi	r24, 0xC9	; 201
    3286:	9e 4f       	sbci	r25, 0xFE	; 254
    3288:	cd 5a       	subi	r28, 0xAD	; 173
    328a:	de 4f       	sbci	r29, 0xFE	; 254
    328c:	e8 81       	ld	r30, Y
    328e:	f9 81       	ldd	r31, Y+1	; 0x01
    3290:	c3 55       	subi	r28, 0x53	; 83
    3292:	d1 40       	sbci	r29, 0x01	; 1
    3294:	09 95       	icall
								if(!strcmp(tstr,"C")){cal='0';keypad.flush();break;}
    3296:	8c 01       	movw	r16, r24
    3298:	67 e2       	ldi	r22, 0x27	; 39
    329a:	71 e0       	ldi	r23, 0x01	; 1
    329c:	ce 01       	movw	r24, r28
    329e:	89 5c       	subi	r24, 0xC9	; 201
    32a0:	9e 4f       	sbci	r25, 0xFE	; 254
    32a2:	f8 d0       	rcall	.+496    	; 0x3494 <strcmp>
    32a4:	89 2b       	or	r24, r25
    32a6:	71 f4       	brne	.+28     	; 0x32c4 <main+0x10ea>
    32a8:	c2 5c       	subi	r28, 0xC2	; 194
    32aa:	de 4f       	sbci	r29, 0xFE	; 254
    32ac:	e8 81       	ld	r30, Y
    32ae:	f9 81       	ldd	r31, Y+1	; 0x01
    32b0:	ce 53       	subi	r28, 0x3E	; 62
    32b2:	d1 40       	sbci	r29, 0x01	; 1
    32b4:	09 95       	icall
    32b6:	f0 e3       	ldi	r31, 0x30	; 48
    32b8:	c4 5b       	subi	r28, 0xB4	; 180
    32ba:	de 4f       	sbci	r29, 0xFE	; 254
    32bc:	f8 83       	st	Y, r31
    32be:	cc 54       	subi	r28, 0x4C	; 76
    32c0:	d1 40       	sbci	r29, 0x01	; 1
    32c2:	c3 c8       	rjmp	.-3706   	; 0x244a <main+0x270>
								if(set >=0 && set <60){
    32c4:	0c 33       	cpi	r16, 0x3C	; 60
    32c6:	11 05       	cpc	r17, r1
    32c8:	b8 f4       	brcc	.+46     	; 0x32f8 <main+0x111e>
									rtc.SetSecond(rtc.bintobcd(set));
    32ca:	cb 5e       	subi	r28, 0xEB	; 235
    32cc:	de 4f       	sbci	r29, 0xFE	; 254
    32ce:	48 80       	ld	r4, Y
    32d0:	59 80       	ldd	r5, Y+1	; 0x01
    32d2:	c5 51       	subi	r28, 0x15	; 21
    32d4:	d1 40       	sbci	r29, 0x01	; 1
    32d6:	80 2f       	mov	r24, r16
    32d8:	cb 5a       	subi	r28, 0xAB	; 171
    32da:	de 4f       	sbci	r29, 0xFE	; 254
    32dc:	e8 81       	ld	r30, Y
    32de:	f9 81       	ldd	r31, Y+1	; 0x01
    32e0:	c5 55       	subi	r28, 0x55	; 85
    32e2:	d1 40       	sbci	r29, 0x01	; 1
    32e4:	09 95       	icall
    32e6:	f2 01       	movw	r30, r4
    32e8:	09 95       	icall
									cal='0';
    32ea:	f0 e3       	ldi	r31, 0x30	; 48
    32ec:	c4 5b       	subi	r28, 0xB4	; 180
    32ee:	de 4f       	sbci	r29, 0xFE	; 254
    32f0:	f8 83       	st	Y, r31
    32f2:	cc 54       	subi	r28, 0x4C	; 76
    32f4:	d1 40       	sbci	r29, 0x01	; 1
    32f6:	10 c0       	rjmp	.+32     	; 0x3318 <main+0x113e>
								}else{
									strcpy(tstr,"err");
    32f8:	85 e6       	ldi	r24, 0x65	; 101
    32fa:	92 e7       	ldi	r25, 0x72	; 114
    32fc:	c9 5c       	subi	r28, 0xC9	; 201
    32fe:	de 4f       	sbci	r29, 0xFE	; 254
    3300:	99 83       	std	Y+1, r25	; 0x01
    3302:	88 83       	st	Y, r24
    3304:	c7 53       	subi	r28, 0x37	; 55
    3306:	d1 40       	sbci	r29, 0x01	; 1
    3308:	82 e7       	ldi	r24, 0x72	; 114
    330a:	90 e0       	ldi	r25, 0x00	; 0
    330c:	c7 5c       	subi	r28, 0xC7	; 199
    330e:	de 4f       	sbci	r29, 0xFE	; 254
    3310:	99 83       	std	Y+1, r25	; 0x01
    3312:	88 83       	st	Y, r24
    3314:	c9 53       	subi	r28, 0x39	; 57
    3316:	d1 40       	sbci	r29, 0x01	; 1
								}
								keypad.flush();
    3318:	c2 5c       	subi	r28, 0xC2	; 194
    331a:	de 4f       	sbci	r29, 0xFE	; 254
    331c:	e8 81       	ld	r30, Y
    331e:	f9 81       	ldd	r31, Y+1	; 0x01
    3320:	ce 53       	subi	r28, 0x3E	; 62
    3322:	d1 40       	sbci	r29, 0x01	; 1
    3324:	09 95       	icall
    3326:	91 c8       	rjmp	.-3806   	; 0x244a <main+0x270>
	rtc.SetClkOut(1, 2);
	/**********/
	//TODO:: Please write your application code
	while(TRUE){
		//PREAMBLE
		lcd0.reboot();
    3328:	f2 01       	movw	r30, r4
    332a:	09 95       	icall
		keypad.read();
    332c:	f8 01       	movw	r30, r16
    332e:	09 95       	icall
		/***Entry Start***/
		lcd0.gotoxy(3,14);
    3330:	6e e0       	ldi	r22, 0x0E	; 14
    3332:	70 e0       	ldi	r23, 0x00	; 0
    3334:	83 e0       	ldi	r24, 0x03	; 3
    3336:	90 e0       	ldi	r25, 0x00	; 0
    3338:	f1 01       	movw	r30, r2
    333a:	09 95       	icall
		lcd0.string_size(keypad.get().printstring,6);
    333c:	f4 01       	movw	r30, r8
    333e:	09 95       	icall
    3340:	cd 56       	subi	r28, 0x6D	; 109
    3342:	df 4f       	sbci	r29, 0xFF	; 255
    3344:	38 83       	st	Y, r19
    3346:	c3 59       	subi	r28, 0x93	; 147
    3348:	d0 40       	sbci	r29, 0x00	; 0
    334a:	cc 56       	subi	r28, 0x6C	; 108
    334c:	df 4f       	sbci	r29, 0xFF	; 255
    334e:	48 83       	st	Y, r20
    3350:	c4 59       	subi	r28, 0x94	; 148
    3352:	d0 40       	sbci	r29, 0x00	; 0
    3354:	66 e0       	ldi	r22, 0x06	; 6
    3356:	cd 56       	subi	r28, 0x6D	; 109
    3358:	df 4f       	sbci	r29, 0xFF	; 255
    335a:	88 81       	ld	r24, Y
    335c:	99 81       	ldd	r25, Y+1	; 0x01
    335e:	c3 59       	subi	r28, 0x93	; 147
    3360:	d0 40       	sbci	r29, 0x00	; 0
    3362:	f3 01       	movw	r30, r6
    3364:	09 95       	icall
    3366:	aa c8       	rjmp	.-3756   	; 0x24bc <main+0x2e2>

00003368 <__mulsi3>:
    3368:	db 01       	movw	r26, r22
    336a:	8f 93       	push	r24
    336c:	9f 93       	push	r25
    336e:	88 d0       	rcall	.+272    	; 0x3480 <__muluhisi3>
    3370:	bf 91       	pop	r27
    3372:	af 91       	pop	r26
    3374:	a2 9f       	mul	r26, r18
    3376:	80 0d       	add	r24, r0
    3378:	91 1d       	adc	r25, r1
    337a:	a3 9f       	mul	r26, r19
    337c:	90 0d       	add	r25, r0
    337e:	b2 9f       	mul	r27, r18
    3380:	90 0d       	add	r25, r0
    3382:	11 24       	eor	r1, r1
    3384:	08 95       	ret

00003386 <__udivmodhi4>:
    3386:	aa 1b       	sub	r26, r26
    3388:	bb 1b       	sub	r27, r27
    338a:	51 e1       	ldi	r21, 0x11	; 17
    338c:	07 c0       	rjmp	.+14     	; 0x339c <__udivmodhi4_ep>

0000338e <__udivmodhi4_loop>:
    338e:	aa 1f       	adc	r26, r26
    3390:	bb 1f       	adc	r27, r27
    3392:	a6 17       	cp	r26, r22
    3394:	b7 07       	cpc	r27, r23
    3396:	10 f0       	brcs	.+4      	; 0x339c <__udivmodhi4_ep>
    3398:	a6 1b       	sub	r26, r22
    339a:	b7 0b       	sbc	r27, r23

0000339c <__udivmodhi4_ep>:
    339c:	88 1f       	adc	r24, r24
    339e:	99 1f       	adc	r25, r25
    33a0:	5a 95       	dec	r21
    33a2:	a9 f7       	brne	.-22     	; 0x338e <__udivmodhi4_loop>
    33a4:	80 95       	com	r24
    33a6:	90 95       	com	r25
    33a8:	bc 01       	movw	r22, r24
    33aa:	cd 01       	movw	r24, r26
    33ac:	08 95       	ret

000033ae <__divmodhi4>:
    33ae:	97 fb       	bst	r25, 7
    33b0:	07 2e       	mov	r0, r23
    33b2:	16 f4       	brtc	.+4      	; 0x33b8 <__divmodhi4+0xa>
    33b4:	00 94       	com	r0
    33b6:	06 d0       	rcall	.+12     	; 0x33c4 <__divmodhi4_neg1>
    33b8:	77 fd       	sbrc	r23, 7
    33ba:	08 d0       	rcall	.+16     	; 0x33cc <__divmodhi4_neg2>
    33bc:	e4 df       	rcall	.-56     	; 0x3386 <__udivmodhi4>
    33be:	07 fc       	sbrc	r0, 7
    33c0:	05 d0       	rcall	.+10     	; 0x33cc <__divmodhi4_neg2>
    33c2:	3e f4       	brtc	.+14     	; 0x33d2 <__divmodhi4_exit>

000033c4 <__divmodhi4_neg1>:
    33c4:	90 95       	com	r25
    33c6:	81 95       	neg	r24
    33c8:	9f 4f       	sbci	r25, 0xFF	; 255
    33ca:	08 95       	ret

000033cc <__divmodhi4_neg2>:
    33cc:	70 95       	com	r23
    33ce:	61 95       	neg	r22
    33d0:	7f 4f       	sbci	r23, 0xFF	; 255

000033d2 <__divmodhi4_exit>:
    33d2:	08 95       	ret

000033d4 <__udivmodsi4>:
    33d4:	a1 e2       	ldi	r26, 0x21	; 33
    33d6:	1a 2e       	mov	r1, r26
    33d8:	aa 1b       	sub	r26, r26
    33da:	bb 1b       	sub	r27, r27
    33dc:	fd 01       	movw	r30, r26
    33de:	0d c0       	rjmp	.+26     	; 0x33fa <__udivmodsi4_ep>

000033e0 <__udivmodsi4_loop>:
    33e0:	aa 1f       	adc	r26, r26
    33e2:	bb 1f       	adc	r27, r27
    33e4:	ee 1f       	adc	r30, r30
    33e6:	ff 1f       	adc	r31, r31
    33e8:	a2 17       	cp	r26, r18
    33ea:	b3 07       	cpc	r27, r19
    33ec:	e4 07       	cpc	r30, r20
    33ee:	f5 07       	cpc	r31, r21
    33f0:	20 f0       	brcs	.+8      	; 0x33fa <__udivmodsi4_ep>
    33f2:	a2 1b       	sub	r26, r18
    33f4:	b3 0b       	sbc	r27, r19
    33f6:	e4 0b       	sbc	r30, r20
    33f8:	f5 0b       	sbc	r31, r21

000033fa <__udivmodsi4_ep>:
    33fa:	66 1f       	adc	r22, r22
    33fc:	77 1f       	adc	r23, r23
    33fe:	88 1f       	adc	r24, r24
    3400:	99 1f       	adc	r25, r25
    3402:	1a 94       	dec	r1
    3404:	69 f7       	brne	.-38     	; 0x33e0 <__udivmodsi4_loop>
    3406:	60 95       	com	r22
    3408:	70 95       	com	r23
    340a:	80 95       	com	r24
    340c:	90 95       	com	r25
    340e:	9b 01       	movw	r18, r22
    3410:	ac 01       	movw	r20, r24
    3412:	bd 01       	movw	r22, r26
    3414:	cf 01       	movw	r24, r30
    3416:	08 95       	ret

00003418 <__divmodsi4>:
    3418:	05 2e       	mov	r0, r21
    341a:	97 fb       	bst	r25, 7
    341c:	16 f4       	brtc	.+4      	; 0x3422 <__divmodsi4+0xa>
    341e:	00 94       	com	r0
    3420:	0f d0       	rcall	.+30     	; 0x3440 <__negsi2>
    3422:	57 fd       	sbrc	r21, 7
    3424:	05 d0       	rcall	.+10     	; 0x3430 <__divmodsi4_neg2>
    3426:	d6 df       	rcall	.-84     	; 0x33d4 <__udivmodsi4>
    3428:	07 fc       	sbrc	r0, 7
    342a:	02 d0       	rcall	.+4      	; 0x3430 <__divmodsi4_neg2>
    342c:	46 f4       	brtc	.+16     	; 0x343e <__divmodsi4_exit>
    342e:	08 c0       	rjmp	.+16     	; 0x3440 <__negsi2>

00003430 <__divmodsi4_neg2>:
    3430:	50 95       	com	r21
    3432:	40 95       	com	r20
    3434:	30 95       	com	r19
    3436:	21 95       	neg	r18
    3438:	3f 4f       	sbci	r19, 0xFF	; 255
    343a:	4f 4f       	sbci	r20, 0xFF	; 255
    343c:	5f 4f       	sbci	r21, 0xFF	; 255

0000343e <__divmodsi4_exit>:
    343e:	08 95       	ret

00003440 <__negsi2>:
    3440:	90 95       	com	r25
    3442:	80 95       	com	r24
    3444:	70 95       	com	r23
    3446:	61 95       	neg	r22
    3448:	7f 4f       	sbci	r23, 0xFF	; 255
    344a:	8f 4f       	sbci	r24, 0xFF	; 255
    344c:	9f 4f       	sbci	r25, 0xFF	; 255
    344e:	08 95       	ret

00003450 <__tablejump2__>:
    3450:	ee 0f       	add	r30, r30
    3452:	ff 1f       	adc	r31, r31
    3454:	00 24       	eor	r0, r0
    3456:	00 1c       	adc	r0, r0
    3458:	0b be       	out	0x3b, r0	; 59
    345a:	07 90       	elpm	r0, Z+
    345c:	f6 91       	elpm	r31, Z
    345e:	e0 2d       	mov	r30, r0
    3460:	09 94       	ijmp

00003462 <__umulhisi3>:
    3462:	a2 9f       	mul	r26, r18
    3464:	b0 01       	movw	r22, r0
    3466:	b3 9f       	mul	r27, r19
    3468:	c0 01       	movw	r24, r0
    346a:	a3 9f       	mul	r26, r19
    346c:	70 0d       	add	r23, r0
    346e:	81 1d       	adc	r24, r1
    3470:	11 24       	eor	r1, r1
    3472:	91 1d       	adc	r25, r1
    3474:	b2 9f       	mul	r27, r18
    3476:	70 0d       	add	r23, r0
    3478:	81 1d       	adc	r24, r1
    347a:	11 24       	eor	r1, r1
    347c:	91 1d       	adc	r25, r1
    347e:	08 95       	ret

00003480 <__muluhisi3>:
    3480:	f0 df       	rcall	.-32     	; 0x3462 <__umulhisi3>
    3482:	a5 9f       	mul	r26, r21
    3484:	90 0d       	add	r25, r0
    3486:	b4 9f       	mul	r27, r20
    3488:	90 0d       	add	r25, r0
    348a:	a4 9f       	mul	r26, r20
    348c:	80 0d       	add	r24, r0
    348e:	91 1d       	adc	r25, r1
    3490:	11 24       	eor	r1, r1
    3492:	08 95       	ret

00003494 <strcmp>:
    3494:	fb 01       	movw	r30, r22
    3496:	dc 01       	movw	r26, r24
    3498:	8d 91       	ld	r24, X+
    349a:	01 90       	ld	r0, Z+
    349c:	80 19       	sub	r24, r0
    349e:	01 10       	cpse	r0, r1
    34a0:	d9 f3       	breq	.-10     	; 0x3498 <strcmp+0x4>
    34a2:	99 0b       	sbc	r25, r25
    34a4:	08 95       	ret

000034a6 <strcpy>:
    34a6:	fb 01       	movw	r30, r22
    34a8:	dc 01       	movw	r26, r24
    34aa:	01 90       	ld	r0, Z+
    34ac:	0d 92       	st	X+, r0
    34ae:	00 20       	and	r0, r0
    34b0:	e1 f7       	brne	.-8      	; 0x34aa <strcpy+0x4>
    34b2:	08 95       	ret

000034b4 <strncpy>:
    34b4:	fb 01       	movw	r30, r22
    34b6:	dc 01       	movw	r26, r24
    34b8:	41 50       	subi	r20, 0x01	; 1
    34ba:	50 40       	sbci	r21, 0x00	; 0
    34bc:	48 f0       	brcs	.+18     	; 0x34d0 <strncpy+0x1c>
    34be:	01 90       	ld	r0, Z+
    34c0:	0d 92       	st	X+, r0
    34c2:	00 20       	and	r0, r0
    34c4:	c9 f7       	brne	.-14     	; 0x34b8 <strncpy+0x4>
    34c6:	01 c0       	rjmp	.+2      	; 0x34ca <strncpy+0x16>
    34c8:	1d 92       	st	X+, r1
    34ca:	41 50       	subi	r20, 0x01	; 1
    34cc:	50 40       	sbci	r21, 0x00	; 0
    34ce:	e0 f7       	brcc	.-8      	; 0x34c8 <strncpy+0x14>
    34d0:	08 95       	ret

000034d2 <_exit>:
    34d2:	f8 94       	cli

000034d4 <__stop_program>:
    34d4:	ff cf       	rjmp	.-2      	; 0x34d4 <__stop_program>
