
Atmega128.elf:     file format elf32-avr

Sections:
Idx Name          Size      VMA       LMA       File off  Algn
  0 .data         00000034  00800100  000024f2  00002586  2**0
                  CONTENTS, ALLOC, LOAD, DATA
  1 .text         000024f2  00000000  00000000  00000094  2**1
                  CONTENTS, ALLOC, LOAD, READONLY, CODE
  2 .bss          00000148  00800134  00800134  000025ba  2**0
                  ALLOC
  3 .comment      00000030  00000000  00000000  000025ba  2**0
                  CONTENTS, READONLY
  4 .note.gnu.avr.deviceinfo 0000003c  00000000  00000000  000025ec  2**2
                  CONTENTS, READONLY
  5 .debug_aranges 00000620  00000000  00000000  00002628  2**0
                  CONTENTS, READONLY, DEBUGGING
  6 .debug_info   000066dc  00000000  00000000  00002c48  2**0
                  CONTENTS, READONLY, DEBUGGING
  7 .debug_abbrev 000019ed  00000000  00000000  00009324  2**0
                  CONTENTS, READONLY, DEBUGGING
  8 .debug_line   00003cdc  00000000  00000000  0000ad11  2**0
                  CONTENTS, READONLY, DEBUGGING
  9 .debug_frame  0000116c  00000000  00000000  0000e9f0  2**2
                  CONTENTS, READONLY, DEBUGGING
 10 .debug_str    000014d4  00000000  00000000  0000fb5c  2**0
                  CONTENTS, READONLY, DEBUGGING
 11 .debug_loc    00005ca5  00000000  00000000  00011030  2**0
                  CONTENTS, READONLY, DEBUGGING
 12 .debug_ranges 000005c0  00000000  00000000  00016cd5  2**0
                  CONTENTS, READONLY, DEBUGGING

Disassembly of section .text:

00000000 <__vectors>:
       0:	60 c0       	rjmp	.+192    	; 0xc2 <__ctors_end>
       2:	00 00       	nop
       4:	7d c0       	rjmp	.+250    	; 0x100 <__bad_interrupt>
       6:	00 00       	nop
       8:	7b c0       	rjmp	.+246    	; 0x100 <__bad_interrupt>
       a:	00 00       	nop
       c:	79 c0       	rjmp	.+242    	; 0x100 <__bad_interrupt>
       e:	00 00       	nop
      10:	77 c0       	rjmp	.+238    	; 0x100 <__bad_interrupt>
      12:	00 00       	nop
      14:	75 c0       	rjmp	.+234    	; 0x100 <__bad_interrupt>
      16:	00 00       	nop
      18:	73 c0       	rjmp	.+230    	; 0x100 <__bad_interrupt>
      1a:	00 00       	nop
      1c:	71 c0       	rjmp	.+226    	; 0x100 <__bad_interrupt>
      1e:	00 00       	nop
      20:	6f c0       	rjmp	.+222    	; 0x100 <__bad_interrupt>
      22:	00 00       	nop
      24:	6d c0       	rjmp	.+218    	; 0x100 <__bad_interrupt>
      26:	00 00       	nop
      28:	01 c4       	rjmp	.+2050   	; 0x82c <__vector_10>
      2a:	00 00       	nop
      2c:	cd c3       	rjmp	.+1946   	; 0x7c8 <__vector_11>
      2e:	00 00       	nop
      30:	d5 c3       	rjmp	.+1962   	; 0x7dc <__vector_12>
      32:	00 00       	nop
      34:	dd c3       	rjmp	.+1978   	; 0x7f0 <__vector_13>
      36:	00 00       	nop
      38:	ef c3       	rjmp	.+2014   	; 0x818 <__vector_14>
      3a:	00 00       	nop
      3c:	0c 94 9b 11 	jmp	0x2336	; 0x2336 <__vector_15>
      40:	b9 c3       	rjmp	.+1906   	; 0x7b4 <__vector_16>
      42:	00 00       	nop
      44:	5d c0       	rjmp	.+186    	; 0x100 <__bad_interrupt>
      46:	00 00       	nop
      48:	2d c4       	rjmp	.+2138   	; 0x8a4 <__vector_18>
      4a:	00 00       	nop
      4c:	63 c4       	rjmp	.+2246   	; 0x914 <__vector_19>
      4e:	00 00       	nop
      50:	57 c0       	rjmp	.+174    	; 0x100 <__bad_interrupt>
      52:	00 00       	nop
      54:	f6 c0       	rjmp	.+492    	; 0x242 <__vector_21>
      56:	00 00       	nop
      58:	53 c0       	rjmp	.+166    	; 0x100 <__bad_interrupt>
      5a:	00 00       	nop
      5c:	51 c0       	rjmp	.+162    	; 0x100 <__bad_interrupt>
      5e:	00 00       	nop
      60:	d1 c3       	rjmp	.+1954   	; 0x804 <__vector_24>
      62:	00 00       	nop
      64:	ed c3       	rjmp	.+2010   	; 0x840 <__vector_25>
      66:	00 00       	nop
      68:	f5 c3       	rjmp	.+2026   	; 0x854 <__vector_26>
      6a:	00 00       	nop
      6c:	fd c3       	rjmp	.+2042   	; 0x868 <__vector_27>
      6e:	00 00       	nop
      70:	05 c4       	rjmp	.+2058   	; 0x87c <__vector_28>
      72:	00 00       	nop
      74:	0d c4       	rjmp	.+2074   	; 0x890 <__vector_29>
      76:	00 00       	nop
      78:	76 c4       	rjmp	.+2284   	; 0x966 <__vector_30>
      7a:	00 00       	nop
      7c:	af c4       	rjmp	.+2398   	; 0x9dc <__vector_31>
      7e:	00 00       	nop
      80:	3f c0       	rjmp	.+126    	; 0x100 <__bad_interrupt>
      82:	00 00       	nop
      84:	3d c0       	rjmp	.+122    	; 0x100 <__bad_interrupt>
      86:	00 00       	nop
      88:	3b c0       	rjmp	.+118    	; 0x100 <__bad_interrupt>
      8a:	00 00       	nop
      8c:	fb 02       	muls	r31, r27
      8e:	ff 02       	muls	r31, r31
      90:	03 03       	mulsu	r16, r19
      92:	07 03       	mulsu	r16, r23
      94:	0b 03       	fmul	r16, r19
      96:	12 03       	mulsu	r17, r18
      98:	19 03       	fmul	r17, r17
      9a:	20 03       	mulsu	r18, r16
      9c:	24 03       	mulsu	r18, r20
      9e:	2b 03       	fmul	r18, r19
      a0:	32 03       	mulsu	r19, r18
      a2:	39 03       	fmul	r19, r17
      a4:	3d 03       	fmul	r19, r21
      a6:	44 03       	mulsu	r20, r20
      a8:	4b 03       	fmul	r20, r19
      aa:	67 03       	mulsu	r22, r23
      ac:	6b 03       	fmul	r22, r19
      ae:	6f 03       	fmul	r22, r23
      b0:	73 03       	mulsu	r23, r19
      b2:	79 03       	fmul	r23, r17
      b4:	7d 03       	fmul	r23, r21
      b6:	81 03       	fmuls	r16, r17
      b8:	85 03       	fmuls	r16, r21
      ba:	8e 03       	fmulsu	r16, r22
      bc:	92 03       	fmuls	r17, r18
      be:	96 03       	fmuls	r17, r22
      c0:	9f 03       	fmulsu	r17, r23

000000c2 <__ctors_end>:
      c2:	11 24       	eor	r1, r1
      c4:	1f be       	out	0x3f, r1	; 63
      c6:	cf ef       	ldi	r28, 0xFF	; 255
      c8:	d0 e1       	ldi	r29, 0x10	; 16
      ca:	de bf       	out	0x3e, r29	; 62
      cc:	cd bf       	out	0x3d, r28	; 61

000000ce <__do_copy_data>:
      ce:	11 e0       	ldi	r17, 0x01	; 1
      d0:	a0 e0       	ldi	r26, 0x00	; 0
      d2:	b1 e0       	ldi	r27, 0x01	; 1
      d4:	e2 ef       	ldi	r30, 0xF2	; 242
      d6:	f4 e2       	ldi	r31, 0x24	; 36
      d8:	00 e0       	ldi	r16, 0x00	; 0
      da:	0b bf       	out	0x3b, r16	; 59
      dc:	02 c0       	rjmp	.+4      	; 0xe2 <__do_copy_data+0x14>
      de:	07 90       	elpm	r0, Z+
      e0:	0d 92       	st	X+, r0
      e2:	a4 33       	cpi	r26, 0x34	; 52
      e4:	b1 07       	cpc	r27, r17
      e6:	d9 f7       	brne	.-10     	; 0xde <__do_copy_data+0x10>

000000e8 <__do_clear_bss>:
      e8:	22 e0       	ldi	r18, 0x02	; 2
      ea:	a4 e3       	ldi	r26, 0x34	; 52
      ec:	b1 e0       	ldi	r27, 0x01	; 1
      ee:	01 c0       	rjmp	.+2      	; 0xf2 <.do_clear_bss_start>

000000f0 <.do_clear_bss_loop>:
      f0:	1d 92       	st	X+, r1

000000f2 <.do_clear_bss_start>:
      f2:	ac 37       	cpi	r26, 0x7C	; 124
      f4:	b2 07       	cpc	r27, r18
      f6:	e1 f7       	brne	.-8      	; 0xf0 <.do_clear_bss_loop>
      f8:	0e 94 46 10 	call	0x208c	; 0x208c <main>
      fc:	0c 94 77 12 	jmp	0x24ee	; 0x24ee <_exit>

00000100 <__bad_interrupt>:
     100:	7f cf       	rjmp	.-258    	; 0x0 <__vectors>

00000102 <ANALOG_read>:
* Returns selected Channel ADC_VALUE
*/
{
	uint8_t ADSC_FLAG;
	ADSC_FLAG=(1<<ADSC);
	if( !(ADC_CONTROL & ADSC_FLAG) ){
     102:	36 9b       	sbis	0x06, 6	; 6
		//ADC_SELECT
		/***/
		ADC_CONTROL|=(1<<ADSC);
     104:	36 9a       	sbi	0x06, 6	; 6
	}	
	return ADC_VALUE[selection];
     106:	fc 01       	movw	r30, r24
     108:	ee 0f       	add	r30, r30
     10a:	ff 1f       	adc	r31, r31
     10c:	e3 5b       	subi	r30, 0xB3	; 179
     10e:	fe 4f       	sbci	r31, 0xFE	; 254
     110:	80 81       	ld	r24, Z
     112:	91 81       	ldd	r25, Z+1	; 0x01
}
     114:	08 95       	ret

00000116 <ANALOGenable>:
ANALOG ANALOGenable( uint8_t Vreff, uint8_t Divfactor, int n_channel, ... )
/*
* Interrupt running mode setup
* setup, and list of channels to be probed
*/
{
     116:	0f 93       	push	r16
     118:	1f 93       	push	r17
     11a:	cf 93       	push	r28
     11c:	df 93       	push	r29
     11e:	cd b7       	in	r28, 0x3d	; 61
     120:	de b7       	in	r29, 0x3e	; 62
     122:	9f 81       	ldd	r25, Y+7	; 0x07
     124:	68 85       	ldd	r22, Y+8	; 0x08
     126:	49 85       	ldd	r20, Y+9	; 0x09
     128:	5a 85       	ldd	r21, Y+10	; 0x0a
	/***LOCAL VARIABLES***/
	uint8_t tSREG;
	va_list list;
	int i;
	//inic variables
	tSREG=SREG;
     12a:	1f b7       	in	r17, 0x3f	; 63
	SREG&=~(1<<GLOBAL_INTERRUPT_ENABLE);
     12c:	8f b7       	in	r24, 0x3f	; 63
     12e:	8f 77       	andi	r24, 0x7F	; 127
     130:	8f bf       	out	0x3f, r24	; 63
	/***GLOBAL VARIABLES INICIALIZE***/
	ADC_N_CHANNEL=n_channel;
     132:	50 93 3c 01 	sts	0x013C, r21	; 0x80013c <ADC_N_CHANNEL+0x1>
     136:	40 93 3b 01 	sts	0x013B, r20	; 0x80013b <ADC_N_CHANNEL>
	ADC_SELECTOR=0;
     13a:	10 92 3a 01 	sts	0x013A, r1	; 0x80013a <ADC_SELECTOR+0x1>
     13e:	10 92 39 01 	sts	0x0139, r1	; 0x800139 <ADC_SELECTOR>
	adc_n_sample=0;
     142:	10 92 34 01 	sts	0x0134, r1	; 0x800134 <__data_end>
	//import parametros
	//inic parameters
	//Direccionar apontadores para PROTOTIPOS
	analog.read=ANALOG_read;
		/******/
		ADC_SELECT&=~(3<<REFS0);
     146:	87 b1       	in	r24, 0x07	; 7
     148:	8f 73       	andi	r24, 0x3F	; 63
     14a:	87 b9       	out	0x07, r24	; 7
		switch( Vreff ){
     14c:	91 30       	cpi	r25, 0x01	; 1
     14e:	19 f0       	breq	.+6      	; 0x156 <ANALOGenable+0x40>
     150:	93 30       	cpi	r25, 0x03	; 3
     152:	21 f0       	breq	.+8      	; 0x15c <ANALOGenable+0x46>
     154:	08 c0       	rjmp	.+16     	; 0x166 <ANALOGenable+0x50>
			case 0:
				analog.VREFF=0;
				break;
			case 1:
				ADC_SELECT|=(1<<REFS0);
     156:	3e 9a       	sbi	0x07, 6	; 7
				analog.VREFF=1;
     158:	01 e0       	ldi	r16, 0x01	; 1
				break;
     15a:	06 c0       	rjmp	.+12     	; 0x168 <ANALOGenable+0x52>
			case 3:
				ADC_SELECT|=(3<<REFS0);
     15c:	87 b1       	in	r24, 0x07	; 7
     15e:	80 6c       	ori	r24, 0xC0	; 192
     160:	87 b9       	out	0x07, r24	; 7
				analog.VREFF=3;
     162:	03 e0       	ldi	r16, 0x03	; 3
				break;
     164:	01 c0       	rjmp	.+2      	; 0x168 <ANALOGenable+0x52>
	analog.read=ANALOG_read;
		/******/
		ADC_SELECT&=~(3<<REFS0);
		switch( Vreff ){
			case 0:
				analog.VREFF=0;
     166:	00 e0       	ldi	r16, 0x00	; 0
			default:
				analog.VREFF=0;
				break;
		}
		//
		ADC_SELECT&=~(1<<ADLAR);
     168:	3d 98       	cbi	0x07, 5	; 7
		/******/
		va_start(list, n_channel);
		for(i=0;i<n_channel;i++){
     16a:	14 16       	cp	r1, r20
     16c:	15 06       	cpc	r1, r21
     16e:	8c f4       	brge	.+34     	; 0x192 <ANALOGenable+0x7c>
     170:	de 01       	movw	r26, r28
     172:	1b 96       	adiw	r26, 0x0b	; 11
     174:	80 e0       	ldi	r24, 0x00	; 0
     176:	90 e0       	ldi	r25, 0x00	; 0
			ADC_CHANNEL_GAIN[i] = va_arg(list, int);
     178:	2d 91       	ld	r18, X+
     17a:	3d 91       	ld	r19, X+
     17c:	fc 01       	movw	r30, r24
     17e:	ee 0f       	add	r30, r30
     180:	ff 1f       	adc	r31, r31
     182:	e3 5c       	subi	r30, 0xC3	; 195
     184:	fe 4f       	sbci	r31, 0xFE	; 254
     186:	31 83       	std	Z+1, r19	; 0x01
     188:	20 83       	st	Z, r18
		}
		//
		ADC_SELECT&=~(1<<ADLAR);
		/******/
		va_start(list, n_channel);
		for(i=0;i<n_channel;i++){
     18a:	01 96       	adiw	r24, 0x01	; 1
     18c:	48 17       	cp	r20, r24
     18e:	59 07       	cpc	r21, r25
     190:	99 f7       	brne	.-26     	; 0x178 <ANALOGenable+0x62>
			ADC_CHANNEL_GAIN[i] = va_arg(list, int);
		}
		va_end(list);
		ADC_SELECT&=~MUX_MASK;
     192:	87 b1       	in	r24, 0x07	; 7
     194:	80 7e       	andi	r24, 0xE0	; 224
     196:	87 b9       	out	0x07, r24	; 7
		ADC_SELECT|=(MUX_MASK & ADC_CHANNEL_GAIN[ADC_SELECTOR]);
     198:	e0 91 39 01 	lds	r30, 0x0139	; 0x800139 <ADC_SELECTOR>
     19c:	f0 91 3a 01 	lds	r31, 0x013A	; 0x80013a <ADC_SELECTOR+0x1>
     1a0:	ee 0f       	add	r30, r30
     1a2:	ff 1f       	adc	r31, r31
     1a4:	e3 5c       	subi	r30, 0xC3	; 195
     1a6:	fe 4f       	sbci	r31, 0xFE	; 254
     1a8:	80 81       	ld	r24, Z
     1aa:	91 81       	ldd	r25, Z+1	; 0x01
     1ac:	27 b1       	in	r18, 0x07	; 7
     1ae:	8f 71       	andi	r24, 0x1F	; 31
     1b0:	99 27       	eor	r25, r25
     1b2:	82 2b       	or	r24, r18
     1b4:	87 b9       	out	0x07, r24	; 7
		/******/
		ADC_CONTROL|=(1<<ADEN);
     1b6:	37 9a       	sbi	0x06, 7	; 6
		ADC_CONTROL|=(1<<ADSC);
     1b8:	36 9a       	sbi	0x06, 6	; 6
		ADC_CONTROL&=~(1<<ADFR);
     1ba:	35 98       	cbi	0x06, 5	; 6
		ADC_CONTROL|=(1<<ADIE);
     1bc:	33 9a       	sbi	0x06, 3	; 6
		/******/
		ADC_CONTROL&=~(7<<ADPS0);
     1be:	86 b1       	in	r24, 0x06	; 6
     1c0:	88 7f       	andi	r24, 0xF8	; 248
     1c2:	86 b9       	out	0x06, r24	; 6
		switch( Divfactor ){
     1c4:	60 31       	cpi	r22, 0x10	; 16
     1c6:	d1 f0       	breq	.+52     	; 0x1fc <ANALOGenable+0xe6>
     1c8:	38 f4       	brcc	.+14     	; 0x1d8 <ANALOGenable+0xc2>
     1ca:	64 30       	cpi	r22, 0x04	; 4
     1cc:	79 f0       	breq	.+30     	; 0x1ec <ANALOGenable+0xd6>
     1ce:	68 30       	cpi	r22, 0x08	; 8
     1d0:	81 f0       	breq	.+32     	; 0x1f2 <ANALOGenable+0xdc>
     1d2:	62 30       	cpi	r22, 0x02	; 2
     1d4:	29 f5       	brne	.+74     	; 0x220 <ANALOGenable+0x10a>
     1d6:	07 c0       	rjmp	.+14     	; 0x1e6 <ANALOGenable+0xd0>
     1d8:	60 34       	cpi	r22, 0x40	; 64
     1da:	c1 f0       	breq	.+48     	; 0x20c <ANALOGenable+0xf6>
     1dc:	60 38       	cpi	r22, 0x80	; 128
     1de:	d9 f0       	breq	.+54     	; 0x216 <ANALOGenable+0x100>
     1e0:	60 32       	cpi	r22, 0x20	; 32
     1e2:	f1 f4       	brne	.+60     	; 0x220 <ANALOGenable+0x10a>
     1e4:	0e c0       	rjmp	.+28     	; 0x202 <ANALOGenable+0xec>
			case 2://1
				ADC_CONTROL|=(1<<ADPS0);
     1e6:	30 9a       	sbi	0x06, 0	; 6
				analog.DIVISION_FACTOR=2;
     1e8:	22 e0       	ldi	r18, 0x02	; 2
				break;
     1ea:	1e c0       	rjmp	.+60     	; 0x228 <ANALOGenable+0x112>
			case 4://2
				ADC_CONTROL|=(1<<ADPS1);
     1ec:	31 9a       	sbi	0x06, 1	; 6
				analog.DIVISION_FACTOR=4;
     1ee:	24 e0       	ldi	r18, 0x04	; 4
				break;
     1f0:	1b c0       	rjmp	.+54     	; 0x228 <ANALOGenable+0x112>
			case 8://3
				ADC_CONTROL|=(3<<ADPS0);
     1f2:	86 b1       	in	r24, 0x06	; 6
     1f4:	83 60       	ori	r24, 0x03	; 3
     1f6:	86 b9       	out	0x06, r24	; 6
				analog.DIVISION_FACTOR=8;
     1f8:	28 e0       	ldi	r18, 0x08	; 8
				break;
     1fa:	16 c0       	rjmp	.+44     	; 0x228 <ANALOGenable+0x112>
			case 16://4
				ADC_CONTROL|=(1<<ADPS2);
     1fc:	32 9a       	sbi	0x06, 2	; 6
				analog.DIVISION_FACTOR=16;
     1fe:	20 e1       	ldi	r18, 0x10	; 16
				break;
     200:	13 c0       	rjmp	.+38     	; 0x228 <ANALOGenable+0x112>
			case 32://5
				ADC_CONTROL|=(5<<ADPS0);
     202:	86 b1       	in	r24, 0x06	; 6
     204:	85 60       	ori	r24, 0x05	; 5
     206:	86 b9       	out	0x06, r24	; 6
				analog.DIVISION_FACTOR=32;
     208:	20 e2       	ldi	r18, 0x20	; 32
				break;
     20a:	0e c0       	rjmp	.+28     	; 0x228 <ANALOGenable+0x112>
			case 64://6
				ADC_CONTROL|=(6<<ADPS0);
     20c:	86 b1       	in	r24, 0x06	; 6
     20e:	86 60       	ori	r24, 0x06	; 6
     210:	86 b9       	out	0x06, r24	; 6
				analog.DIVISION_FACTOR=64;
     212:	20 e4       	ldi	r18, 0x40	; 64
				break;
     214:	09 c0       	rjmp	.+18     	; 0x228 <ANALOGenable+0x112>
			case 128://7
				ADC_CONTROL|=(7<<ADPS0);
     216:	86 b1       	in	r24, 0x06	; 6
     218:	87 60       	ori	r24, 0x07	; 7
     21a:	86 b9       	out	0x06, r24	; 6
				analog.DIVISION_FACTOR=128;
     21c:	20 e8       	ldi	r18, 0x80	; 128
				break;
     21e:	04 c0       	rjmp	.+8      	; 0x228 <ANALOGenable+0x112>
			default:
				ADC_CONTROL|=(7<<ADPS0);
     220:	86 b1       	in	r24, 0x06	; 6
     222:	87 60       	ori	r24, 0x07	; 7
     224:	86 b9       	out	0x06, r24	; 6
				analog.DIVISION_FACTOR=128;
     226:	20 e8       	ldi	r18, 0x80	; 128
				break;
		}		
		
	SREG=tSREG;
     228:	1f bf       	out	0x3f, r17	; 63
	SREG|=(1<<GLOBAL_INTERRUPT_ENABLE);
     22a:	8f b7       	in	r24, 0x3f	; 63
     22c:	80 68       	ori	r24, 0x80	; 128
     22e:	8f bf       	out	0x3f, r24	; 63
	/******/
	return analog;
     230:	60 2f       	mov	r22, r16
     232:	72 2f       	mov	r23, r18
     234:	81 e8       	ldi	r24, 0x81	; 129
     236:	90 e0       	ldi	r25, 0x00	; 0
}
     238:	df 91       	pop	r29
     23a:	cf 91       	pop	r28
     23c:	1f 91       	pop	r17
     23e:	0f 91       	pop	r16
     240:	08 95       	ret

00000242 <__vector_21>:
ISR(ANALOG_INTERRUPT)
/*************************************************************************
Function: ANALOG interrupt
Purpose:  Read Analog Input
**************************************************************************/
{
     242:	1f 92       	push	r1
     244:	0f 92       	push	r0
     246:	0f b6       	in	r0, 0x3f	; 63
     248:	0f 92       	push	r0
     24a:	11 24       	eor	r1, r1
     24c:	0b b6       	in	r0, 0x3b	; 59
     24e:	0f 92       	push	r0
     250:	2f 93       	push	r18
     252:	3f 93       	push	r19
     254:	8f 93       	push	r24
     256:	9f 93       	push	r25
     258:	ef 93       	push	r30
     25a:	ff 93       	push	r31
	/******/
	adc_tmp=ADCL;
     25c:	84 b1       	in	r24, 0x04	; 4
     25e:	90 e0       	ldi	r25, 0x00	; 0
     260:	90 93 36 01 	sts	0x0136, r25	; 0x800136 <adc_tmp+0x1>
     264:	80 93 35 01 	sts	0x0135, r24	; 0x800135 <adc_tmp>
	adc_tmp|=(ADCH<<8);
     268:	25 b1       	in	r18, 0x05	; 5
     26a:	80 91 35 01 	lds	r24, 0x0135	; 0x800135 <adc_tmp>
     26e:	90 91 36 01 	lds	r25, 0x0136	; 0x800136 <adc_tmp+0x1>
     272:	92 2b       	or	r25, r18
     274:	90 93 36 01 	sts	0x0136, r25	; 0x800136 <adc_tmp+0x1>
     278:	80 93 35 01 	sts	0x0135, r24	; 0x800135 <adc_tmp>
	if(adc_n_sample < (1<<ADC_NUMBER_SAMPLE)){
     27c:	80 91 34 01 	lds	r24, 0x0134	; 0x800134 <__data_end>
     280:	84 30       	cpi	r24, 0x04	; 4
     282:	a0 f4       	brcc	.+40     	; 0x2ac <__vector_21+0x6a>
		adc_n_sample++;
     284:	80 91 34 01 	lds	r24, 0x0134	; 0x800134 <__data_end>
     288:	8f 5f       	subi	r24, 0xFF	; 255
     28a:	80 93 34 01 	sts	0x0134, r24	; 0x800134 <__data_end>
		adc_sample+=adc_tmp;
     28e:	20 91 35 01 	lds	r18, 0x0135	; 0x800135 <adc_tmp>
     292:	30 91 36 01 	lds	r19, 0x0136	; 0x800136 <adc_tmp+0x1>
     296:	80 91 37 01 	lds	r24, 0x0137	; 0x800137 <adc_sample>
     29a:	90 91 38 01 	lds	r25, 0x0138	; 0x800138 <adc_sample+0x1>
     29e:	82 0f       	add	r24, r18
     2a0:	93 1f       	adc	r25, r19
     2a2:	90 93 38 01 	sts	0x0138, r25	; 0x800138 <adc_sample+0x1>
     2a6:	80 93 37 01 	sts	0x0137, r24	; 0x800137 <adc_sample>
     2aa:	43 c0       	rjmp	.+134    	; 0x332 <__vector_21+0xf0>
	}else{
		ADC_VALUE[ADC_SELECTOR]=adc_sample>>ADC_NUMBER_SAMPLE;
     2ac:	e0 91 39 01 	lds	r30, 0x0139	; 0x800139 <ADC_SELECTOR>
     2b0:	f0 91 3a 01 	lds	r31, 0x013A	; 0x80013a <ADC_SELECTOR+0x1>
     2b4:	80 91 37 01 	lds	r24, 0x0137	; 0x800137 <adc_sample>
     2b8:	90 91 38 01 	lds	r25, 0x0138	; 0x800138 <adc_sample+0x1>
     2bc:	95 95       	asr	r25
     2be:	87 95       	ror	r24
     2c0:	95 95       	asr	r25
     2c2:	87 95       	ror	r24
     2c4:	ee 0f       	add	r30, r30
     2c6:	ff 1f       	adc	r31, r31
     2c8:	e3 5b       	subi	r30, 0xB3	; 179
     2ca:	fe 4f       	sbci	r31, 0xFE	; 254
     2cc:	91 83       	std	Z+1, r25	; 0x01
     2ce:	80 83       	st	Z, r24
		adc_n_sample=adc_sample=0;
     2d0:	10 92 38 01 	sts	0x0138, r1	; 0x800138 <adc_sample+0x1>
     2d4:	10 92 37 01 	sts	0x0137, r1	; 0x800137 <adc_sample>
     2d8:	10 92 34 01 	sts	0x0134, r1	; 0x800134 <__data_end>
		/******/
		if(ADC_SELECTOR < ADC_N_CHANNEL)
     2dc:	20 91 39 01 	lds	r18, 0x0139	; 0x800139 <ADC_SELECTOR>
     2e0:	30 91 3a 01 	lds	r19, 0x013A	; 0x80013a <ADC_SELECTOR+0x1>
     2e4:	80 91 3b 01 	lds	r24, 0x013B	; 0x80013b <ADC_N_CHANNEL>
     2e8:	90 91 3c 01 	lds	r25, 0x013C	; 0x80013c <ADC_N_CHANNEL+0x1>
     2ec:	28 17       	cp	r18, r24
     2ee:	39 07       	cpc	r19, r25
     2f0:	54 f4       	brge	.+20     	; 0x306 <__vector_21+0xc4>
			ADC_SELECTOR++;
     2f2:	80 91 39 01 	lds	r24, 0x0139	; 0x800139 <ADC_SELECTOR>
     2f6:	90 91 3a 01 	lds	r25, 0x013A	; 0x80013a <ADC_SELECTOR+0x1>
     2fa:	01 96       	adiw	r24, 0x01	; 1
     2fc:	90 93 3a 01 	sts	0x013A, r25	; 0x80013a <ADC_SELECTOR+0x1>
     300:	80 93 39 01 	sts	0x0139, r24	; 0x800139 <ADC_SELECTOR>
     304:	04 c0       	rjmp	.+8      	; 0x30e <__vector_21+0xcc>
		else
			ADC_SELECTOR=0;
     306:	10 92 3a 01 	sts	0x013A, r1	; 0x80013a <ADC_SELECTOR+0x1>
     30a:	10 92 39 01 	sts	0x0139, r1	; 0x800139 <ADC_SELECTOR>
		ADC_SELECT &= ~MUX_MASK;
     30e:	87 b1       	in	r24, 0x07	; 7
     310:	80 7e       	andi	r24, 0xE0	; 224
     312:	87 b9       	out	0x07, r24	; 7
		ADC_SELECT |= (ADC_CHANNEL_GAIN[ADC_SELECTOR] & MUX_MASK);
     314:	e0 91 39 01 	lds	r30, 0x0139	; 0x800139 <ADC_SELECTOR>
     318:	f0 91 3a 01 	lds	r31, 0x013A	; 0x80013a <ADC_SELECTOR+0x1>
     31c:	ee 0f       	add	r30, r30
     31e:	ff 1f       	adc	r31, r31
     320:	e3 5c       	subi	r30, 0xC3	; 195
     322:	fe 4f       	sbci	r31, 0xFE	; 254
     324:	80 81       	ld	r24, Z
     326:	91 81       	ldd	r25, Z+1	; 0x01
     328:	27 b1       	in	r18, 0x07	; 7
     32a:	8f 71       	andi	r24, 0x1F	; 31
     32c:	99 27       	eor	r25, r25
     32e:	82 2b       	or	r24, r18
     330:	87 b9       	out	0x07, r24	; 7
	}		
}
     332:	ff 91       	pop	r31
     334:	ef 91       	pop	r30
     336:	9f 91       	pop	r25
     338:	8f 91       	pop	r24
     33a:	3f 91       	pop	r19
     33c:	2f 91       	pop	r18
     33e:	0f 90       	pop	r0
     340:	0b be       	out	0x3b, r0	; 59
     342:	0f 90       	pop	r0
     344:	0f be       	out	0x3f, r0	; 63
     346:	0f 90       	pop	r0
     348:	1f 90       	pop	r1
     34a:	18 95       	reti

0000034c <TIMER_COUNTER0_start>:
		timer3.compareC=TIMER_COUNTER3_compareC;
		timer3.start=TIMER_COUNTER3_start;
		timer3.stop=TIMER_COUNTER3_stop;
		//
		return timer3;
	}
     34c:	20 91 ea 01 	lds	r18, 0x01EA	; 0x8001ea <timer0_state>
     350:	21 11       	cpse	r18, r1
     352:	40 c0       	rjmp	.+128    	; 0x3d4 <TIMER_COUNTER0_start+0x88>
     354:	2f ef       	ldi	r18, 0xFF	; 255
     356:	21 bf       	out	0x31, r18	; 49
     358:	23 b7       	in	r18, 0x33	; 51
     35a:	28 7f       	andi	r18, 0xF8	; 248
     35c:	23 bf       	out	0x33, r18	; 51
     35e:	80 34       	cpi	r24, 0x40	; 64
     360:	91 05       	cpc	r25, r1
     362:	11 f1       	breq	.+68     	; 0x3a8 <TIMER_COUNTER0_start+0x5c>
     364:	48 f4       	brcc	.+18     	; 0x378 <TIMER_COUNTER0_start+0x2c>
     366:	88 30       	cpi	r24, 0x08	; 8
     368:	91 05       	cpc	r25, r1
     36a:	b1 f0       	breq	.+44     	; 0x398 <TIMER_COUNTER0_start+0x4c>
     36c:	80 32       	cpi	r24, 0x20	; 32
     36e:	91 05       	cpc	r25, r1
     370:	b9 f0       	breq	.+46     	; 0x3a0 <TIMER_COUNTER0_start+0x54>
     372:	01 97       	sbiw	r24, 0x01	; 1
     374:	49 f5       	brne	.+82     	; 0x3c8 <TIMER_COUNTER0_start+0x7c>
     376:	0c c0       	rjmp	.+24     	; 0x390 <TIMER_COUNTER0_start+0x44>
     378:	81 15       	cp	r24, r1
     37a:	21 e0       	ldi	r18, 0x01	; 1
     37c:	92 07       	cpc	r25, r18
     37e:	e1 f0       	breq	.+56     	; 0x3b8 <TIMER_COUNTER0_start+0x6c>
     380:	81 15       	cp	r24, r1
     382:	24 e0       	ldi	r18, 0x04	; 4
     384:	92 07       	cpc	r25, r18
     386:	e1 f0       	breq	.+56     	; 0x3c0 <TIMER_COUNTER0_start+0x74>
     388:	80 38       	cpi	r24, 0x80	; 128
     38a:	91 05       	cpc	r25, r1
     38c:	e9 f4       	brne	.+58     	; 0x3c8 <TIMER_COUNTER0_start+0x7c>
     38e:	10 c0       	rjmp	.+32     	; 0x3b0 <TIMER_COUNTER0_start+0x64>
     390:	83 b7       	in	r24, 0x33	; 51
     392:	81 60       	ori	r24, 0x01	; 1
     394:	83 bf       	out	0x33, r24	; 51
     396:	1b c0       	rjmp	.+54     	; 0x3ce <TIMER_COUNTER0_start+0x82>
     398:	83 b7       	in	r24, 0x33	; 51
     39a:	82 60       	ori	r24, 0x02	; 2
     39c:	83 bf       	out	0x33, r24	; 51
     39e:	17 c0       	rjmp	.+46     	; 0x3ce <TIMER_COUNTER0_start+0x82>
     3a0:	83 b7       	in	r24, 0x33	; 51
     3a2:	83 60       	ori	r24, 0x03	; 3
     3a4:	83 bf       	out	0x33, r24	; 51
     3a6:	13 c0       	rjmp	.+38     	; 0x3ce <TIMER_COUNTER0_start+0x82>
     3a8:	83 b7       	in	r24, 0x33	; 51
     3aa:	84 60       	ori	r24, 0x04	; 4
     3ac:	83 bf       	out	0x33, r24	; 51
     3ae:	0f c0       	rjmp	.+30     	; 0x3ce <TIMER_COUNTER0_start+0x82>
     3b0:	83 b7       	in	r24, 0x33	; 51
     3b2:	85 60       	ori	r24, 0x05	; 5
     3b4:	83 bf       	out	0x33, r24	; 51
     3b6:	0b c0       	rjmp	.+22     	; 0x3ce <TIMER_COUNTER0_start+0x82>
     3b8:	83 b7       	in	r24, 0x33	; 51
     3ba:	86 60       	ori	r24, 0x06	; 6
     3bc:	83 bf       	out	0x33, r24	; 51
     3be:	07 c0       	rjmp	.+14     	; 0x3ce <TIMER_COUNTER0_start+0x82>
     3c0:	83 b7       	in	r24, 0x33	; 51
     3c2:	87 60       	ori	r24, 0x07	; 7
     3c4:	83 bf       	out	0x33, r24	; 51
     3c6:	03 c0       	rjmp	.+6      	; 0x3ce <TIMER_COUNTER0_start+0x82>
     3c8:	83 b7       	in	r24, 0x33	; 51
     3ca:	87 60       	ori	r24, 0x07	; 7
     3cc:	83 bf       	out	0x33, r24	; 51
     3ce:	81 e0       	ldi	r24, 0x01	; 1
     3d0:	80 93 ea 01 	sts	0x01EA, r24	; 0x8001ea <timer0_state>
     3d4:	08 95       	ret

000003d6 <TIMER_COUNTER0_compoutmode>:
     3d6:	93 b7       	in	r25, 0x33	; 51
     3d8:	9f 7c       	andi	r25, 0xCF	; 207
     3da:	93 bf       	out	0x33, r25	; 51
     3dc:	82 30       	cpi	r24, 0x02	; 2
     3de:	41 f0       	breq	.+16     	; 0x3f0 <TIMER_COUNTER0_compoutmode+0x1a>
     3e0:	83 30       	cpi	r24, 0x03	; 3
     3e2:	51 f0       	breq	.+20     	; 0x3f8 <TIMER_COUNTER0_compoutmode+0x22>
     3e4:	81 30       	cpi	r24, 0x01	; 1
     3e6:	59 f4       	brne	.+22     	; 0x3fe <TIMER_COUNTER0_compoutmode+0x28>
     3e8:	83 b7       	in	r24, 0x33	; 51
     3ea:	80 61       	ori	r24, 0x10	; 16
     3ec:	83 bf       	out	0x33, r24	; 51
     3ee:	08 95       	ret
     3f0:	83 b7       	in	r24, 0x33	; 51
     3f2:	80 62       	ori	r24, 0x20	; 32
     3f4:	83 bf       	out	0x33, r24	; 51
     3f6:	08 95       	ret
     3f8:	83 b7       	in	r24, 0x33	; 51
     3fa:	80 63       	ori	r24, 0x30	; 48
     3fc:	83 bf       	out	0x33, r24	; 51
     3fe:	08 95       	ret

00000400 <TIMER_COUNTER0_compare>:
     400:	81 bf       	out	0x31, r24	; 49
     402:	08 95       	ret

00000404 <TIMER_COUNTER0_stop>:
     404:	83 b7       	in	r24, 0x33	; 51
     406:	88 7f       	andi	r24, 0xF8	; 248
     408:	83 bf       	out	0x33, r24	; 51
     40a:	12 be       	out	0x32, r1	; 50
     40c:	10 92 ea 01 	sts	0x01EA, r1	; 0x8001ea <timer0_state>
     410:	08 95       	ret

00000412 <TIMER_COUNTER1_start>:
     412:	20 91 e7 01 	lds	r18, 0x01E7	; 0x8001e7 <timer1_state>
     416:	21 11       	cpse	r18, r1
     418:	42 c0       	rjmp	.+132    	; 0x49e <TIMER_COUNTER1_start+0x8c>
     41a:	2f ef       	ldi	r18, 0xFF	; 255
     41c:	3f ef       	ldi	r19, 0xFF	; 255
     41e:	3b bd       	out	0x2b, r19	; 43
     420:	2a bd       	out	0x2a, r18	; 42
     422:	2e b5       	in	r18, 0x2e	; 46
     424:	28 7f       	andi	r18, 0xF8	; 248
     426:	2e bd       	out	0x2e, r18	; 46
     428:	88 30       	cpi	r24, 0x08	; 8
     42a:	91 05       	cpc	r25, r1
     42c:	d1 f0       	breq	.+52     	; 0x462 <TIMER_COUNTER1_start+0x50>
     42e:	48 f4       	brcc	.+18     	; 0x442 <TIMER_COUNTER1_start+0x30>
     430:	83 30       	cpi	r24, 0x03	; 3
     432:	91 05       	cpc	r25, r1
     434:	31 f1       	breq	.+76     	; 0x482 <TIMER_COUNTER1_start+0x70>
     436:	85 30       	cpi	r24, 0x05	; 5
     438:	91 05       	cpc	r25, r1
     43a:	39 f1       	breq	.+78     	; 0x48a <TIMER_COUNTER1_start+0x78>
     43c:	01 97       	sbiw	r24, 0x01	; 1
     43e:	49 f5       	brne	.+82     	; 0x492 <TIMER_COUNTER1_start+0x80>
     440:	0c c0       	rjmp	.+24     	; 0x45a <TIMER_COUNTER1_start+0x48>
     442:	81 15       	cp	r24, r1
     444:	21 e0       	ldi	r18, 0x01	; 1
     446:	92 07       	cpc	r25, r18
     448:	a1 f0       	breq	.+40     	; 0x472 <TIMER_COUNTER1_start+0x60>
     44a:	81 15       	cp	r24, r1
     44c:	24 e0       	ldi	r18, 0x04	; 4
     44e:	92 07       	cpc	r25, r18
     450:	a1 f0       	breq	.+40     	; 0x47a <TIMER_COUNTER1_start+0x68>
     452:	80 34       	cpi	r24, 0x40	; 64
     454:	91 05       	cpc	r25, r1
     456:	e9 f4       	brne	.+58     	; 0x492 <TIMER_COUNTER1_start+0x80>
     458:	08 c0       	rjmp	.+16     	; 0x46a <TIMER_COUNTER1_start+0x58>
     45a:	8e b5       	in	r24, 0x2e	; 46
     45c:	81 60       	ori	r24, 0x01	; 1
     45e:	8e bd       	out	0x2e, r24	; 46
     460:	1b c0       	rjmp	.+54     	; 0x498 <TIMER_COUNTER1_start+0x86>
     462:	8e b5       	in	r24, 0x2e	; 46
     464:	82 60       	ori	r24, 0x02	; 2
     466:	8e bd       	out	0x2e, r24	; 46
     468:	17 c0       	rjmp	.+46     	; 0x498 <TIMER_COUNTER1_start+0x86>
     46a:	8e b5       	in	r24, 0x2e	; 46
     46c:	83 60       	ori	r24, 0x03	; 3
     46e:	8e bd       	out	0x2e, r24	; 46
     470:	13 c0       	rjmp	.+38     	; 0x498 <TIMER_COUNTER1_start+0x86>
     472:	8e b5       	in	r24, 0x2e	; 46
     474:	84 60       	ori	r24, 0x04	; 4
     476:	8e bd       	out	0x2e, r24	; 46
     478:	0f c0       	rjmp	.+30     	; 0x498 <TIMER_COUNTER1_start+0x86>
     47a:	8e b5       	in	r24, 0x2e	; 46
     47c:	85 60       	ori	r24, 0x05	; 5
     47e:	8e bd       	out	0x2e, r24	; 46
     480:	0b c0       	rjmp	.+22     	; 0x498 <TIMER_COUNTER1_start+0x86>
     482:	8e b5       	in	r24, 0x2e	; 46
     484:	86 60       	ori	r24, 0x06	; 6
     486:	8e bd       	out	0x2e, r24	; 46
     488:	07 c0       	rjmp	.+14     	; 0x498 <TIMER_COUNTER1_start+0x86>
     48a:	8e b5       	in	r24, 0x2e	; 46
     48c:	87 60       	ori	r24, 0x07	; 7
     48e:	8e bd       	out	0x2e, r24	; 46
     490:	03 c0       	rjmp	.+6      	; 0x498 <TIMER_COUNTER1_start+0x86>
     492:	8e b5       	in	r24, 0x2e	; 46
     494:	85 60       	ori	r24, 0x05	; 5
     496:	8e bd       	out	0x2e, r24	; 46
     498:	81 e0       	ldi	r24, 0x01	; 1
     49a:	80 93 e7 01 	sts	0x01E7, r24	; 0x8001e7 <timer1_state>
     49e:	08 95       	ret

000004a0 <TIMER_COUNTER1_compoutmodeA>:
     4a0:	9f b5       	in	r25, 0x2f	; 47
     4a2:	9f 73       	andi	r25, 0x3F	; 63
     4a4:	9f bd       	out	0x2f, r25	; 47
     4a6:	82 30       	cpi	r24, 0x02	; 2
     4a8:	41 f0       	breq	.+16     	; 0x4ba <TIMER_COUNTER1_compoutmodeA+0x1a>
     4aa:	83 30       	cpi	r24, 0x03	; 3
     4ac:	51 f0       	breq	.+20     	; 0x4c2 <TIMER_COUNTER1_compoutmodeA+0x22>
     4ae:	81 30       	cpi	r24, 0x01	; 1
     4b0:	59 f4       	brne	.+22     	; 0x4c8 <TIMER_COUNTER1_compoutmodeA+0x28>
     4b2:	8f b5       	in	r24, 0x2f	; 47
     4b4:	80 64       	ori	r24, 0x40	; 64
     4b6:	8f bd       	out	0x2f, r24	; 47
     4b8:	08 95       	ret
     4ba:	8f b5       	in	r24, 0x2f	; 47
     4bc:	80 68       	ori	r24, 0x80	; 128
     4be:	8f bd       	out	0x2f, r24	; 47
     4c0:	08 95       	ret
     4c2:	8f b5       	in	r24, 0x2f	; 47
     4c4:	80 6c       	ori	r24, 0xC0	; 192
     4c6:	8f bd       	out	0x2f, r24	; 47
     4c8:	08 95       	ret

000004ca <TIMER_COUNTER1_compoutmodeB>:
     4ca:	9f b5       	in	r25, 0x2f	; 47
     4cc:	9f 7c       	andi	r25, 0xCF	; 207
     4ce:	9f bd       	out	0x2f, r25	; 47
     4d0:	82 30       	cpi	r24, 0x02	; 2
     4d2:	41 f0       	breq	.+16     	; 0x4e4 <TIMER_COUNTER1_compoutmodeB+0x1a>
     4d4:	83 30       	cpi	r24, 0x03	; 3
     4d6:	51 f0       	breq	.+20     	; 0x4ec <TIMER_COUNTER1_compoutmodeB+0x22>
     4d8:	81 30       	cpi	r24, 0x01	; 1
     4da:	59 f4       	brne	.+22     	; 0x4f2 <TIMER_COUNTER1_compoutmodeB+0x28>
     4dc:	8f b5       	in	r24, 0x2f	; 47
     4de:	80 61       	ori	r24, 0x10	; 16
     4e0:	8f bd       	out	0x2f, r24	; 47
     4e2:	08 95       	ret
     4e4:	8f b5       	in	r24, 0x2f	; 47
     4e6:	80 62       	ori	r24, 0x20	; 32
     4e8:	8f bd       	out	0x2f, r24	; 47
     4ea:	08 95       	ret
     4ec:	8f b5       	in	r24, 0x2f	; 47
     4ee:	80 63       	ori	r24, 0x30	; 48
     4f0:	8f bd       	out	0x2f, r24	; 47
     4f2:	08 95       	ret

000004f4 <TIMER_COUNTER1_compoutmodeC>:
     4f4:	9f b5       	in	r25, 0x2f	; 47
     4f6:	93 7f       	andi	r25, 0xF3	; 243
     4f8:	9f bd       	out	0x2f, r25	; 47
     4fa:	82 30       	cpi	r24, 0x02	; 2
     4fc:	41 f0       	breq	.+16     	; 0x50e <TIMER_COUNTER1_compoutmodeC+0x1a>
     4fe:	83 30       	cpi	r24, 0x03	; 3
     500:	51 f0       	breq	.+20     	; 0x516 <TIMER_COUNTER1_compoutmodeC+0x22>
     502:	81 30       	cpi	r24, 0x01	; 1
     504:	59 f4       	brne	.+22     	; 0x51c <TIMER_COUNTER1_compoutmodeC+0x28>
     506:	8f b5       	in	r24, 0x2f	; 47
     508:	84 60       	ori	r24, 0x04	; 4
     50a:	8f bd       	out	0x2f, r24	; 47
     50c:	08 95       	ret
     50e:	8f b5       	in	r24, 0x2f	; 47
     510:	88 60       	ori	r24, 0x08	; 8
     512:	8f bd       	out	0x2f, r24	; 47
     514:	08 95       	ret
     516:	8f b5       	in	r24, 0x2f	; 47
     518:	8c 60       	ori	r24, 0x0C	; 12
     51a:	8f bd       	out	0x2f, r24	; 47
     51c:	08 95       	ret

0000051e <TIMER_COUNTER1_compareA>:
     51e:	9b bd       	out	0x2b, r25	; 43
     520:	8a bd       	out	0x2a, r24	; 42
     522:	08 95       	ret

00000524 <TIMER_COUNTER1_compareB>:
     524:	99 bd       	out	0x29, r25	; 41
     526:	88 bd       	out	0x28, r24	; 40
     528:	08 95       	ret

0000052a <TIMER_COUNTER1_compareC>:
     52a:	90 93 79 00 	sts	0x0079, r25	; 0x800079 <__TEXT_REGION_LENGTH__+0x7e0079>
     52e:	80 93 78 00 	sts	0x0078, r24	; 0x800078 <__TEXT_REGION_LENGTH__+0x7e0078>
     532:	08 95       	ret

00000534 <TIMER_COUNTER1_stop>:
     534:	8e b5       	in	r24, 0x2e	; 46
     536:	88 7f       	andi	r24, 0xF8	; 248
     538:	8e bd       	out	0x2e, r24	; 46
     53a:	1d bc       	out	0x2d, r1	; 45
     53c:	1c bc       	out	0x2c, r1	; 44
     53e:	10 92 e7 01 	sts	0x01E7, r1	; 0x8001e7 <timer1_state>
     542:	08 95       	ret

00000544 <TIMER_COUNTER0enable>:
     544:	10 92 ea 01 	sts	0x01EA, r1	; 0x8001ea <timer0_state>
     548:	23 b7       	in	r18, 0x33	; 51
     54a:	27 7b       	andi	r18, 0xB7	; 183
     54c:	23 bf       	out	0x33, r18	; 51
     54e:	62 30       	cpi	r22, 0x02	; 2
     550:	41 f0       	breq	.+16     	; 0x562 <TIMER_COUNTER0enable+0x1e>
     552:	63 30       	cpi	r22, 0x03	; 3
     554:	51 f0       	breq	.+20     	; 0x56a <TIMER_COUNTER0enable+0x26>
     556:	61 30       	cpi	r22, 0x01	; 1
     558:	59 f4       	brne	.+22     	; 0x570 <TIMER_COUNTER0enable+0x2c>
     55a:	23 b7       	in	r18, 0x33	; 51
     55c:	20 64       	ori	r18, 0x40	; 64
     55e:	23 bf       	out	0x33, r18	; 51
     560:	07 c0       	rjmp	.+14     	; 0x570 <TIMER_COUNTER0enable+0x2c>
     562:	23 b7       	in	r18, 0x33	; 51
     564:	28 60       	ori	r18, 0x08	; 8
     566:	23 bf       	out	0x33, r18	; 51
     568:	03 c0       	rjmp	.+6      	; 0x570 <TIMER_COUNTER0enable+0x2c>
     56a:	23 b7       	in	r18, 0x33	; 51
     56c:	28 64       	ori	r18, 0x48	; 72
     56e:	23 bf       	out	0x33, r18	; 51
     570:	27 b7       	in	r18, 0x37	; 55
     572:	2e 7f       	andi	r18, 0xFE	; 254
     574:	27 bf       	out	0x37, r18	; 55
     576:	27 b7       	in	r18, 0x37	; 55
     578:	2d 7f       	andi	r18, 0xFD	; 253
     57a:	27 bf       	out	0x37, r18	; 55
     57c:	42 30       	cpi	r20, 0x02	; 2
     57e:	41 f0       	breq	.+16     	; 0x590 <TIMER_COUNTER0enable+0x4c>
     580:	43 30       	cpi	r20, 0x03	; 3
     582:	51 f0       	breq	.+20     	; 0x598 <TIMER_COUNTER0enable+0x54>
     584:	41 30       	cpi	r20, 0x01	; 1
     586:	71 f4       	brne	.+28     	; 0x5a4 <TIMER_COUNTER0enable+0x60>
     588:	27 b7       	in	r18, 0x37	; 55
     58a:	21 60       	ori	r18, 0x01	; 1
     58c:	27 bf       	out	0x37, r18	; 55
     58e:	0a c0       	rjmp	.+20     	; 0x5a4 <TIMER_COUNTER0enable+0x60>
     590:	27 b7       	in	r18, 0x37	; 55
     592:	22 60       	ori	r18, 0x02	; 2
     594:	27 bf       	out	0x37, r18	; 55
     596:	06 c0       	rjmp	.+12     	; 0x5a4 <TIMER_COUNTER0enable+0x60>
     598:	27 b7       	in	r18, 0x37	; 55
     59a:	21 60       	ori	r18, 0x01	; 1
     59c:	27 bf       	out	0x37, r18	; 55
     59e:	27 b7       	in	r18, 0x37	; 55
     5a0:	22 60       	ori	r18, 0x02	; 2
     5a2:	27 bf       	out	0x37, r18	; 55
     5a4:	2b ee       	ldi	r18, 0xEB	; 235
     5a6:	31 e0       	ldi	r19, 0x01	; 1
     5a8:	fc 01       	movw	r30, r24
     5aa:	31 83       	std	Z+1, r19	; 0x01
     5ac:	20 83       	st	Z, r18
     5ae:	20 e0       	ldi	r18, 0x00	; 0
     5b0:	32 e0       	ldi	r19, 0x02	; 2
     5b2:	37 83       	std	Z+7, r19	; 0x07
     5b4:	26 83       	std	Z+6, r18	; 0x06
     5b6:	26 ea       	ldi	r18, 0xA6	; 166
     5b8:	31 e0       	ldi	r19, 0x01	; 1
     5ba:	35 87       	std	Z+13, r19	; 0x0d
     5bc:	24 87       	std	Z+12, r18	; 0x0c
     5be:	22 e0       	ldi	r18, 0x02	; 2
     5c0:	32 e0       	ldi	r19, 0x02	; 2
     5c2:	37 87       	std	Z+15, r19	; 0x0f
     5c4:	26 87       	std	Z+14, r18	; 0x0e
     5c6:	08 95       	ret

000005c8 <TIMER_COUNTER1enable>:
     5c8:	0f 93       	push	r16
     5ca:	1f 93       	push	r17
     5cc:	dc 01       	movw	r26, r24
     5ce:	10 92 e7 01 	sts	0x01E7, r1	; 0x8001e7 <timer1_state>
     5d2:	8f b5       	in	r24, 0x2f	; 47
     5d4:	8c 7f       	andi	r24, 0xFC	; 252
     5d6:	8f bd       	out	0x2f, r24	; 47
     5d8:	8e b5       	in	r24, 0x2e	; 46
     5da:	87 7e       	andi	r24, 0xE7	; 231
     5dc:	8e bd       	out	0x2e, r24	; 46
     5de:	06 2f       	mov	r16, r22
     5e0:	10 e0       	ldi	r17, 0x00	; 0
     5e2:	f8 01       	movw	r30, r16
     5e4:	31 97       	sbiw	r30, 0x01	; 1
     5e6:	ef 30       	cpi	r30, 0x0F	; 15
     5e8:	f1 05       	cpc	r31, r1
     5ea:	08 f0       	brcs	.+2      	; 0x5ee <TIMER_COUNTER1enable+0x26>
     5ec:	5a c0       	rjmp	.+180    	; 0x6a2 <TIMER_COUNTER1enable+0xda>
     5ee:	ea 5b       	subi	r30, 0xBA	; 186
     5f0:	ff 4f       	sbci	r31, 0xFF	; 255
     5f2:	0c 94 4c 12 	jmp	0x2498	; 0x2498 <__tablejump2__>
     5f6:	8f b5       	in	r24, 0x2f	; 47
     5f8:	81 60       	ori	r24, 0x01	; 1
     5fa:	8f bd       	out	0x2f, r24	; 47
     5fc:	52 c0       	rjmp	.+164    	; 0x6a2 <TIMER_COUNTER1enable+0xda>
     5fe:	8f b5       	in	r24, 0x2f	; 47
     600:	82 60       	ori	r24, 0x02	; 2
     602:	8f bd       	out	0x2f, r24	; 47
     604:	4e c0       	rjmp	.+156    	; 0x6a2 <TIMER_COUNTER1enable+0xda>
     606:	8f b5       	in	r24, 0x2f	; 47
     608:	83 60       	ori	r24, 0x03	; 3
     60a:	8f bd       	out	0x2f, r24	; 47
     60c:	4a c0       	rjmp	.+148    	; 0x6a2 <TIMER_COUNTER1enable+0xda>
     60e:	8e b5       	in	r24, 0x2e	; 46
     610:	88 60       	ori	r24, 0x08	; 8
     612:	8e bd       	out	0x2e, r24	; 46
     614:	46 c0       	rjmp	.+140    	; 0x6a2 <TIMER_COUNTER1enable+0xda>
     616:	8f b5       	in	r24, 0x2f	; 47
     618:	81 60       	ori	r24, 0x01	; 1
     61a:	8f bd       	out	0x2f, r24	; 47
     61c:	8e b5       	in	r24, 0x2e	; 46
     61e:	88 60       	ori	r24, 0x08	; 8
     620:	8e bd       	out	0x2e, r24	; 46
     622:	3f c0       	rjmp	.+126    	; 0x6a2 <TIMER_COUNTER1enable+0xda>
     624:	8f b5       	in	r24, 0x2f	; 47
     626:	82 60       	ori	r24, 0x02	; 2
     628:	8f bd       	out	0x2f, r24	; 47
     62a:	8e b5       	in	r24, 0x2e	; 46
     62c:	88 60       	ori	r24, 0x08	; 8
     62e:	8e bd       	out	0x2e, r24	; 46
     630:	38 c0       	rjmp	.+112    	; 0x6a2 <TIMER_COUNTER1enable+0xda>
     632:	8f b5       	in	r24, 0x2f	; 47
     634:	83 60       	ori	r24, 0x03	; 3
     636:	8f bd       	out	0x2f, r24	; 47
     638:	8e b5       	in	r24, 0x2e	; 46
     63a:	88 60       	ori	r24, 0x08	; 8
     63c:	8e bd       	out	0x2e, r24	; 46
     63e:	31 c0       	rjmp	.+98     	; 0x6a2 <TIMER_COUNTER1enable+0xda>
     640:	8e b5       	in	r24, 0x2e	; 46
     642:	80 61       	ori	r24, 0x10	; 16
     644:	8e bd       	out	0x2e, r24	; 46
     646:	2d c0       	rjmp	.+90     	; 0x6a2 <TIMER_COUNTER1enable+0xda>
     648:	8f b5       	in	r24, 0x2f	; 47
     64a:	81 60       	ori	r24, 0x01	; 1
     64c:	8f bd       	out	0x2f, r24	; 47
     64e:	8e b5       	in	r24, 0x2e	; 46
     650:	80 61       	ori	r24, 0x10	; 16
     652:	8e bd       	out	0x2e, r24	; 46
     654:	26 c0       	rjmp	.+76     	; 0x6a2 <TIMER_COUNTER1enable+0xda>
     656:	8f b5       	in	r24, 0x2f	; 47
     658:	82 60       	ori	r24, 0x02	; 2
     65a:	8f bd       	out	0x2f, r24	; 47
     65c:	8e b5       	in	r24, 0x2e	; 46
     65e:	80 61       	ori	r24, 0x10	; 16
     660:	8e bd       	out	0x2e, r24	; 46
     662:	1f c0       	rjmp	.+62     	; 0x6a2 <TIMER_COUNTER1enable+0xda>
     664:	8f b5       	in	r24, 0x2f	; 47
     666:	83 60       	ori	r24, 0x03	; 3
     668:	8f bd       	out	0x2f, r24	; 47
     66a:	8e b5       	in	r24, 0x2e	; 46
     66c:	80 61       	ori	r24, 0x10	; 16
     66e:	8e bd       	out	0x2e, r24	; 46
     670:	18 c0       	rjmp	.+48     	; 0x6a2 <TIMER_COUNTER1enable+0xda>
     672:	8e b5       	in	r24, 0x2e	; 46
     674:	88 61       	ori	r24, 0x18	; 24
     676:	8e bd       	out	0x2e, r24	; 46
     678:	14 c0       	rjmp	.+40     	; 0x6a2 <TIMER_COUNTER1enable+0xda>
     67a:	8f b5       	in	r24, 0x2f	; 47
     67c:	81 60       	ori	r24, 0x01	; 1
     67e:	8f bd       	out	0x2f, r24	; 47
     680:	8e b5       	in	r24, 0x2e	; 46
     682:	88 61       	ori	r24, 0x18	; 24
     684:	8e bd       	out	0x2e, r24	; 46
     686:	0d c0       	rjmp	.+26     	; 0x6a2 <TIMER_COUNTER1enable+0xda>
     688:	8f b5       	in	r24, 0x2f	; 47
     68a:	82 60       	ori	r24, 0x02	; 2
     68c:	8f bd       	out	0x2f, r24	; 47
     68e:	8e b5       	in	r24, 0x2e	; 46
     690:	88 61       	ori	r24, 0x18	; 24
     692:	8e bd       	out	0x2e, r24	; 46
     694:	06 c0       	rjmp	.+12     	; 0x6a2 <TIMER_COUNTER1enable+0xda>
     696:	8f b5       	in	r24, 0x2f	; 47
     698:	83 60       	ori	r24, 0x03	; 3
     69a:	8f bd       	out	0x2f, r24	; 47
     69c:	8e b5       	in	r24, 0x2e	; 46
     69e:	88 61       	ori	r24, 0x18	; 24
     6a0:	8e bd       	out	0x2e, r24	; 46
     6a2:	8f b5       	in	r24, 0x2f	; 47
     6a4:	83 70       	andi	r24, 0x03	; 3
     6a6:	8f bd       	out	0x2f, r24	; 47
     6a8:	87 b7       	in	r24, 0x37	; 55
     6aa:	83 7c       	andi	r24, 0xC3	; 195
     6ac:	87 bf       	out	0x37, r24	; 55
     6ae:	ed e7       	ldi	r30, 0x7D	; 125
     6b0:	f0 e0       	ldi	r31, 0x00	; 0
     6b2:	80 81       	ld	r24, Z
     6b4:	8e 7f       	andi	r24, 0xFE	; 254
     6b6:	80 83       	st	Z, r24
     6b8:	50 e0       	ldi	r21, 0x00	; 0
     6ba:	fa 01       	movw	r30, r20
     6bc:	31 97       	sbiw	r30, 0x01	; 1
     6be:	ec 30       	cpi	r30, 0x0C	; 12
     6c0:	f1 05       	cpc	r31, r1
     6c2:	08 f0       	brcs	.+2      	; 0x6c6 <TIMER_COUNTER1enable+0xfe>
     6c4:	44 c0       	rjmp	.+136    	; 0x74e <TIMER_COUNTER1enable+0x186>
     6c6:	eb 5a       	subi	r30, 0xAB	; 171
     6c8:	ff 4f       	sbci	r31, 0xFF	; 255
     6ca:	0c 94 4c 12 	jmp	0x2498	; 0x2498 <__tablejump2__>
     6ce:	87 b7       	in	r24, 0x37	; 55
     6d0:	84 60       	ori	r24, 0x04	; 4
     6d2:	87 bf       	out	0x37, r24	; 55
     6d4:	3c c0       	rjmp	.+120    	; 0x74e <TIMER_COUNTER1enable+0x186>
     6d6:	87 b7       	in	r24, 0x37	; 55
     6d8:	80 61       	ori	r24, 0x10	; 16
     6da:	87 bf       	out	0x37, r24	; 55
     6dc:	38 c0       	rjmp	.+112    	; 0x74e <TIMER_COUNTER1enable+0x186>
     6de:	87 b7       	in	r24, 0x37	; 55
     6e0:	88 60       	ori	r24, 0x08	; 8
     6e2:	87 bf       	out	0x37, r24	; 55
     6e4:	34 c0       	rjmp	.+104    	; 0x74e <TIMER_COUNTER1enable+0x186>
     6e6:	ed e7       	ldi	r30, 0x7D	; 125
     6e8:	f0 e0       	ldi	r31, 0x00	; 0
     6ea:	80 81       	ld	r24, Z
     6ec:	81 60       	ori	r24, 0x01	; 1
     6ee:	80 83       	st	Z, r24
     6f0:	2e c0       	rjmp	.+92     	; 0x74e <TIMER_COUNTER1enable+0x186>
     6f2:	87 b7       	in	r24, 0x37	; 55
     6f4:	80 62       	ori	r24, 0x20	; 32
     6f6:	87 bf       	out	0x37, r24	; 55
     6f8:	2a c0       	rjmp	.+84     	; 0x74e <TIMER_COUNTER1enable+0x186>
     6fa:	87 b7       	in	r24, 0x37	; 55
     6fc:	84 61       	ori	r24, 0x14	; 20
     6fe:	87 bf       	out	0x37, r24	; 55
     700:	26 c0       	rjmp	.+76     	; 0x74e <TIMER_COUNTER1enable+0x186>
     702:	87 b7       	in	r24, 0x37	; 55
     704:	8c 60       	ori	r24, 0x0C	; 12
     706:	87 bf       	out	0x37, r24	; 55
     708:	22 c0       	rjmp	.+68     	; 0x74e <TIMER_COUNTER1enable+0x186>
     70a:	87 b7       	in	r24, 0x37	; 55
     70c:	84 60       	ori	r24, 0x04	; 4
     70e:	87 bf       	out	0x37, r24	; 55
     710:	ed e7       	ldi	r30, 0x7D	; 125
     712:	f0 e0       	ldi	r31, 0x00	; 0
     714:	80 81       	ld	r24, Z
     716:	81 60       	ori	r24, 0x01	; 1
     718:	80 83       	st	Z, r24
     71a:	19 c0       	rjmp	.+50     	; 0x74e <TIMER_COUNTER1enable+0x186>
     71c:	87 b7       	in	r24, 0x37	; 55
     71e:	84 62       	ori	r24, 0x24	; 36
     720:	87 bf       	out	0x37, r24	; 55
     722:	15 c0       	rjmp	.+42     	; 0x74e <TIMER_COUNTER1enable+0x186>
     724:	87 b7       	in	r24, 0x37	; 55
     726:	8c 61       	ori	r24, 0x1C	; 28
     728:	87 bf       	out	0x37, r24	; 55
     72a:	11 c0       	rjmp	.+34     	; 0x74e <TIMER_COUNTER1enable+0x186>
     72c:	87 b7       	in	r24, 0x37	; 55
     72e:	8c 61       	ori	r24, 0x1C	; 28
     730:	87 bf       	out	0x37, r24	; 55
     732:	ed e7       	ldi	r30, 0x7D	; 125
     734:	f0 e0       	ldi	r31, 0x00	; 0
     736:	80 81       	ld	r24, Z
     738:	81 60       	ori	r24, 0x01	; 1
     73a:	80 83       	st	Z, r24
     73c:	08 c0       	rjmp	.+16     	; 0x74e <TIMER_COUNTER1enable+0x186>
     73e:	87 b7       	in	r24, 0x37	; 55
     740:	88 61       	ori	r24, 0x18	; 24
     742:	87 bf       	out	0x37, r24	; 55
     744:	ed e7       	ldi	r30, 0x7D	; 125
     746:	f0 e0       	ldi	r31, 0x00	; 0
     748:	80 81       	ld	r24, Z
     74a:	81 60       	ori	r24, 0x01	; 1
     74c:	80 83       	st	Z, r24
     74e:	80 e5       	ldi	r24, 0x50	; 80
     750:	92 e0       	ldi	r25, 0x02	; 2
     752:	11 96       	adiw	r26, 0x01	; 1
     754:	9c 93       	st	X, r25
     756:	8e 93       	st	-X, r24
     758:	85 e6       	ldi	r24, 0x65	; 101
     75a:	92 e0       	ldi	r25, 0x02	; 2
     75c:	13 96       	adiw	r26, 0x03	; 3
     75e:	9c 93       	st	X, r25
     760:	8e 93       	st	-X, r24
     762:	12 97       	sbiw	r26, 0x02	; 2
     764:	8a e7       	ldi	r24, 0x7A	; 122
     766:	92 e0       	ldi	r25, 0x02	; 2
     768:	15 96       	adiw	r26, 0x05	; 5
     76a:	9c 93       	st	X, r25
     76c:	8e 93       	st	-X, r24
     76e:	14 97       	sbiw	r26, 0x04	; 4
     770:	8f e8       	ldi	r24, 0x8F	; 143
     772:	92 e0       	ldi	r25, 0x02	; 2
     774:	17 96       	adiw	r26, 0x07	; 7
     776:	9c 93       	st	X, r25
     778:	8e 93       	st	-X, r24
     77a:	16 97       	sbiw	r26, 0x06	; 6
     77c:	82 e9       	ldi	r24, 0x92	; 146
     77e:	92 e0       	ldi	r25, 0x02	; 2
     780:	19 96       	adiw	r26, 0x09	; 9
     782:	9c 93       	st	X, r25
     784:	8e 93       	st	-X, r24
     786:	18 97       	sbiw	r26, 0x08	; 8
     788:	85 e9       	ldi	r24, 0x95	; 149
     78a:	92 e0       	ldi	r25, 0x02	; 2
     78c:	1b 96       	adiw	r26, 0x0b	; 11
     78e:	9c 93       	st	X, r25
     790:	8e 93       	st	-X, r24
     792:	1a 97       	sbiw	r26, 0x0a	; 10
     794:	89 e0       	ldi	r24, 0x09	; 9
     796:	92 e0       	ldi	r25, 0x02	; 2
     798:	1d 96       	adiw	r26, 0x0d	; 13
     79a:	9c 93       	st	X, r25
     79c:	8e 93       	st	-X, r24
     79e:	1c 97       	sbiw	r26, 0x0c	; 12
     7a0:	8a e9       	ldi	r24, 0x9A	; 154
     7a2:	92 e0       	ldi	r25, 0x02	; 2
     7a4:	1f 96       	adiw	r26, 0x0f	; 15
     7a6:	9c 93       	st	X, r25
     7a8:	8e 93       	st	-X, r24
     7aa:	1e 97       	sbiw	r26, 0x0e	; 14
     7ac:	cd 01       	movw	r24, r26
     7ae:	1f 91       	pop	r17
     7b0:	0f 91       	pop	r16
     7b2:	08 95       	ret

000007b4 <__vector_16>:
/*
** interrupt
*/
// So that main will not freeze when not defined, but rather exclude.
//ISR(TIMER0_COMP_vect){ }
ISR(TIMER0_OVF_vect){ }
     7b4:	1f 92       	push	r1
     7b6:	0f 92       	push	r0
     7b8:	0f b6       	in	r0, 0x3f	; 63
     7ba:	0f 92       	push	r0
     7bc:	11 24       	eor	r1, r1
     7be:	0f 90       	pop	r0
     7c0:	0f be       	out	0x3f, r0	; 63
     7c2:	0f 90       	pop	r0
     7c4:	1f 90       	pop	r1
     7c6:	18 95       	reti

000007c8 <__vector_11>:
ISR(TIMER1_CAPT_vect){ }
     7c8:	1f 92       	push	r1
     7ca:	0f 92       	push	r0
     7cc:	0f b6       	in	r0, 0x3f	; 63
     7ce:	0f 92       	push	r0
     7d0:	11 24       	eor	r1, r1
     7d2:	0f 90       	pop	r0
     7d4:	0f be       	out	0x3f, r0	; 63
     7d6:	0f 90       	pop	r0
     7d8:	1f 90       	pop	r1
     7da:	18 95       	reti

000007dc <__vector_12>:
ISR(TIMER1_COMPA_vect){ }
     7dc:	1f 92       	push	r1
     7de:	0f 92       	push	r0
     7e0:	0f b6       	in	r0, 0x3f	; 63
     7e2:	0f 92       	push	r0
     7e4:	11 24       	eor	r1, r1
     7e6:	0f 90       	pop	r0
     7e8:	0f be       	out	0x3f, r0	; 63
     7ea:	0f 90       	pop	r0
     7ec:	1f 90       	pop	r1
     7ee:	18 95       	reti

000007f0 <__vector_13>:
ISR(TIMER1_COMPB_vect){ }
     7f0:	1f 92       	push	r1
     7f2:	0f 92       	push	r0
     7f4:	0f b6       	in	r0, 0x3f	; 63
     7f6:	0f 92       	push	r0
     7f8:	11 24       	eor	r1, r1
     7fa:	0f 90       	pop	r0
     7fc:	0f be       	out	0x3f, r0	; 63
     7fe:	0f 90       	pop	r0
     800:	1f 90       	pop	r1
     802:	18 95       	reti

00000804 <__vector_24>:
ISR(TIMER1_COMPC_vect){ }
     804:	1f 92       	push	r1
     806:	0f 92       	push	r0
     808:	0f b6       	in	r0, 0x3f	; 63
     80a:	0f 92       	push	r0
     80c:	11 24       	eor	r1, r1
     80e:	0f 90       	pop	r0
     810:	0f be       	out	0x3f, r0	; 63
     812:	0f 90       	pop	r0
     814:	1f 90       	pop	r1
     816:	18 95       	reti

00000818 <__vector_14>:
ISR(TIMER1_OVF_vect){ }
     818:	1f 92       	push	r1
     81a:	0f 92       	push	r0
     81c:	0f b6       	in	r0, 0x3f	; 63
     81e:	0f 92       	push	r0
     820:	11 24       	eor	r1, r1
     822:	0f 90       	pop	r0
     824:	0f be       	out	0x3f, r0	; 63
     826:	0f 90       	pop	r0
     828:	1f 90       	pop	r1
     82a:	18 95       	reti

0000082c <__vector_10>:
ISR(TIMER2_OVF_vect){ }
     82c:	1f 92       	push	r1
     82e:	0f 92       	push	r0
     830:	0f b6       	in	r0, 0x3f	; 63
     832:	0f 92       	push	r0
     834:	11 24       	eor	r1, r1
     836:	0f 90       	pop	r0
     838:	0f be       	out	0x3f, r0	; 63
     83a:	0f 90       	pop	r0
     83c:	1f 90       	pop	r1
     83e:	18 95       	reti

00000840 <__vector_25>:
ISR(TIMER3_CAPT_vect){ }
     840:	1f 92       	push	r1
     842:	0f 92       	push	r0
     844:	0f b6       	in	r0, 0x3f	; 63
     846:	0f 92       	push	r0
     848:	11 24       	eor	r1, r1
     84a:	0f 90       	pop	r0
     84c:	0f be       	out	0x3f, r0	; 63
     84e:	0f 90       	pop	r0
     850:	1f 90       	pop	r1
     852:	18 95       	reti

00000854 <__vector_26>:
ISR(TIMER3_COMPA_vect){ }
     854:	1f 92       	push	r1
     856:	0f 92       	push	r0
     858:	0f b6       	in	r0, 0x3f	; 63
     85a:	0f 92       	push	r0
     85c:	11 24       	eor	r1, r1
     85e:	0f 90       	pop	r0
     860:	0f be       	out	0x3f, r0	; 63
     862:	0f 90       	pop	r0
     864:	1f 90       	pop	r1
     866:	18 95       	reti

00000868 <__vector_27>:
ISR(TIMER3_COMPB_vect){ }
     868:	1f 92       	push	r1
     86a:	0f 92       	push	r0
     86c:	0f b6       	in	r0, 0x3f	; 63
     86e:	0f 92       	push	r0
     870:	11 24       	eor	r1, r1
     872:	0f 90       	pop	r0
     874:	0f be       	out	0x3f, r0	; 63
     876:	0f 90       	pop	r0
     878:	1f 90       	pop	r1
     87a:	18 95       	reti

0000087c <__vector_28>:
ISR(TIMER3_COMPC_vect){ }
     87c:	1f 92       	push	r1
     87e:	0f 92       	push	r0
     880:	0f b6       	in	r0, 0x3f	; 63
     882:	0f 92       	push	r0
     884:	11 24       	eor	r1, r1
     886:	0f 90       	pop	r0
     888:	0f be       	out	0x3f, r0	; 63
     88a:	0f 90       	pop	r0
     88c:	1f 90       	pop	r1
     88e:	18 95       	reti

00000890 <__vector_29>:
ISR(TIMER3_OVF_vect){ }
     890:	1f 92       	push	r1
     892:	0f 92       	push	r0
     894:	0f b6       	in	r0, 0x3f	; 63
     896:	0f 92       	push	r0
     898:	11 24       	eor	r1, r1
     89a:	0f 90       	pop	r0
     89c:	0f be       	out	0x3f, r0	; 63
     89e:	0f 90       	pop	r0
     8a0:	1f 90       	pop	r1
     8a2:	18 95       	reti

000008a4 <__vector_18>:
void uart1_puts_p(const char *progmem_s )
{
    register char c;
    while ( (c = pgm_read_byte(progmem_s++)) ) 
      uart1_putc(c);
}/* uart1_puts_p */
     8a4:	1f 92       	push	r1
     8a6:	0f 92       	push	r0
     8a8:	0f b6       	in	r0, 0x3f	; 63
     8aa:	0f 92       	push	r0
     8ac:	11 24       	eor	r1, r1
     8ae:	0b b6       	in	r0, 0x3b	; 59
     8b0:	0f 92       	push	r0
     8b2:	8f 93       	push	r24
     8b4:	9f 93       	push	r25
     8b6:	ef 93       	push	r30
     8b8:	ff 93       	push	r31
     8ba:	8b b1       	in	r24, 0x0b	; 11
     8bc:	9a b1       	in	r25, 0x0a	; 10
     8be:	88 71       	andi	r24, 0x18	; 24
     8c0:	80 93 a2 01 	sts	0x01A2, r24	; 0x8001a2 <UART_LastRxError>
     8c4:	e0 91 a4 01 	lds	r30, 0x01A4	; 0x8001a4 <UART_RxHead>
     8c8:	ef 5f       	subi	r30, 0xFF	; 255
     8ca:	ef 71       	andi	r30, 0x1F	; 31
     8cc:	80 91 a3 01 	lds	r24, 0x01A3	; 0x8001a3 <UART_RxTail>
     8d0:	e8 13       	cpse	r30, r24
     8d2:	04 c0       	rjmp	.+8      	; 0x8dc <__vector_18+0x38>
     8d4:	82 e0       	ldi	r24, 0x02	; 2
     8d6:	80 93 a2 01 	sts	0x01A2, r24	; 0x8001a2 <UART_LastRxError>
     8da:	11 c0       	rjmp	.+34     	; 0x8fe <__vector_18+0x5a>
     8dc:	9c b1       	in	r25, 0x0c	; 12
     8de:	e0 93 a4 01 	sts	0x01A4, r30	; 0x8001a4 <UART_RxHead>
     8e2:	80 91 a2 01 	lds	r24, 0x01A2	; 0x8001a2 <UART_LastRxError>
     8e6:	88 23       	and	r24, r24
     8e8:	31 f0       	breq	.+12     	; 0x8f6 <__vector_18+0x52>
     8ea:	f0 e0       	ldi	r31, 0x00	; 0
     8ec:	e9 55       	subi	r30, 0x59	; 89
     8ee:	fe 4f       	sbci	r31, 0xFE	; 254
     8f0:	88 e5       	ldi	r24, 0x58	; 88
     8f2:	80 83       	st	Z, r24
     8f4:	04 c0       	rjmp	.+8      	; 0x8fe <__vector_18+0x5a>
     8f6:	f0 e0       	ldi	r31, 0x00	; 0
     8f8:	e9 55       	subi	r30, 0x59	; 89
     8fa:	fe 4f       	sbci	r31, 0xFE	; 254
     8fc:	90 83       	st	Z, r25
     8fe:	ff 91       	pop	r31
     900:	ef 91       	pop	r30
     902:	9f 91       	pop	r25
     904:	8f 91       	pop	r24
     906:	0f 90       	pop	r0
     908:	0b be       	out	0x3b, r0	; 59
     90a:	0f 90       	pop	r0
     90c:	0f be       	out	0x3f, r0	; 63
     90e:	0f 90       	pop	r0
     910:	1f 90       	pop	r1
     912:	18 95       	reti

00000914 <__vector_19>:
     914:	1f 92       	push	r1
     916:	0f 92       	push	r0
     918:	0f b6       	in	r0, 0x3f	; 63
     91a:	0f 92       	push	r0
     91c:	11 24       	eor	r1, r1
     91e:	0b b6       	in	r0, 0x3b	; 59
     920:	0f 92       	push	r0
     922:	8f 93       	push	r24
     924:	9f 93       	push	r25
     926:	ef 93       	push	r30
     928:	ff 93       	push	r31
     92a:	90 91 a6 01 	lds	r25, 0x01A6	; 0x8001a6 <UART_TxHead>
     92e:	80 91 a5 01 	lds	r24, 0x01A5	; 0x8001a5 <UART_TxTail>
     932:	98 13       	cpse	r25, r24
     934:	02 c0       	rjmp	.+4      	; 0x93a <__vector_19+0x26>
     936:	55 98       	cbi	0x0a, 5	; 10
     938:	0b c0       	rjmp	.+22     	; 0x950 <__vector_19+0x3c>
     93a:	e0 91 a5 01 	lds	r30, 0x01A5	; 0x8001a5 <UART_TxTail>
     93e:	ef 5f       	subi	r30, 0xFF	; 255
     940:	ef 71       	andi	r30, 0x1F	; 31
     942:	e0 93 a5 01 	sts	0x01A5, r30	; 0x8001a5 <UART_TxTail>
     946:	f0 e0       	ldi	r31, 0x00	; 0
     948:	e9 53       	subi	r30, 0x39	; 57
     94a:	fe 4f       	sbci	r31, 0xFE	; 254
     94c:	80 81       	ld	r24, Z
     94e:	8c b9       	out	0x0c, r24	; 12
     950:	ff 91       	pop	r31
     952:	ef 91       	pop	r30
     954:	9f 91       	pop	r25
     956:	8f 91       	pop	r24
     958:	0f 90       	pop	r0
     95a:	0b be       	out	0x3b, r0	; 59
     95c:	0f 90       	pop	r0
     95e:	0f be       	out	0x3f, r0	; 63
     960:	0f 90       	pop	r0
     962:	1f 90       	pop	r1
     964:	18 95       	reti

00000966 <__vector_30>:
SIGNAL(UART1_RECEIVE_INTERRUPT)
/*************************************************************************
Function: UART1 Receive Complete interrupt
Purpose:  called when the UART1 has received a character
**************************************************************************/
{
     966:	1f 92       	push	r1
     968:	0f 92       	push	r0
     96a:	0f b6       	in	r0, 0x3f	; 63
     96c:	0f 92       	push	r0
     96e:	11 24       	eor	r1, r1
     970:	0b b6       	in	r0, 0x3b	; 59
     972:	0f 92       	push	r0
     974:	8f 93       	push	r24
     976:	9f 93       	push	r25
     978:	ef 93       	push	r30
     97a:	ff 93       	push	r31
    unsigned char tmphead;
	unsigned char data;
	unsigned char bit9;
    unsigned char usr;
    /* read UART status register and UART data register */
	usr  = UART1_STATUS;
     97c:	80 91 9b 00 	lds	r24, 0x009B	; 0x80009b <__TEXT_REGION_LENGTH__+0x7e009b>
    bit9 = UART1_CONTROL;
     980:	90 91 9a 00 	lds	r25, 0x009A	; 0x80009a <__TEXT_REGION_LENGTH__+0x7e009a>
    bit9 = 0x01 & (bit9>>1);
    /* */
    UART1_LastRxError = (usr & (_BV(FE1)|_BV(DOR1)));
     984:	88 71       	andi	r24, 0x18	; 24
     986:	80 93 5d 01 	sts	0x015D, r24	; 0x80015d <UART1_LastRxError>
	/* calculate buffer index */
    tmphead = ( UART1_RxHead + 1) & UART_RX_BUFFER_MASK;
     98a:	e0 91 5f 01 	lds	r30, 0x015F	; 0x80015f <UART1_RxHead>
     98e:	ef 5f       	subi	r30, 0xFF	; 255
     990:	ef 71       	andi	r30, 0x1F	; 31
    if ( tmphead == UART1_RxTail ) {	
     992:	80 91 5e 01 	lds	r24, 0x015E	; 0x80015e <UART1_RxTail>
     996:	e8 13       	cpse	r30, r24
     998:	04 c0       	rjmp	.+8      	; 0x9a2 <__vector_30+0x3c>
        /* error: receive buffer overflow, caracter is lost*/
        UART1_LastRxError = UART_BUFFER_OVERFLOW >> 8; 
     99a:	82 e0       	ldi	r24, 0x02	; 2
     99c:	80 93 5d 01 	sts	0x015D, r24	; 0x80015d <UART1_LastRxError>
     9a0:	12 c0       	rjmp	.+36     	; 0x9c6 <__vector_30+0x60>
	}else{
		data = UART1_DATA;
     9a2:	90 91 9c 00 	lds	r25, 0x009C	; 0x80009c <__TEXT_REGION_LENGTH__+0x7e009c>
        /* store new index */
        UART1_RxHead = tmphead;
     9a6:	e0 93 5f 01 	sts	0x015F, r30	; 0x80015f <UART1_RxHead>
		if(UART1_LastRxError){
     9aa:	80 91 5d 01 	lds	r24, 0x015D	; 0x80015d <UART1_LastRxError>
     9ae:	88 23       	and	r24, r24
     9b0:	31 f0       	breq	.+12     	; 0x9be <__vector_30+0x58>
			/* store indication data error in buffer */
			UART1_RxBuf[tmphead] = 'X';
     9b2:	f0 e0       	ldi	r31, 0x00	; 0
     9b4:	ee 59       	subi	r30, 0x9E	; 158
     9b6:	fe 4f       	sbci	r31, 0xFE	; 254
     9b8:	88 e5       	ldi	r24, 0x58	; 88
     9ba:	80 83       	st	Z, r24
     9bc:	04 c0       	rjmp	.+8      	; 0x9c6 <__vector_30+0x60>
		}else{
			/* store received data in buffer */
			UART1_RxBuf[tmphead] = data;
     9be:	f0 e0       	ldi	r31, 0x00	; 0
     9c0:	ee 59       	subi	r30, 0x9E	; 158
     9c2:	fe 4f       	sbci	r31, 0xFE	; 254
     9c4:	90 83       	st	Z, r25
		}
    }
}
     9c6:	ff 91       	pop	r31
     9c8:	ef 91       	pop	r30
     9ca:	9f 91       	pop	r25
     9cc:	8f 91       	pop	r24
     9ce:	0f 90       	pop	r0
     9d0:	0b be       	out	0x3b, r0	; 59
     9d2:	0f 90       	pop	r0
     9d4:	0f be       	out	0x3f, r0	; 63
     9d6:	0f 90       	pop	r0
     9d8:	1f 90       	pop	r1
     9da:	18 95       	reti

000009dc <__vector_31>:
SIGNAL(UART1_TRANSMIT_INTERRUPT)
/*************************************************************************
Function: UART1 Data Register Empty interrupt
Purpose:  called when the UART1 is ready to transmit the next byte
**************************************************************************/
{
     9dc:	1f 92       	push	r1
     9de:	0f 92       	push	r0
     9e0:	0f b6       	in	r0, 0x3f	; 63
     9e2:	0f 92       	push	r0
     9e4:	11 24       	eor	r1, r1
     9e6:	0b b6       	in	r0, 0x3b	; 59
     9e8:	0f 92       	push	r0
     9ea:	8f 93       	push	r24
     9ec:	9f 93       	push	r25
     9ee:	ef 93       	push	r30
     9f0:	ff 93       	push	r31
    if ( UART1_TxHead == UART1_TxTail ) {
     9f2:	90 91 61 01 	lds	r25, 0x0161	; 0x800161 <UART1_TxHead>
     9f6:	80 91 60 01 	lds	r24, 0x0160	; 0x800160 <UART1_TxTail>
     9fa:	98 13       	cpse	r25, r24
     9fc:	06 c0       	rjmp	.+12     	; 0xa0a <__vector_31+0x2e>
        /* tx buffer empty, disable UDRE interrupt */
        UART1_CONTROL &= ~_BV(UART1_UDRIE);
     9fe:	ea e9       	ldi	r30, 0x9A	; 154
     a00:	f0 e0       	ldi	r31, 0x00	; 0
     a02:	80 81       	ld	r24, Z
     a04:	8f 7d       	andi	r24, 0xDF	; 223
     a06:	80 83       	st	Z, r24
     a08:	0e c0       	rjmp	.+28     	; 0xa26 <__vector_31+0x4a>
    }else{
		/* calculate and store new buffer index */
        UART1_TxTail = (UART1_TxTail + 1) & UART_TX_BUFFER_MASK;
     a0a:	80 91 60 01 	lds	r24, 0x0160	; 0x800160 <UART1_TxTail>
     a0e:	8f 5f       	subi	r24, 0xFF	; 255
     a10:	8f 71       	andi	r24, 0x1F	; 31
     a12:	80 93 60 01 	sts	0x0160, r24	; 0x800160 <UART1_TxTail>
        /* get one byte from buffer and write it to UART */
		UART1_DATA = UART1_TxBuf[UART1_TxTail];  /* start transmission */
     a16:	e0 91 60 01 	lds	r30, 0x0160	; 0x800160 <UART1_TxTail>
     a1a:	f0 e0       	ldi	r31, 0x00	; 0
     a1c:	ee 57       	subi	r30, 0x7E	; 126
     a1e:	fe 4f       	sbci	r31, 0xFE	; 254
     a20:	80 81       	ld	r24, Z
     a22:	80 93 9c 00 	sts	0x009C, r24	; 0x80009c <__TEXT_REGION_LENGTH__+0x7e009c>
	}
}
     a26:	ff 91       	pop	r31
     a28:	ef 91       	pop	r30
     a2a:	9f 91       	pop	r25
     a2c:	8f 91       	pop	r24
     a2e:	0f 90       	pop	r0
     a30:	0b be       	out	0x3b, r0	; 59
     a32:	0f 90       	pop	r0
     a34:	0f be       	out	0x3f, r0	; 63
     a36:	0f 90       	pop	r0
     a38:	1f 90       	pop	r1
     a3a:	18 95       	reti

00000a3c <CLOCK_set>:
	clock.show=CLOCK_show;
	return clock;
}
void CLOCK_set(uint8_t hour, uint8_t minute, uint8_t second)
{
	time.hour=hour;
     a3c:	e8 ef       	ldi	r30, 0xF8	; 248
     a3e:	f1 e0       	ldi	r31, 0x01	; 1
     a40:	80 83       	st	Z, r24
	time.minute=minute;
     a42:	61 83       	std	Z+1, r22	; 0x01
	time.second=second;
     a44:	42 83       	std	Z+2, r20	; 0x02
     a46:	08 95       	ret

00000a48 <CLOCK_increment>:
}
void CLOCK_increment(void)
{
	time.second++;
     a48:	e8 ef       	ldi	r30, 0xF8	; 248
     a4a:	f1 e0       	ldi	r31, 0x01	; 1
     a4c:	82 81       	ldd	r24, Z+2	; 0x02
     a4e:	8f 5f       	subi	r24, 0xFF	; 255
     a50:	82 83       	std	Z+2, r24	; 0x02
	if(time.second>59){
     a52:	8c 33       	cpi	r24, 0x3C	; 60
     a54:	0c f4       	brge	.+2      	; 0xa58 <CLOCK_increment+0x10>
     a56:	7a c0       	rjmp	.+244    	; 0xb4c <CLOCK_increment+0x104>
		time.minute++;
     a58:	81 81       	ldd	r24, Z+1	; 0x01
     a5a:	8f 5f       	subi	r24, 0xFF	; 255
     a5c:	81 83       	std	Z+1, r24	; 0x01
		time.second=0;
     a5e:	12 82       	std	Z+2, r1	; 0x02
		if(time.minute>59){
     a60:	8c 33       	cpi	r24, 0x3C	; 60
     a62:	44 f0       	brlt	.+16     	; 0xa74 <CLOCK_increment+0x2c>
			time.hour++;
     a64:	80 81       	ld	r24, Z
     a66:	8f 5f       	subi	r24, 0xFF	; 255
     a68:	80 83       	st	Z, r24
			time.minute=0;
     a6a:	11 82       	std	Z+1, r1	; 0x01
			switch (HORA){
				case 24:
					if(time.hour>23)
     a6c:	88 31       	cpi	r24, 0x18	; 24
     a6e:	14 f0       	brlt	.+4      	; 0xa74 <CLOCK_increment+0x2c>
						time.hour=0;
     a70:	10 92 f8 01 	sts	0x01F8, r1	; 0x8001f8 <time>
					break;
			}
		}
	}
	/******************************************************************************************************************/
	if(time.hour==laptime.hour && CLOCK_compare_active==4)
     a74:	80 91 f8 01 	lds	r24, 0x01F8	; 0x8001f8 <time>
     a78:	90 91 fb 01 	lds	r25, 0x01FB	; 0x8001fb <laptime>
     a7c:	89 13       	cpse	r24, r25
     a7e:	2a c0       	rjmp	.+84     	; 0xad4 <CLOCK_increment+0x8c>
     a80:	90 91 fe 01 	lds	r25, 0x01FE	; 0x8001fe <CLOCK_compare_active>
     a84:	94 30       	cpi	r25, 0x04	; 4
     a86:	09 f0       	breq	.+2      	; 0xa8a <CLOCK_increment+0x42>
     a88:	53 c0       	rjmp	.+166    	; 0xb30 <CLOCK_increment+0xe8>
		CLOCK_compare_active=3;
     a8a:	93 e0       	ldi	r25, 0x03	; 3
     a8c:	90 93 fe 01 	sts	0x01FE, r25	; 0x8001fe <CLOCK_compare_active>
	if(time.hour==laptime.hour && time.minute==laptime.minute && CLOCK_compare_active==3)
     a90:	20 91 fc 01 	lds	r18, 0x01FC	; 0x8001fc <laptime+0x1>
     a94:	90 91 f9 01 	lds	r25, 0x01F9	; 0x8001f9 <time+0x1>
     a98:	29 13       	cpse	r18, r25
     a9a:	09 c0       	rjmp	.+18     	; 0xaae <CLOCK_increment+0x66>
     a9c:	04 c0       	rjmp	.+8      	; 0xaa6 <CLOCK_increment+0x5e>
     a9e:	90 91 fe 01 	lds	r25, 0x01FE	; 0x8001fe <CLOCK_compare_active>
     aa2:	93 30       	cpi	r25, 0x03	; 3
     aa4:	51 f4       	brne	.+20     	; 0xaba <CLOCK_increment+0x72>
		CLOCK_compare_active=2;
     aa6:	92 e0       	ldi	r25, 0x02	; 2
     aa8:	90 93 fe 01 	sts	0x01FE, r25	; 0x8001fe <CLOCK_compare_active>
     aac:	06 c0       	rjmp	.+12     	; 0xaba <CLOCK_increment+0x72>
	if(time.hour==laptime.hour && time.minute==laptime.minute && time.second==laptime.second && CLOCK_compare_active==2)
     aae:	20 91 f9 01 	lds	r18, 0x01F9	; 0x8001f9 <time+0x1>
     ab2:	90 91 fc 01 	lds	r25, 0x01FC	; 0x8001fc <laptime+0x1>
     ab6:	29 13       	cpse	r18, r25
     ab8:	0d c0       	rjmp	.+26     	; 0xad4 <CLOCK_increment+0x8c>
     aba:	20 91 fa 01 	lds	r18, 0x01FA	; 0x8001fa <time+0x2>
     abe:	90 91 fd 01 	lds	r25, 0x01FD	; 0x8001fd <laptime+0x2>
     ac2:	29 13       	cpse	r18, r25
     ac4:	07 c0       	rjmp	.+14     	; 0xad4 <CLOCK_increment+0x8c>
     ac6:	90 91 fe 01 	lds	r25, 0x01FE	; 0x8001fe <CLOCK_compare_active>
     aca:	92 30       	cpi	r25, 0x02	; 2
     acc:	19 f4       	brne	.+6      	; 0xad4 <CLOCK_increment+0x8c>
		CLOCK_compare_active=1;
     ace:	91 e0       	ldi	r25, 0x01	; 1
     ad0:	90 93 fe 01 	sts	0x01FE, r25	; 0x8001fe <CLOCK_compare_active>
	/******************************************************************************************************************/
	if(time.hour==alarmtime.hour && CLOCK_alarm_flag==4)
     ad4:	90 91 f5 01 	lds	r25, 0x01F5	; 0x8001f5 <alarmtime>
     ad8:	98 13       	cpse	r25, r24
     ada:	3f c0       	rjmp	.+126    	; 0xb5a <CLOCK_increment+0x112>
     adc:	80 91 f4 01 	lds	r24, 0x01F4	; 0x8001f4 <CLOCK_alarm_flag>
     ae0:	84 30       	cpi	r24, 0x04	; 4
     ae2:	69 f5       	brne	.+90     	; 0xb3e <CLOCK_increment+0xf6>
		CLOCK_alarm_flag=3;
     ae4:	83 e0       	ldi	r24, 0x03	; 3
     ae6:	80 93 f4 01 	sts	0x01F4, r24	; 0x8001f4 <CLOCK_alarm_flag>
	if(time.hour==alarmtime.hour && time.minute==alarmtime.minute && CLOCK_alarm_flag==3)
     aea:	90 91 f9 01 	lds	r25, 0x01F9	; 0x8001f9 <time+0x1>
     aee:	80 91 f6 01 	lds	r24, 0x01F6	; 0x8001f6 <alarmtime+0x1>
     af2:	98 13       	cpse	r25, r24
     af4:	09 c0       	rjmp	.+18     	; 0xb08 <CLOCK_increment+0xc0>
     af6:	04 c0       	rjmp	.+8      	; 0xb00 <CLOCK_increment+0xb8>
     af8:	80 91 f4 01 	lds	r24, 0x01F4	; 0x8001f4 <CLOCK_alarm_flag>
     afc:	83 30       	cpi	r24, 0x03	; 3
     afe:	51 f4       	brne	.+20     	; 0xb14 <CLOCK_increment+0xcc>
		CLOCK_alarm_flag=2;
     b00:	82 e0       	ldi	r24, 0x02	; 2
     b02:	80 93 f4 01 	sts	0x01F4, r24	; 0x8001f4 <CLOCK_alarm_flag>
     b06:	06 c0       	rjmp	.+12     	; 0xb14 <CLOCK_increment+0xcc>
	if(time.hour==alarmtime.hour && time.minute==alarmtime.minute && time.second==alarmtime.second && CLOCK_alarm_flag==2)
     b08:	90 91 f9 01 	lds	r25, 0x01F9	; 0x8001f9 <time+0x1>
     b0c:	80 91 f6 01 	lds	r24, 0x01F6	; 0x8001f6 <alarmtime+0x1>
     b10:	98 13       	cpse	r25, r24
     b12:	23 c0       	rjmp	.+70     	; 0xb5a <CLOCK_increment+0x112>
     b14:	90 91 fa 01 	lds	r25, 0x01FA	; 0x8001fa <time+0x2>
     b18:	80 91 f7 01 	lds	r24, 0x01F7	; 0x8001f7 <alarmtime+0x2>
     b1c:	98 13       	cpse	r25, r24
     b1e:	1d c0       	rjmp	.+58     	; 0xb5a <CLOCK_increment+0x112>
     b20:	80 91 f4 01 	lds	r24, 0x01F4	; 0x8001f4 <CLOCK_alarm_flag>
     b24:	82 30       	cpi	r24, 0x02	; 2
     b26:	c9 f4       	brne	.+50     	; 0xb5a <CLOCK_increment+0x112>
		CLOCK_alarm_flag=1;
     b28:	81 e0       	ldi	r24, 0x01	; 1
     b2a:	80 93 f4 01 	sts	0x01F4, r24	; 0x8001f4 <CLOCK_alarm_flag>
}
     b2e:	08 95       	ret
		}
	}
	/******************************************************************************************************************/
	if(time.hour==laptime.hour && CLOCK_compare_active==4)
		CLOCK_compare_active=3;
	if(time.hour==laptime.hour && time.minute==laptime.minute && CLOCK_compare_active==3)
     b30:	20 91 f9 01 	lds	r18, 0x01F9	; 0x8001f9 <time+0x1>
     b34:	90 91 fc 01 	lds	r25, 0x01FC	; 0x8001fc <laptime+0x1>
     b38:	29 13       	cpse	r18, r25
     b3a:	cc cf       	rjmp	.-104    	; 0xad4 <CLOCK_increment+0x8c>
     b3c:	b0 cf       	rjmp	.-160    	; 0xa9e <CLOCK_increment+0x56>
	if(time.hour==laptime.hour && time.minute==laptime.minute && time.second==laptime.second && CLOCK_compare_active==2)
		CLOCK_compare_active=1;
	/******************************************************************************************************************/
	if(time.hour==alarmtime.hour && CLOCK_alarm_flag==4)
		CLOCK_alarm_flag=3;
	if(time.hour==alarmtime.hour && time.minute==alarmtime.minute && CLOCK_alarm_flag==3)
     b3e:	90 91 f9 01 	lds	r25, 0x01F9	; 0x8001f9 <time+0x1>
     b42:	80 91 f6 01 	lds	r24, 0x01F6	; 0x8001f6 <alarmtime+0x1>
     b46:	98 13       	cpse	r25, r24
     b48:	08 c0       	rjmp	.+16     	; 0xb5a <CLOCK_increment+0x112>
     b4a:	d6 cf       	rjmp	.-84     	; 0xaf8 <CLOCK_increment+0xb0>
					break;
			}
		}
	}
	/******************************************************************************************************************/
	if(time.hour==laptime.hour && CLOCK_compare_active==4)
     b4c:	80 91 f8 01 	lds	r24, 0x01F8	; 0x8001f8 <time>
     b50:	90 91 fb 01 	lds	r25, 0x01FB	; 0x8001fb <laptime>
     b54:	98 13       	cpse	r25, r24
     b56:	be cf       	rjmp	.-132    	; 0xad4 <CLOCK_increment+0x8c>
     b58:	93 cf       	rjmp	.-218    	; 0xa80 <CLOCK_increment+0x38>
     b5a:	08 95       	ret

00000b5c <CLOCK_decrement>:
	if(time.hour==alarmtime.hour && time.minute==alarmtime.minute && time.second==alarmtime.second && CLOCK_alarm_flag==2)
		CLOCK_alarm_flag=1;
}
void CLOCK_decrement(void)
{
	time.second--;
     b5c:	e8 ef       	ldi	r30, 0xF8	; 248
     b5e:	f1 e0       	ldi	r31, 0x01	; 1
     b60:	82 81       	ldd	r24, Z+2	; 0x02
     b62:	81 50       	subi	r24, 0x01	; 1
     b64:	82 83       	std	Z+2, r24	; 0x02
	if(time.second<0){
     b66:	88 23       	and	r24, r24
     b68:	0c f0       	brlt	.+2      	; 0xb6c <CLOCK_decrement+0x10>
     b6a:	47 c0       	rjmp	.+142    	; 0xbfa <CLOCK_decrement+0x9e>
		time.minute--;
     b6c:	81 81       	ldd	r24, Z+1	; 0x01
     b6e:	81 50       	subi	r24, 0x01	; 1
     b70:	81 83       	std	Z+1, r24	; 0x01
		time.second=59;
     b72:	9b e3       	ldi	r25, 0x3B	; 59
     b74:	92 83       	std	Z+2, r25	; 0x02
		if(time.minute<0){
     b76:	88 23       	and	r24, r24
     b78:	4c f4       	brge	.+18     	; 0xb8c <CLOCK_decrement+0x30>
			time.hour--;
     b7a:	80 81       	ld	r24, Z
     b7c:	81 50       	subi	r24, 0x01	; 1
     b7e:	80 83       	st	Z, r24
			time.minute=59;
     b80:	91 83       	std	Z+1, r25	; 0x01
			switch (HORA){
				case 24:
					if(time.hour<0)
     b82:	88 23       	and	r24, r24
     b84:	1c f4       	brge	.+6      	; 0xb8c <CLOCK_decrement+0x30>
						time.hour=23;
     b86:	87 e1       	ldi	r24, 0x17	; 23
     b88:	80 93 f8 01 	sts	0x01F8, r24	; 0x8001f8 <time>
					break;
			}
		}
	}
	/******************************************************************************************************************/
	if(time.hour==alarmtime.hour && CLOCK_alarm_flag==4)
     b8c:	90 91 f8 01 	lds	r25, 0x01F8	; 0x8001f8 <time>
     b90:	80 91 f5 01 	lds	r24, 0x01F5	; 0x8001f5 <alarmtime>
     b94:	98 13       	cpse	r25, r24
     b96:	37 c0       	rjmp	.+110    	; 0xc06 <CLOCK_decrement+0xaa>
     b98:	80 91 f4 01 	lds	r24, 0x01F4	; 0x8001f4 <CLOCK_alarm_flag>
     b9c:	84 30       	cpi	r24, 0x04	; 4
     b9e:	31 f5       	brne	.+76     	; 0xbec <CLOCK_decrement+0x90>
		CLOCK_alarm_flag=3;
     ba0:	83 e0       	ldi	r24, 0x03	; 3
     ba2:	80 93 f4 01 	sts	0x01F4, r24	; 0x8001f4 <CLOCK_alarm_flag>
	if(time.hour==alarmtime.hour && time.minute==alarmtime.minute && CLOCK_alarm_flag==3)
     ba6:	90 91 f9 01 	lds	r25, 0x01F9	; 0x8001f9 <time+0x1>
     baa:	80 91 f6 01 	lds	r24, 0x01F6	; 0x8001f6 <alarmtime+0x1>
     bae:	98 13       	cpse	r25, r24
     bb0:	09 c0       	rjmp	.+18     	; 0xbc4 <CLOCK_decrement+0x68>
     bb2:	04 c0       	rjmp	.+8      	; 0xbbc <CLOCK_decrement+0x60>
     bb4:	80 91 f4 01 	lds	r24, 0x01F4	; 0x8001f4 <CLOCK_alarm_flag>
     bb8:	83 30       	cpi	r24, 0x03	; 3
     bba:	51 f4       	brne	.+20     	; 0xbd0 <CLOCK_decrement+0x74>
		CLOCK_alarm_flag=2;
     bbc:	82 e0       	ldi	r24, 0x02	; 2
     bbe:	80 93 f4 01 	sts	0x01F4, r24	; 0x8001f4 <CLOCK_alarm_flag>
     bc2:	06 c0       	rjmp	.+12     	; 0xbd0 <CLOCK_decrement+0x74>
	if(time.hour==alarmtime.hour && time.minute==alarmtime.minute && time.second==alarmtime.second && CLOCK_alarm_flag==2)
     bc4:	90 91 f9 01 	lds	r25, 0x01F9	; 0x8001f9 <time+0x1>
     bc8:	80 91 f6 01 	lds	r24, 0x01F6	; 0x8001f6 <alarmtime+0x1>
     bcc:	98 13       	cpse	r25, r24
     bce:	1b c0       	rjmp	.+54     	; 0xc06 <CLOCK_decrement+0xaa>
     bd0:	90 91 fa 01 	lds	r25, 0x01FA	; 0x8001fa <time+0x2>
     bd4:	80 91 f7 01 	lds	r24, 0x01F7	; 0x8001f7 <alarmtime+0x2>
     bd8:	98 13       	cpse	r25, r24
     bda:	15 c0       	rjmp	.+42     	; 0xc06 <CLOCK_decrement+0xaa>
     bdc:	80 91 f4 01 	lds	r24, 0x01F4	; 0x8001f4 <CLOCK_alarm_flag>
     be0:	82 30       	cpi	r24, 0x02	; 2
     be2:	89 f4       	brne	.+34     	; 0xc06 <CLOCK_decrement+0xaa>
		CLOCK_alarm_flag=1;		
     be4:	81 e0       	ldi	r24, 0x01	; 1
     be6:	80 93 f4 01 	sts	0x01F4, r24	; 0x8001f4 <CLOCK_alarm_flag>
}
     bea:	08 95       	ret
		}
	}
	/******************************************************************************************************************/
	if(time.hour==alarmtime.hour && CLOCK_alarm_flag==4)
		CLOCK_alarm_flag=3;
	if(time.hour==alarmtime.hour && time.minute==alarmtime.minute && CLOCK_alarm_flag==3)
     bec:	90 91 f9 01 	lds	r25, 0x01F9	; 0x8001f9 <time+0x1>
     bf0:	80 91 f6 01 	lds	r24, 0x01F6	; 0x8001f6 <alarmtime+0x1>
     bf4:	98 13       	cpse	r25, r24
     bf6:	07 c0       	rjmp	.+14     	; 0xc06 <CLOCK_decrement+0xaa>
     bf8:	dd cf       	rjmp	.-70     	; 0xbb4 <CLOCK_decrement+0x58>
					break;
			}
		}
	}
	/******************************************************************************************************************/
	if(time.hour==alarmtime.hour && CLOCK_alarm_flag==4)
     bfa:	90 91 f8 01 	lds	r25, 0x01F8	; 0x8001f8 <time>
     bfe:	80 91 f5 01 	lds	r24, 0x01F5	; 0x8001f5 <alarmtime>
     c02:	98 17       	cp	r25, r24
     c04:	49 f2       	breq	.-110    	; 0xb98 <CLOCK_decrement+0x3c>
     c06:	08 95       	ret

00000c08 <CLOCK_alarm>:
	if(time.hour==alarmtime.hour && time.minute==alarmtime.minute && time.second==alarmtime.second && CLOCK_alarm_flag==2)
		CLOCK_alarm_flag=1;		
}
uint8_t CLOCK_alarm(uint8_t hour, uint8_t minute, uint8_t second)
{
	if(!CLOCK_alarm_flag){
     c08:	90 91 f4 01 	lds	r25, 0x01F4	; 0x8001f4 <CLOCK_alarm_flag>
     c0c:	91 11       	cpse	r25, r1
     c0e:	08 c0       	rjmp	.+16     	; 0xc20 <CLOCK_alarm+0x18>
		alarmtime.hour=hour;
     c10:	e5 ef       	ldi	r30, 0xF5	; 245
     c12:	f1 e0       	ldi	r31, 0x01	; 1
     c14:	80 83       	st	Z, r24
		alarmtime.minute=minute;
     c16:	61 83       	std	Z+1, r22	; 0x01
		alarmtime.second=second;
     c18:	42 83       	std	Z+2, r20	; 0x02
		CLOCK_alarm_flag=4;
     c1a:	84 e0       	ldi	r24, 0x04	; 4
     c1c:	80 93 f4 01 	sts	0x01F4, r24	; 0x8001f4 <CLOCK_alarm_flag>
	}
	return CLOCK_alarm_flag;
}
     c20:	80 91 f4 01 	lds	r24, 0x01F4	; 0x8001f4 <CLOCK_alarm_flag>
     c24:	08 95       	ret

00000c26 <CLOCK_second_count>:
uint8_t CLOCK_second_count(uint16_t second)
{
     c26:	cf 92       	push	r12
     c28:	df 92       	push	r13
     c2a:	ef 92       	push	r14
     c2c:	ff 92       	push	r15
     c2e:	0f 93       	push	r16
     c30:	1f 93       	push	r17
     c32:	cf 93       	push	r28
     c34:	df 93       	push	r29
     c36:	fc 01       	movw	r30, r24
	uint16_t tmp;
	uint8_t tmp_1;
	uint8_t tmp_2;
	uint8_t tmp_3;
	if(!CLOCK_compare_active){
     c38:	80 91 fe 01 	lds	r24, 0x01FE	; 0x8001fe <CLOCK_compare_active>
     c3c:	81 11       	cpse	r24, r1
     c3e:	65 c0       	rjmp	.+202    	; 0xd0a <CLOCK_second_count+0xe4>
		tmp_3=(int8_t)(second % 60);
		tmp=second/60;
		tmp_2=(int8_t)(tmp % 60);
		tmp=tmp/60;
		tmp_1=(int8_t)tmp;
		laptime.second=(time.second + tmp_3) % 60;
     c40:	9f 01       	movw	r18, r30
     c42:	a9 e8       	ldi	r26, 0x89	; 137
     c44:	b8 e8       	ldi	r27, 0x88	; 136
     c46:	0e 94 55 12 	call	0x24aa	; 0x24aa <__umulhisi3>
     c4a:	6c 01       	movw	r12, r24
     c4c:	d6 94       	lsr	r13
     c4e:	c7 94       	ror	r12
     c50:	d6 94       	lsr	r13
     c52:	c7 94       	ror	r12
     c54:	d6 94       	lsr	r13
     c56:	c7 94       	ror	r12
     c58:	d6 94       	lsr	r13
     c5a:	c7 94       	ror	r12
     c5c:	d6 94       	lsr	r13
     c5e:	c7 94       	ror	r12
     c60:	4c e3       	ldi	r20, 0x3C	; 60
     c62:	4c 9d       	mul	r20, r12
     c64:	c0 01       	movw	r24, r0
     c66:	4d 9d       	mul	r20, r13
     c68:	90 0d       	add	r25, r0
     c6a:	11 24       	eor	r1, r1
     c6c:	28 1b       	sub	r18, r24
     c6e:	39 0b       	sbc	r19, r25
     c70:	c8 ef       	ldi	r28, 0xF8	; 248
     c72:	d1 e0       	ldi	r29, 0x01	; 1
     c74:	8a 81       	ldd	r24, Y+2	; 0x02
     c76:	08 2e       	mov	r0, r24
     c78:	00 0c       	add	r0, r0
     c7a:	99 0b       	sbc	r25, r25
     c7c:	82 0f       	add	r24, r18
     c7e:	91 1d       	adc	r25, r1
     c80:	0b ef       	ldi	r16, 0xFB	; 251
     c82:	11 e0       	ldi	r17, 0x01	; 1
     c84:	0f 2e       	mov	r0, r31
     c86:	fc e3       	ldi	r31, 0x3C	; 60
     c88:	ef 2e       	mov	r14, r31
     c8a:	f1 2c       	mov	r15, r1
     c8c:	f0 2d       	mov	r31, r0
     c8e:	b7 01       	movw	r22, r14
     c90:	0e 94 fb 11 	call	0x23f6	; 0x23f6 <__divmodhi4>
     c94:	56 2f       	mov	r21, r22
     c96:	d8 01       	movw	r26, r16
     c98:	12 96       	adiw	r26, 0x02	; 2
     c9a:	8c 93       	st	X, r24
		tmp_3=(time.second + tmp_3)/60;
		laptime.minute=(time.minute + tmp_2 + tmp_3) % 60;
     c9c:	96 01       	movw	r18, r12
     c9e:	a9 e8       	ldi	r26, 0x89	; 137
     ca0:	b8 e8       	ldi	r27, 0x88	; 136
     ca2:	0e 94 55 12 	call	0x24aa	; 0x24aa <__umulhisi3>
     ca6:	96 95       	lsr	r25
     ca8:	87 95       	ror	r24
     caa:	92 95       	swap	r25
     cac:	82 95       	swap	r24
     cae:	8f 70       	andi	r24, 0x0F	; 15
     cb0:	89 27       	eor	r24, r25
     cb2:	9f 70       	andi	r25, 0x0F	; 15
     cb4:	89 27       	eor	r24, r25
     cb6:	48 9f       	mul	r20, r24
     cb8:	90 01       	movw	r18, r0
     cba:	49 9f       	mul	r20, r25
     cbc:	30 0d       	add	r19, r0
     cbe:	11 24       	eor	r1, r1
     cc0:	c2 1a       	sub	r12, r18
     cc2:	d3 0a       	sbc	r13, r19
     cc4:	89 81       	ldd	r24, Y+1	; 0x01
     cc6:	08 2e       	mov	r0, r24
     cc8:	00 0c       	add	r0, r0
     cca:	99 0b       	sbc	r25, r25
     ccc:	8c 0d       	add	r24, r12
     cce:	91 1d       	adc	r25, r1
     cd0:	85 0f       	add	r24, r21
     cd2:	91 1d       	adc	r25, r1
     cd4:	b7 01       	movw	r22, r14
     cd6:	0e 94 fb 11 	call	0x23f6	; 0x23f6 <__divmodhi4>
     cda:	26 2f       	mov	r18, r22
     cdc:	d8 01       	movw	r26, r16
     cde:	11 96       	adiw	r26, 0x01	; 1
     ce0:	8c 93       	st	X, r24
		tmp_2=(time.minute + tmp_2 + tmp_3)/60;
		tmp_1=time.hour+ tmp_1 + tmp_2;
     ce2:	cf 01       	movw	r24, r30
     ce4:	60 e1       	ldi	r22, 0x10	; 16
     ce6:	7e e0       	ldi	r23, 0x0E	; 14
     ce8:	0e 94 e7 11 	call	0x23ce	; 0x23ce <__udivmodhi4>
     cec:	88 81       	ld	r24, Y
     cee:	68 0f       	add	r22, r24
     cf0:	62 0f       	add	r22, r18
		if(tmp_1 > HORA)
     cf2:	69 31       	cpi	r22, 0x19	; 25
     cf4:	28 f0       	brcs	.+10     	; 0xd00 <CLOCK_second_count+0xda>
			laptime.hour=HORA-tmp_1;
     cf6:	88 e1       	ldi	r24, 0x18	; 24
     cf8:	86 1b       	sub	r24, r22
     cfa:	80 93 fb 01 	sts	0x01FB, r24	; 0x8001fb <laptime>
     cfe:	02 c0       	rjmp	.+4      	; 0xd04 <CLOCK_second_count+0xde>
		else
			laptime.hour=tmp_1;
     d00:	60 93 fb 01 	sts	0x01FB, r22	; 0x8001fb <laptime>
		CLOCK_compare_active=4;
     d04:	84 e0       	ldi	r24, 0x04	; 4
     d06:	80 93 fe 01 	sts	0x01FE, r24	; 0x8001fe <CLOCK_compare_active>
	}
	return CLOCK_compare_active;
}
     d0a:	80 91 fe 01 	lds	r24, 0x01FE	; 0x8001fe <CLOCK_compare_active>
     d0e:	df 91       	pop	r29
     d10:	cf 91       	pop	r28
     d12:	1f 91       	pop	r17
     d14:	0f 91       	pop	r16
     d16:	ff 90       	pop	r15
     d18:	ef 90       	pop	r14
     d1a:	df 90       	pop	r13
     d1c:	cf 90       	pop	r12
     d1e:	08 95       	ret

00000d20 <CLOCK_alarm_reset>:
void CLOCK_alarm_reset(void)
{
	CLOCK_alarm_flag=0;
     d20:	10 92 f4 01 	sts	0x01F4, r1	; 0x8001f4 <CLOCK_alarm_flag>
     d24:	08 95       	ret

00000d26 <CLOCK_alarm_stop>:
}
void CLOCK_alarm_stop(void)
{
	CLOCK_alarm_flag=0X0F;
     d26:	8f e0       	ldi	r24, 0x0F	; 15
     d28:	80 93 f4 01 	sts	0x01F4, r24	; 0x8001f4 <CLOCK_alarm_flag>
     d2c:	08 95       	ret

00000d2e <CLOCK_second_count_reset>:
}
void CLOCK_second_count_reset(void)
{
	CLOCK_compare_active=0;
     d2e:	10 92 fe 01 	sts	0x01FE, r1	; 0x8001fe <CLOCK_compare_active>
     d32:	08 95       	ret

00000d34 <CLOCK_second_count_stop>:
}
void CLOCK_second_count_stop(void)
{
	CLOCK_compare_active=0X0F;
     d34:	8f e0       	ldi	r24, 0x0F	; 15
     d36:	80 93 fe 01 	sts	0x01FE, r24	; 0x8001fe <CLOCK_compare_active>
     d3a:	08 95       	ret

00000d3c <CLOCK_show>:
}
char* CLOCK_show(void)
{
	uint8_t tmp;
	CLOCK_timp[8]='\0';
     d3c:	eb ee       	ldi	r30, 0xEB	; 235
     d3e:	f1 e0       	ldi	r31, 0x01	; 1
     d40:	10 86       	std	Z+8, r1	; 0x08
	CLOCK_timp[7]=time.second % 10 + '0';
     d42:	a8 ef       	ldi	r26, 0xF8	; 248
     d44:	b1 e0       	ldi	r27, 0x01	; 1
     d46:	12 96       	adiw	r26, 0x02	; 2
     d48:	2c 91       	ld	r18, X
     d4a:	12 97       	sbiw	r26, 0x02	; 2
     d4c:	87 e6       	ldi	r24, 0x67	; 103
     d4e:	28 02       	muls	r18, r24
     d50:	91 2d       	mov	r25, r1
     d52:	11 24       	eor	r1, r1
     d54:	95 95       	asr	r25
     d56:	95 95       	asr	r25
     d58:	27 fd       	sbrc	r18, 7
     d5a:	93 95       	inc	r25
     d5c:	49 2f       	mov	r20, r25
     d5e:	44 0f       	add	r20, r20
     d60:	34 2f       	mov	r19, r20
     d62:	33 0f       	add	r19, r19
     d64:	33 0f       	add	r19, r19
     d66:	34 0f       	add	r19, r20
     d68:	23 1b       	sub	r18, r19
     d6a:	20 5d       	subi	r18, 0xD0	; 208
     d6c:	27 83       	std	Z+7, r18	; 0x07
	tmp = time.second / 10;
	CLOCK_timp[6]=tmp % 10 + '0';
     d6e:	2d ec       	ldi	r18, 0xCD	; 205
     d70:	92 9f       	mul	r25, r18
     d72:	31 2d       	mov	r19, r1
     d74:	11 24       	eor	r1, r1
     d76:	36 95       	lsr	r19
     d78:	36 95       	lsr	r19
     d7a:	36 95       	lsr	r19
     d7c:	33 0f       	add	r19, r19
     d7e:	43 2f       	mov	r20, r19
     d80:	44 0f       	add	r20, r20
     d82:	44 0f       	add	r20, r20
     d84:	34 0f       	add	r19, r20
     d86:	93 1b       	sub	r25, r19
     d88:	90 5d       	subi	r25, 0xD0	; 208
     d8a:	96 83       	std	Z+6, r25	; 0x06
	CLOCK_timp[5]=':';
     d8c:	5a e3       	ldi	r21, 0x3A	; 58
     d8e:	55 83       	std	Z+5, r21	; 0x05
	CLOCK_timp[4]=time.minute % 10 + '0';
     d90:	11 96       	adiw	r26, 0x01	; 1
     d92:	3c 91       	ld	r19, X
     d94:	11 97       	sbiw	r26, 0x01	; 1
     d96:	38 02       	muls	r19, r24
     d98:	91 2d       	mov	r25, r1
     d9a:	11 24       	eor	r1, r1
     d9c:	95 95       	asr	r25
     d9e:	95 95       	asr	r25
     da0:	37 fd       	sbrc	r19, 7
     da2:	93 95       	inc	r25
     da4:	69 2f       	mov	r22, r25
     da6:	66 0f       	add	r22, r22
     da8:	46 2f       	mov	r20, r22
     daa:	44 0f       	add	r20, r20
     dac:	44 0f       	add	r20, r20
     dae:	46 0f       	add	r20, r22
     db0:	34 1b       	sub	r19, r20
     db2:	30 5d       	subi	r19, 0xD0	; 208
     db4:	34 83       	std	Z+4, r19	; 0x04
	tmp = time.minute / 10;
	CLOCK_timp[3]=tmp % 10 + '0';
     db6:	92 9f       	mul	r25, r18
     db8:	31 2d       	mov	r19, r1
     dba:	11 24       	eor	r1, r1
     dbc:	36 95       	lsr	r19
     dbe:	36 95       	lsr	r19
     dc0:	36 95       	lsr	r19
     dc2:	33 0f       	add	r19, r19
     dc4:	43 2f       	mov	r20, r19
     dc6:	44 0f       	add	r20, r20
     dc8:	44 0f       	add	r20, r20
     dca:	34 0f       	add	r19, r20
     dcc:	93 1b       	sub	r25, r19
     dce:	90 5d       	subi	r25, 0xD0	; 208
     dd0:	93 83       	std	Z+3, r25	; 0x03
	CLOCK_timp[2]=':';
     dd2:	52 83       	std	Z+2, r21	; 0x02
	CLOCK_timp[1]=time.hour % 10 + '0';
     dd4:	9c 91       	ld	r25, X
     dd6:	98 02       	muls	r25, r24
     dd8:	81 2d       	mov	r24, r1
     dda:	11 24       	eor	r1, r1
     ddc:	85 95       	asr	r24
     dde:	85 95       	asr	r24
     de0:	97 fd       	sbrc	r25, 7
     de2:	83 95       	inc	r24
     de4:	48 2f       	mov	r20, r24
     de6:	44 0f       	add	r20, r20
     de8:	34 2f       	mov	r19, r20
     dea:	33 0f       	add	r19, r19
     dec:	33 0f       	add	r19, r19
     dee:	34 0f       	add	r19, r20
     df0:	93 1b       	sub	r25, r19
     df2:	90 5d       	subi	r25, 0xD0	; 208
     df4:	91 83       	std	Z+1, r25	; 0x01
	tmp = time.hour / 10;
	CLOCK_timp[0]=tmp % 10 + '0';
     df6:	82 9f       	mul	r24, r18
     df8:	21 2d       	mov	r18, r1
     dfa:	11 24       	eor	r1, r1
     dfc:	26 95       	lsr	r18
     dfe:	26 95       	lsr	r18
     e00:	26 95       	lsr	r18
     e02:	22 0f       	add	r18, r18
     e04:	92 2f       	mov	r25, r18
     e06:	99 0f       	add	r25, r25
     e08:	99 0f       	add	r25, r25
     e0a:	29 0f       	add	r18, r25
     e0c:	82 1b       	sub	r24, r18
     e0e:	80 5d       	subi	r24, 0xD0	; 208
     e10:	80 83       	st	Z, r24
	return CLOCK_timp;
}
     e12:	cf 01       	movw	r24, r30
     e14:	08 95       	ret

00000e16 <CLOCKenable>:
char* CLOCK_show(void);
/*
** procedure and function
*/
CLOCK CLOCKenable(uint8_t hour, uint8_t minute, uint8_t second)
{
     e16:	fc 01       	movw	r30, r24
	CLOCK clock;
	time.hour=hour;
     e18:	a8 ef       	ldi	r26, 0xF8	; 248
     e1a:	b1 e0       	ldi	r27, 0x01	; 1
     e1c:	6c 93       	st	X, r22
	time.minute=minute;
     e1e:	11 96       	adiw	r26, 0x01	; 1
     e20:	4c 93       	st	X, r20
     e22:	11 97       	sbiw	r26, 0x01	; 1
	time.second=second;
     e24:	12 96       	adiw	r26, 0x02	; 2
     e26:	2c 93       	st	X, r18
	CLOCK_alarm_flag=0X0F;
     e28:	8f e0       	ldi	r24, 0x0F	; 15
     e2a:	80 93 f4 01 	sts	0x01F4, r24	; 0x8001f4 <CLOCK_alarm_flag>
	CLOCK_compare_active=0X0F;
     e2e:	80 93 fe 01 	sts	0x01FE, r24	; 0x8001fe <CLOCK_compare_active>
	clock.second_count_reset=CLOCK_second_count_reset;
	clock.second_count_stop=CLOCK_second_count_stop;
	clock.alarm_reset=CLOCK_alarm_reset;
	clock.alarm_stop=CLOCK_alarm_stop;
	clock.show=CLOCK_show;
	return clock;
     e32:	8e e1       	ldi	r24, 0x1E	; 30
     e34:	95 e0       	ldi	r25, 0x05	; 5
     e36:	91 83       	std	Z+1, r25	; 0x01
     e38:	80 83       	st	Z, r24
     e3a:	84 e2       	ldi	r24, 0x24	; 36
     e3c:	95 e0       	ldi	r25, 0x05	; 5
     e3e:	93 83       	std	Z+3, r25	; 0x03
     e40:	82 83       	std	Z+2, r24	; 0x02
     e42:	8e ea       	ldi	r24, 0xAE	; 174
     e44:	95 e0       	ldi	r25, 0x05	; 5
     e46:	95 83       	std	Z+5, r25	; 0x05
     e48:	84 83       	std	Z+4, r24	; 0x04
     e4a:	84 e0       	ldi	r24, 0x04	; 4
     e4c:	96 e0       	ldi	r25, 0x06	; 6
     e4e:	97 83       	std	Z+7, r25	; 0x07
     e50:	86 83       	std	Z+6, r24	; 0x06
     e52:	83 e1       	ldi	r24, 0x13	; 19
     e54:	96 e0       	ldi	r25, 0x06	; 6
     e56:	91 87       	std	Z+9, r25	; 0x09
     e58:	80 87       	std	Z+8, r24	; 0x08
     e5a:	87 e9       	ldi	r24, 0x97	; 151
     e5c:	96 e0       	ldi	r25, 0x06	; 6
     e5e:	93 87       	std	Z+11, r25	; 0x0b
     e60:	82 87       	std	Z+10, r24	; 0x0a
     e62:	8a e9       	ldi	r24, 0x9A	; 154
     e64:	96 e0       	ldi	r25, 0x06	; 6
     e66:	95 87       	std	Z+13, r25	; 0x0d
     e68:	84 87       	std	Z+12, r24	; 0x0c
     e6a:	80 e9       	ldi	r24, 0x90	; 144
     e6c:	96 e0       	ldi	r25, 0x06	; 6
     e6e:	97 87       	std	Z+15, r25	; 0x0f
     e70:	86 87       	std	Z+14, r24	; 0x0e
     e72:	83 e9       	ldi	r24, 0x93	; 147
     e74:	96 e0       	ldi	r25, 0x06	; 6
     e76:	91 8b       	std	Z+17, r25	; 0x11
     e78:	80 8b       	std	Z+16, r24	; 0x10
     e7a:	8e e9       	ldi	r24, 0x9E	; 158
     e7c:	96 e0       	ldi	r25, 0x06	; 6
     e7e:	93 8b       	std	Z+19, r25	; 0x13
     e80:	82 8b       	std	Z+18, r24	; 0x12
}
     e82:	cf 01       	movw	r24, r30
     e84:	08 95       	ret

00000e86 <FUNCpinmatch>:
}
//pinmatch
uint8_t FUNCpinmatch(uint8_t match, uint8_t pin, uint8_t HL)
{
	uint8_t result;
	result=match&pin;
     e86:	68 23       	and	r22, r24
	if(HL){
     e88:	44 23       	and	r20, r20
     e8a:	21 f0       	breq	.+8      	; 0xe94 <FUNCpinmatch+0xe>
		if(result==match);
     e8c:	86 17       	cp	r24, r22
     e8e:	21 f0       	breq	.+8      	; 0xe98 <FUNCpinmatch+0x12>
		else
			result=0;
     e90:	80 e0       	ldi	r24, 0x00	; 0
     e92:	08 95       	ret
	}else{
		if(result)
     e94:	61 11       	cpse	r22, r1
			result=0;
     e96:	80 e0       	ldi	r24, 0x00	; 0
		else
			result=match;
	}
	return result;
}
     e98:	08 95       	ret

00000e9a <FUNChmerge>:
// hmerge
uint8_t FUNChmerge(uint8_t X, uint8_t Y)
{
	return (X | Y);
}
     e9a:	86 2b       	or	r24, r22
     e9c:	08 95       	ret

00000e9e <FUNClmerge>:
// lmerge
uint8_t FUNClmerge(uint8_t X, uint8_t Y)
{
	return (X & Y);
}
     e9e:	86 23       	and	r24, r22
     ea0:	08 95       	ret

00000ea2 <FUNChh>:
uint8_t FUNChh(uint8_t xi, uint8_t xf)
{
	uint8_t i;
	i=xi&xf;
	return i;
}
     ea2:	86 23       	and	r24, r22
     ea4:	08 95       	ret

00000ea6 <FUNCll>:
// ll
uint8_t FUNCll(uint8_t xi, uint8_t xf)
{
	uint8_t i;
	i=xi|xf;
	return ~i;
     ea6:	86 2b       	or	r24, r22
}
     ea8:	80 95       	com	r24
     eaa:	08 95       	ret

00000eac <FUNClh>:
// lh
uint8_t FUNClh(uint8_t xi, uint8_t xf)
{
	uint8_t i;
	i=xi^xf;
     eac:	86 27       	eor	r24, r22
	i&=xf;
	return i;
}
     eae:	86 23       	and	r24, r22
     eb0:	08 95       	ret

00000eb2 <FUNChl>:
// hl
uint8_t FUNChl(uint8_t xi, uint8_t xf)
{
	uint8_t i;
	i=xf^xi;
     eb2:	60 95       	com	r22
	i&=xi;
	return i;
}
     eb4:	86 23       	and	r24, r22
     eb6:	08 95       	ret

00000eb8 <FUNCdiff>:
// diff
uint8_t FUNCdiff(uint8_t xi, uint8_t xf)
{
	return xf^xi;
}
     eb8:	86 27       	eor	r24, r22
     eba:	08 95       	ret

00000ebc <FUNCswap>:
// interchange *px and *py
void FUNCswap(long *px, long *py)
{
     ebc:	cf 92       	push	r12
     ebe:	df 92       	push	r13
     ec0:	ef 92       	push	r14
     ec2:	ff 92       	push	r15
     ec4:	0f 93       	push	r16
     ec6:	1f 93       	push	r17
	long temp;
	temp = *px;
     ec8:	fc 01       	movw	r30, r24
     eca:	00 81       	ld	r16, Z
     ecc:	11 81       	ldd	r17, Z+1	; 0x01
     ece:	22 81       	ldd	r18, Z+2	; 0x02
     ed0:	33 81       	ldd	r19, Z+3	; 0x03
	*px = *py;
     ed2:	fb 01       	movw	r30, r22
     ed4:	c0 80       	ld	r12, Z
     ed6:	d1 80       	ldd	r13, Z+1	; 0x01
     ed8:	e2 80       	ldd	r14, Z+2	; 0x02
     eda:	f3 80       	ldd	r15, Z+3	; 0x03
     edc:	fc 01       	movw	r30, r24
     ede:	c0 82       	st	Z, r12
     ee0:	d1 82       	std	Z+1, r13	; 0x01
     ee2:	e2 82       	std	Z+2, r14	; 0x02
     ee4:	f3 82       	std	Z+3, r15	; 0x03
	*py = temp;
     ee6:	fb 01       	movw	r30, r22
     ee8:	00 83       	st	Z, r16
     eea:	11 83       	std	Z+1, r17	; 0x01
     eec:	22 83       	std	Z+2, r18	; 0x02
     eee:	33 83       	std	Z+3, r19	; 0x03
}
     ef0:	1f 91       	pop	r17
     ef2:	0f 91       	pop	r16
     ef4:	ff 90       	pop	r15
     ef6:	ef 90       	pop	r14
     ef8:	df 90       	pop	r13
     efa:	cf 90       	pop	r12
     efc:	08 95       	ret

00000efe <FUNCcopy>:
// copy: copy 'from' into 'to'; assume to is big enough
void FUNCcopy(char to[], char from[])
{
	int i;
	i = 0;
	while ((to[i] = from[i]) != '\0')
     efe:	fb 01       	movw	r30, r22
     f00:	20 81       	ld	r18, Z
     f02:	fc 01       	movw	r30, r24
     f04:	20 83       	st	Z, r18
     f06:	22 23       	and	r18, r18
     f08:	39 f0       	breq	.+14     	; 0xf18 <FUNCcopy+0x1a>
     f0a:	db 01       	movw	r26, r22
     f0c:	11 96       	adiw	r26, 0x01	; 1
     f0e:	31 96       	adiw	r30, 0x01	; 1
     f10:	9d 91       	ld	r25, X+
     f12:	91 93       	st	Z+, r25
     f14:	91 11       	cpse	r25, r1
     f16:	fc cf       	rjmp	.-8      	; 0xf10 <FUNCcopy+0x12>
     f18:	08 95       	ret

00000f1a <FUNCsqueeze>:
		++i;
}
// squeeze: delete all c from s
void FUNCsqueeze(char s[], int c)
{
     f1a:	cf 93       	push	r28
     f1c:	df 93       	push	r29
     f1e:	ec 01       	movw	r28, r24
	int i, j;
	for (i = j = 0; s[i] != '\0'; i++)
     f20:	98 81       	ld	r25, Y
     f22:	99 23       	and	r25, r25
     f24:	99 f0       	breq	.+38     	; 0xf4c <FUNCsqueeze+0x32>
     f26:	fe 01       	movw	r30, r28
     f28:	31 96       	adiw	r30, 0x01	; 1
     f2a:	20 e0       	ldi	r18, 0x00	; 0
     f2c:	30 e0       	ldi	r19, 0x00	; 0
		if (s[i] != c)
     f2e:	49 2f       	mov	r20, r25
     f30:	50 e0       	ldi	r21, 0x00	; 0
     f32:	46 17       	cp	r20, r22
     f34:	57 07       	cpc	r21, r23
     f36:	31 f0       	breq	.+12     	; 0xf44 <FUNCsqueeze+0x2a>
			s[j++] = s[i];
     f38:	de 01       	movw	r26, r28
     f3a:	a2 0f       	add	r26, r18
     f3c:	b3 1f       	adc	r27, r19
     f3e:	9c 93       	st	X, r25
     f40:	2f 5f       	subi	r18, 0xFF	; 255
     f42:	3f 4f       	sbci	r19, 0xFF	; 255
}
// squeeze: delete all c from s
void FUNCsqueeze(char s[], int c)
{
	int i, j;
	for (i = j = 0; s[i] != '\0'; i++)
     f44:	91 91       	ld	r25, Z+
     f46:	91 11       	cpse	r25, r1
     f48:	f2 cf       	rjmp	.-28     	; 0xf2e <FUNCsqueeze+0x14>
     f4a:	02 c0       	rjmp	.+4      	; 0xf50 <FUNCsqueeze+0x36>
     f4c:	20 e0       	ldi	r18, 0x00	; 0
     f4e:	30 e0       	ldi	r19, 0x00	; 0
		if (s[i] != c)
			s[j++] = s[i];
		s[j] = '\0';
     f50:	fe 01       	movw	r30, r28
     f52:	e2 0f       	add	r30, r18
     f54:	f3 1f       	adc	r31, r19
     f56:	10 82       	st	Z, r1
}
     f58:	df 91       	pop	r29
     f5a:	cf 91       	pop	r28
     f5c:	08 95       	ret

00000f5e <FUNCshellsort>:
// shellsort: sort v[0]...v[n-1] into increasing order
void FUNCshellsort(int v[], int n)
{
     f5e:	2f 92       	push	r2
     f60:	3f 92       	push	r3
     f62:	4f 92       	push	r4
     f64:	5f 92       	push	r5
     f66:	6f 92       	push	r6
     f68:	7f 92       	push	r7
     f6a:	8f 92       	push	r8
     f6c:	9f 92       	push	r9
     f6e:	af 92       	push	r10
     f70:	bf 92       	push	r11
     f72:	cf 92       	push	r12
     f74:	df 92       	push	r13
     f76:	ef 92       	push	r14
     f78:	ff 92       	push	r15
     f7a:	0f 93       	push	r16
     f7c:	1f 93       	push	r17
     f7e:	cf 93       	push	r28
     f80:	df 93       	push	r29
     f82:	00 d0       	rcall	.+0      	; 0xf84 <FUNCshellsort+0x26>
     f84:	00 d0       	rcall	.+0      	; 0xf86 <FUNCshellsort+0x28>
     f86:	cd b7       	in	r28, 0x3d	; 61
     f88:	de b7       	in	r29, 0x3e	; 62
     f8a:	2c 01       	movw	r4, r24
     f8c:	1b 01       	movw	r2, r22
	int gap, i, j, temp;
	for (gap = n/2; gap > 0; gap /= 2)
     f8e:	4b 01       	movw	r8, r22
     f90:	77 23       	and	r23, r23
     f92:	1c f4       	brge	.+6      	; 0xf9a <FUNCshellsort+0x3c>
     f94:	2f ef       	ldi	r18, 0xFF	; 255
     f96:	82 1a       	sub	r8, r18
     f98:	92 0a       	sbc	r9, r18
     f9a:	95 94       	asr	r9
     f9c:	87 94       	ror	r8
     f9e:	18 14       	cp	r1, r8
     fa0:	19 04       	cpc	r1, r9
     fa2:	0c f4       	brge	.+2      	; 0xfa6 <FUNCshellsort+0x48>
     fa4:	51 c0       	rjmp	.+162    	; 0x1048 <FUNCshellsort+0xea>
     fa6:	6a c0       	rjmp	.+212    	; 0x107c <FUNCshellsort+0x11e>
		for (i = gap; i < n; i++)
			for (j=i-gap; j>=0 && v[j]>v[j+gap]; j-=gap){
     fa8:	96 01       	movw	r18, r12
     faa:	dd 20       	and	r13, r13
     fac:	9c f1       	brlt	.+102    	; 0x1014 <FUNCshellsort+0xb6>
     fae:	f5 01       	movw	r30, r10
     fb0:	40 81       	ld	r20, Z
     fb2:	51 81       	ldd	r21, Z+1	; 0x01
     fb4:	f4 01       	movw	r30, r8
     fb6:	60 81       	ld	r22, Z
     fb8:	71 81       	ldd	r23, Z+1	; 0x01
     fba:	64 17       	cp	r22, r20
     fbc:	75 07       	cpc	r23, r21
     fbe:	54 f5       	brge	.+84     	; 0x1014 <FUNCshellsort+0xb6>
     fc0:	8c 01       	movw	r16, r24
     fc2:	0a 0d       	add	r16, r10
     fc4:	1b 1d       	adc	r17, r11
     fc6:	d4 01       	movw	r26, r8
     fc8:	bc 82       	std	Y+4, r11	; 0x04
     fca:	ab 82       	std	Y+3, r10	; 0x03
     fcc:	ba 82       	std	Y+2, r11	; 0x02
     fce:	a9 82       	std	Y+1, r10	; 0x01
				temp = v[j];
				v[j] = v[j+gap];
     fd0:	eb 81       	ldd	r30, Y+3	; 0x03
     fd2:	fc 81       	ldd	r31, Y+4	; 0x04
     fd4:	71 83       	std	Z+1, r23	; 0x01
     fd6:	60 83       	st	Z, r22
				v[j+gap] = temp;
     fd8:	11 96       	adiw	r26, 0x01	; 1
     fda:	5c 93       	st	X, r21
     fdc:	4e 93       	st	-X, r20
void FUNCshellsort(int v[], int n)
{
	int gap, i, j, temp;
	for (gap = n/2; gap > 0; gap /= 2)
		for (i = gap; i < n; i++)
			for (j=i-gap; j>=0 && v[j]>v[j+gap]; j-=gap){
     fde:	2e 19       	sub	r18, r14
     fe0:	3f 09       	sbc	r19, r15
     fe2:	c2 f0       	brmi	.+48     	; 0x1014 <FUNCshellsort+0xb6>
     fe4:	f8 01       	movw	r30, r16
     fe6:	40 81       	ld	r20, Z
     fe8:	51 81       	ldd	r21, Z+1	; 0x01
     fea:	e9 81       	ldd	r30, Y+1	; 0x01
     fec:	fa 81       	ldd	r31, Y+2	; 0x02
     fee:	60 81       	ld	r22, Z
     ff0:	71 81       	ldd	r23, Z+1	; 0x01
     ff2:	08 0f       	add	r16, r24
     ff4:	19 1f       	adc	r17, r25
     ff6:	e8 0f       	add	r30, r24
     ff8:	f9 1f       	adc	r31, r25
     ffa:	fa 83       	std	Y+2, r31	; 0x02
     ffc:	e9 83       	std	Y+1, r30	; 0x01
     ffe:	eb 81       	ldd	r30, Y+3	; 0x03
    1000:	fc 81       	ldd	r31, Y+4	; 0x04
    1002:	e8 0f       	add	r30, r24
    1004:	f9 1f       	adc	r31, r25
    1006:	fc 83       	std	Y+4, r31	; 0x04
    1008:	eb 83       	std	Y+3, r30	; 0x03
    100a:	a8 0f       	add	r26, r24
    100c:	b9 1f       	adc	r27, r25
    100e:	64 17       	cp	r22, r20
    1010:	75 07       	cpc	r23, r21
    1012:	f4 f2       	brlt	.-68     	; 0xfd0 <FUNCshellsort+0x72>
    1014:	ff ef       	ldi	r31, 0xFF	; 255
    1016:	cf 1a       	sub	r12, r31
    1018:	df 0a       	sbc	r13, r31
    101a:	22 e0       	ldi	r18, 0x02	; 2
    101c:	a2 0e       	add	r10, r18
    101e:	b1 1c       	adc	r11, r1
    1020:	e2 e0       	ldi	r30, 0x02	; 2
    1022:	8e 0e       	add	r8, r30
    1024:	91 1c       	adc	r9, r1
// shellsort: sort v[0]...v[n-1] into increasing order
void FUNCshellsort(int v[], int n)
{
	int gap, i, j, temp;
	for (gap = n/2; gap > 0; gap /= 2)
		for (i = gap; i < n; i++)
    1026:	c6 14       	cp	r12, r6
    1028:	d7 04       	cpc	r13, r7
    102a:	09 f0       	breq	.+2      	; 0x102e <FUNCshellsort+0xd0>
    102c:	bd cf       	rjmp	.-134    	; 0xfa8 <FUNCshellsort+0x4a>
}
// shellsort: sort v[0]...v[n-1] into increasing order
void FUNCshellsort(int v[], int n)
{
	int gap, i, j, temp;
	for (gap = n/2; gap > 0; gap /= 2)
    102e:	47 01       	movw	r8, r14
    1030:	ff 20       	and	r15, r15
    1032:	1c f4       	brge	.+6      	; 0x103a <FUNCshellsort+0xdc>
    1034:	ff ef       	ldi	r31, 0xFF	; 255
    1036:	8f 1a       	sub	r8, r31
    1038:	9f 0a       	sbc	r9, r31
    103a:	95 94       	asr	r9
    103c:	87 94       	ror	r8
    103e:	18 14       	cp	r1, r8
    1040:	19 04       	cpc	r1, r9
    1042:	e4 f4       	brge	.+56     	; 0x107c <FUNCshellsort+0x11e>
    1044:	74 01       	movw	r14, r8
    1046:	01 c0       	rjmp	.+2      	; 0x104a <FUNCshellsort+0xec>
    1048:	74 01       	movw	r14, r8
		for (i = gap; i < n; i++)
    104a:	82 14       	cp	r8, r2
    104c:	93 04       	cpc	r9, r3
    104e:	7c f7       	brge	.-34     	; 0x102e <FUNCshellsort+0xd0>
    1050:	64 01       	movw	r12, r8
    1052:	ce 18       	sub	r12, r14
    1054:	df 08       	sbc	r13, r15
    1056:	56 01       	movw	r10, r12
    1058:	aa 0c       	add	r10, r10
    105a:	bb 1c       	adc	r11, r11
    105c:	a4 0c       	add	r10, r4
    105e:	b5 1c       	adc	r11, r5
    1060:	88 0c       	add	r8, r8
    1062:	99 1c       	adc	r9, r9
    1064:	84 0c       	add	r8, r4
    1066:	95 1c       	adc	r9, r5
    1068:	31 01       	movw	r6, r2
    106a:	6e 18       	sub	r6, r14
    106c:	7f 08       	sbc	r7, r15
    106e:	c7 01       	movw	r24, r14
    1070:	88 0f       	add	r24, r24
    1072:	99 1f       	adc	r25, r25
    1074:	91 95       	neg	r25
    1076:	81 95       	neg	r24
    1078:	91 09       	sbc	r25, r1
    107a:	96 cf       	rjmp	.-212    	; 0xfa8 <FUNCshellsort+0x4a>
			for (j=i-gap; j>=0 && v[j]>v[j+gap]; j-=gap){
				temp = v[j];
				v[j] = v[j+gap];
				v[j+gap] = temp;
			}
}
    107c:	0f 90       	pop	r0
    107e:	0f 90       	pop	r0
    1080:	0f 90       	pop	r0
    1082:	0f 90       	pop	r0
    1084:	df 91       	pop	r29
    1086:	cf 91       	pop	r28
    1088:	1f 91       	pop	r17
    108a:	0f 91       	pop	r16
    108c:	ff 90       	pop	r15
    108e:	ef 90       	pop	r14
    1090:	df 90       	pop	r13
    1092:	cf 90       	pop	r12
    1094:	bf 90       	pop	r11
    1096:	af 90       	pop	r10
    1098:	9f 90       	pop	r9
    109a:	8f 90       	pop	r8
    109c:	7f 90       	pop	r7
    109e:	6f 90       	pop	r6
    10a0:	5f 90       	pop	r5
    10a2:	4f 90       	pop	r4
    10a4:	3f 90       	pop	r3
    10a6:	2f 90       	pop	r2
    10a8:	08 95       	ret

000010aa <FUNCpmax>:
	if(a1 > a2){
		biggest = a1;
	}else{
		biggest = a2;
	}
	return biggest;
    10aa:	86 17       	cp	r24, r22
    10ac:	97 07       	cpc	r25, r23
    10ae:	0c f4       	brge	.+2      	; 0x10b2 <FUNCpmax+0x8>
    10b0:	cb 01       	movw	r24, r22
}
    10b2:	08 95       	ret

000010b4 <FUNCgcd>:
// common divisor
int FUNCgcd (int u, int v)
{
    10b4:	9b 01       	movw	r18, r22
	int temp;
	while ( v != 0 ) {
    10b6:	67 2b       	or	r22, r23
    10b8:	11 f4       	brne	.+4      	; 0x10be <FUNCgcd+0xa>
    10ba:	08 95       	ret
		temp = u % v;
		u = v;
		v = temp;
    10bc:	9a 01       	movw	r18, r20
// common divisor
int FUNCgcd (int u, int v)
{
	int temp;
	while ( v != 0 ) {
		temp = u % v;
    10be:	b9 01       	movw	r22, r18
    10c0:	0e 94 fb 11 	call	0x23f6	; 0x23f6 <__divmodhi4>
    10c4:	ac 01       	movw	r20, r24
    10c6:	82 2f       	mov	r24, r18
    10c8:	93 2f       	mov	r25, r19
}
// common divisor
int FUNCgcd (int u, int v)
{
	int temp;
	while ( v != 0 ) {
    10ca:	41 15       	cp	r20, r1
    10cc:	51 05       	cpc	r21, r1
    10ce:	b1 f7       	brne	.-20     	; 0x10bc <FUNCgcd+0x8>
		temp = u % v;
		u = v;
		v = temp;
	}
	return u;
}
    10d0:	08 95       	ret

000010d2 <FUNCstrToInt>:
// Function to convert a string to an integer
int FUNCstrToInt (const char string[])
{
    10d2:	fc 01       	movw	r30, r24
	int i, intValue, result = 0;
	for ( i = 0; string[i] >= '0' && string[i] <= '9'; ++i ){
    10d4:	90 81       	ld	r25, Z
    10d6:	80 ed       	ldi	r24, 0xD0	; 208
    10d8:	89 0f       	add	r24, r25
    10da:	8a 30       	cpi	r24, 0x0A	; 10
    10dc:	d0 f4       	brcc	.+52     	; 0x1112 <__stack+0x13>
    10de:	31 96       	adiw	r30, 0x01	; 1
    10e0:	20 e0       	ldi	r18, 0x00	; 0
    10e2:	30 e0       	ldi	r19, 0x00	; 0
		intValue = string[i] - '0';
		result = result * 10 + intValue;
    10e4:	a9 01       	movw	r20, r18
    10e6:	44 0f       	add	r20, r20
    10e8:	55 1f       	adc	r21, r21
    10ea:	22 0f       	add	r18, r18
    10ec:	33 1f       	adc	r19, r19
    10ee:	22 0f       	add	r18, r18
    10f0:	33 1f       	adc	r19, r19
    10f2:	22 0f       	add	r18, r18
    10f4:	33 1f       	adc	r19, r19
    10f6:	42 0f       	add	r20, r18
    10f8:	53 1f       	adc	r21, r19
    10fa:	29 2f       	mov	r18, r25
    10fc:	30 e0       	ldi	r19, 0x00	; 0
    10fe:	20 53       	subi	r18, 0x30	; 48
    1100:	31 09       	sbc	r19, r1
    1102:	24 0f       	add	r18, r20
    1104:	35 1f       	adc	r19, r21
}
// Function to convert a string to an integer
int FUNCstrToInt (const char string[])
{
	int i, intValue, result = 0;
	for ( i = 0; string[i] >= '0' && string[i] <= '9'; ++i ){
    1106:	91 91       	ld	r25, Z+
    1108:	80 ed       	ldi	r24, 0xD0	; 208
    110a:	89 0f       	add	r24, r25
    110c:	8a 30       	cpi	r24, 0x0A	; 10
    110e:	50 f3       	brcs	.-44     	; 0x10e4 <FUNCstrToInt+0x12>
    1110:	02 c0       	rjmp	.+4      	; 0x1116 <__stack+0x17>
	return u;
}
// Function to convert a string to an integer
int FUNCstrToInt (const char string[])
{
	int i, intValue, result = 0;
    1112:	20 e0       	ldi	r18, 0x00	; 0
    1114:	30 e0       	ldi	r19, 0x00	; 0
	for ( i = 0; string[i] >= '0' && string[i] <= '9'; ++i ){
		intValue = string[i] - '0';
		result = result * 10 + intValue;
	}
	return result;
}
    1116:	c9 01       	movw	r24, r18
    1118:	08 95       	ret

0000111a <FUNCfilter>:
uint8_t FUNCfilter(uint8_t mask, uint8_t data)
{
	uint8_t Z;
	Z=mask & data;
	return Z;
}
    111a:	86 23       	and	r24, r22
    111c:	08 95       	ret

0000111e <FUNCticks>:
// ticks
unsigned int FUNCticks(unsigned int num)
{
	unsigned int count;
	for(count=0;count<num;count++)
    111e:	00 97       	sbiw	r24, 0x00	; 0
    1120:	39 f0       	breq	.+14     	; 0x1130 <FUNCticks+0x12>
    1122:	20 e0       	ldi	r18, 0x00	; 0
    1124:	30 e0       	ldi	r19, 0x00	; 0
    1126:	2f 5f       	subi	r18, 0xFF	; 255
    1128:	3f 4f       	sbci	r19, 0xFF	; 255
    112a:	82 17       	cp	r24, r18
    112c:	93 07       	cpc	r25, r19
    112e:	d9 f7       	brne	.-10     	; 0x1126 <FUNCticks+0x8>
		;
	return count;
}
    1130:	08 95       	ret

00001132 <FUNCtwocomptoint8bit>:
// Two's Complement function
int FUNCtwocomptoint8bit(int twoscomp){
  
  //Let's see if the byte is negative
  if (twoscomp & 0B10000000){
    1132:	87 ff       	sbrs	r24, 7
    1134:	08 c0       	rjmp	.+16     	; 0x1146 <FUNCtwocomptoint8bit+0x14>
    //Invert
    twoscomp = ~twoscomp + 1;
    1136:	91 95       	neg	r25
    1138:	81 95       	neg	r24
    113a:	91 09       	sbc	r25, r1
	twoscomp = (twoscomp & 0B11111111);
    //Cast as int and multiply by negative one
    int value = (int)(twoscomp)*(-1);
    113c:	99 27       	eor	r25, r25
    113e:	91 95       	neg	r25
    1140:	81 95       	neg	r24
    1142:	91 09       	sbc	r25, r1
    return value;
    1144:	08 95       	ret
    //Byte is non-negative, therefore convert to decimal and display
    //Make sure we are never over 1279
    twoscomp = (twoscomp & 0B01111111);
    //Cast as int and return
    int value = (int)(twoscomp);
    return value;
    1146:	8f 77       	andi	r24, 0x7F	; 127
    1148:	99 27       	eor	r25, r25
  }
}
    114a:	08 95       	ret

0000114c <FUNCtwocomptoint10bit>:
// Two's Complement function, shifts 10 bit binary to signed integers (-512 to 512)
int FUNCtwocomptoint10bit(int twoscomp){
	
  //Let's see if the byte is negative
  if (twoscomp & 0x200){
    114c:	91 ff       	sbrs	r25, 1
    114e:	08 c0       	rjmp	.+16     	; 0x1160 <FUNCtwocomptoint10bit+0x14>
    //Invert
    twoscomp = ~twoscomp + 1;
    1150:	91 95       	neg	r25
    1152:	81 95       	neg	r24
    1154:	91 09       	sbc	r25, r1
    twoscomp = (twoscomp & 0x3FF);
    //Cast as int and multiply by negative one
    int value = (int)(twoscomp)*(-1);
    1156:	93 70       	andi	r25, 0x03	; 3
    1158:	91 95       	neg	r25
    115a:	81 95       	neg	r24
    115c:	91 09       	sbc	r25, r1
    return value;
    115e:	08 95       	ret
    //Byte is non-negative, therefore convert to decimal and display
    twoscomp = (twoscomp & 0x1FF);
    //Cast as int and return
    //Serial.println(twoscomp);
    int value = (int)(twoscomp);
    return value;
    1160:	91 70       	andi	r25, 0x01	; 1
  }
}
    1162:	08 95       	ret

00001164 <FUNCtwocomptointnbit>:
// Two's Complement function, nbits
int FUNCtwocomptointnbit(int twoscomp, uint8_t nbits){
  unsigned int signmask;
  unsigned int mask;
  signmask = (1<<(nbits-1));
    1164:	61 50       	subi	r22, 0x01	; 1
    1166:	21 e0       	ldi	r18, 0x01	; 1
    1168:	30 e0       	ldi	r19, 0x00	; 0
    116a:	02 c0       	rjmp	.+4      	; 0x1170 <FUNCtwocomptointnbit+0xc>
    116c:	22 0f       	add	r18, r18
    116e:	33 1f       	adc	r19, r19
    1170:	6a 95       	dec	r22
    1172:	e2 f7       	brpl	.-8      	; 0x116c <FUNCtwocomptointnbit+0x8>
  mask=signmask-1;
    1174:	a9 01       	movw	r20, r18
    1176:	41 50       	subi	r20, 0x01	; 1
    1178:	51 09       	sbc	r21, r1
  //Let's see if the number is negative
  if (twoscomp & signmask){
    117a:	b9 01       	movw	r22, r18
    117c:	68 23       	and	r22, r24
    117e:	79 23       	and	r23, r25
    1180:	67 2b       	or	r22, r23
    1182:	29 f0       	breq	.+10     	; 0x118e <FUNCtwocomptointnbit+0x2a>
	twoscomp &= mask;
    twoscomp -= signmask;
    1184:	84 23       	and	r24, r20
    1186:	95 23       	and	r25, r21
    1188:	82 1b       	sub	r24, r18
    118a:	93 0b       	sbc	r25, r19
    118c:	08 95       	ret
  }else{
	  twoscomp &= mask;
    118e:	84 23       	and	r24, r20
    1190:	95 23       	and	r25, r21
  }
  return twoscomp;
}
    1192:	08 95       	ret

00001194 <FUNCdec2bcd>:
// Convert Decimal to Binary Coded Decimal (BCD)
char FUNCdec2bcd(char num)
{
	return ((num/10 * 16) + (num % 10));
    1194:	9d ec       	ldi	r25, 0xCD	; 205
    1196:	89 9f       	mul	r24, r25
    1198:	91 2d       	mov	r25, r1
    119a:	11 24       	eor	r1, r1
    119c:	96 95       	lsr	r25
    119e:	96 95       	lsr	r25
    11a0:	96 95       	lsr	r25
    11a2:	39 2f       	mov	r19, r25
    11a4:	33 0f       	add	r19, r19
    11a6:	23 2f       	mov	r18, r19
    11a8:	22 0f       	add	r18, r18
    11aa:	22 0f       	add	r18, r18
    11ac:	23 0f       	add	r18, r19
    11ae:	82 1b       	sub	r24, r18
}
    11b0:	20 e1       	ldi	r18, 0x10	; 16
    11b2:	92 9f       	mul	r25, r18
    11b4:	80 0d       	add	r24, r0
    11b6:	11 24       	eor	r1, r1
    11b8:	08 95       	ret

000011ba <FUNCbcd2dec>:
// Convert Binary Coded Decimal (BCD) to Decimal
char FUNCbcd2dec(char num)
{
	return ((num/16 * 10) + (num % 16));
    11ba:	98 2f       	mov	r25, r24
    11bc:	92 95       	swap	r25
    11be:	9f 70       	andi	r25, 0x0F	; 15
    11c0:	99 0f       	add	r25, r25
    11c2:	29 2f       	mov	r18, r25
    11c4:	22 0f       	add	r18, r18
    11c6:	22 0f       	add	r18, r18
    11c8:	92 0f       	add	r25, r18
    11ca:	8f 70       	andi	r24, 0x0F	; 15
}
    11cc:	89 0f       	add	r24, r25
    11ce:	08 95       	ret

000011d0 <FUNCresizestr>:
char* FUNCresizestr(char *string, int size)
{
    11d0:	fc 01       	movw	r30, r24
	int i;
	FUNCstr[size]='\0';
    11d2:	db 01       	movw	r26, r22
    11d4:	a1 50       	subi	r26, 0x01	; 1
    11d6:	be 4f       	sbci	r27, 0xFE	; 254
    11d8:	1c 92       	st	X, r1
	for(i=0;i<size;i++){
    11da:	16 16       	cp	r1, r22
    11dc:	17 06       	cpc	r1, r23
    11de:	14 f5       	brge	.+68     	; 0x1224 <FUNCresizestr+0x54>
		if(*(string+i)=='\0'){
    11e0:	90 81       	ld	r25, Z
    11e2:	91 11       	cpse	r25, r1
    11e4:	0c c0       	rjmp	.+24     	; 0x11fe <FUNCresizestr+0x2e>
    11e6:	17 c0       	rjmp	.+46     	; 0x1216 <FUNCresizestr+0x46>
    11e8:	91 91       	ld	r25, Z+
    11ea:	91 11       	cpse	r25, r1
    11ec:	0d c0       	rjmp	.+26     	; 0x1208 <FUNCresizestr+0x38>
    11ee:	15 c0       	rjmp	.+42     	; 0x121a <FUNCresizestr+0x4a>
			for(;i<size;i++){
				FUNCstr[i]=' ';
    11f0:	81 93       	st	Z+, r24
{
	int i;
	FUNCstr[size]='\0';
	for(i=0;i<size;i++){
		if(*(string+i)=='\0'){
			for(;i<size;i++){
    11f2:	2f 5f       	subi	r18, 0xFF	; 255
    11f4:	3f 4f       	sbci	r19, 0xFF	; 255
    11f6:	26 17       	cp	r18, r22
    11f8:	37 07       	cpc	r19, r23
    11fa:	d4 f3       	brlt	.-12     	; 0x11f0 <FUNCresizestr+0x20>
    11fc:	13 c0       	rjmp	.+38     	; 0x1224 <FUNCresizestr+0x54>
    11fe:	af ef       	ldi	r26, 0xFF	; 255
    1200:	b1 e0       	ldi	r27, 0x01	; 1
    1202:	31 96       	adiw	r30, 0x01	; 1
char* FUNCresizestr(char *string, int size)
{
	int i;
	FUNCstr[size]='\0';
	for(i=0;i<size;i++){
		if(*(string+i)=='\0'){
    1204:	20 e0       	ldi	r18, 0x00	; 0
    1206:	30 e0       	ldi	r19, 0x00	; 0
			for(;i<size;i++){
				FUNCstr[i]=' ';
			}
			break;
		}
		FUNCstr[i]=*(string+i);
    1208:	9d 93       	st	X+, r25
}
char* FUNCresizestr(char *string, int size)
{
	int i;
	FUNCstr[size]='\0';
	for(i=0;i<size;i++){
    120a:	2f 5f       	subi	r18, 0xFF	; 255
    120c:	3f 4f       	sbci	r19, 0xFF	; 255
    120e:	62 17       	cp	r22, r18
    1210:	73 07       	cpc	r23, r19
    1212:	51 f7       	brne	.-44     	; 0x11e8 <FUNCresizestr+0x18>
    1214:	07 c0       	rjmp	.+14     	; 0x1224 <FUNCresizestr+0x54>
    1216:	20 e0       	ldi	r18, 0x00	; 0
    1218:	30 e0       	ldi	r19, 0x00	; 0
    121a:	f9 01       	movw	r30, r18
    121c:	e1 50       	subi	r30, 0x01	; 1
    121e:	fe 4f       	sbci	r31, 0xFE	; 254
		if(*(string+i)=='\0'){
			for(;i<size;i++){
				FUNCstr[i]=' ';
    1220:	80 e2       	ldi	r24, 0x20	; 32
    1222:	e6 cf       	rjmp	.-52     	; 0x11f0 <FUNCresizestr+0x20>
			break;
		}
		FUNCstr[i]=*(string+i);
	}
	return FUNCstr;
}
    1224:	8f ef       	ldi	r24, 0xFF	; 255
    1226:	91 e0       	ldi	r25, 0x01	; 1
    1228:	08 95       	ret

0000122a <FUNCtrimmer>:
long FUNCtrimmer(long x, long in_min, long in_max, long out_min, long out_max)
/*
	same as arduino map function.
*/
{
    122a:	4f 92       	push	r4
    122c:	5f 92       	push	r5
    122e:	6f 92       	push	r6
    1230:	7f 92       	push	r7
    1232:	af 92       	push	r10
    1234:	bf 92       	push	r11
    1236:	cf 92       	push	r12
    1238:	df 92       	push	r13
    123a:	ef 92       	push	r14
    123c:	ff 92       	push	r15
    123e:	0f 93       	push	r16
    1240:	1f 93       	push	r17
    1242:	cf 93       	push	r28
    1244:	df 93       	push	r29
    1246:	cd b7       	in	r28, 0x3d	; 61
    1248:	de b7       	in	r29, 0x3e	; 62
    124a:	29 01       	movw	r4, r18
    124c:	3a 01       	movw	r6, r20
	return (x - in_min) * (out_max - out_min) / (in_max - in_min) + out_min;
    124e:	9b 01       	movw	r18, r22
    1250:	ac 01       	movw	r20, r24
    1252:	24 19       	sub	r18, r4
    1254:	35 09       	sbc	r19, r5
    1256:	46 09       	sbc	r20, r6
    1258:	57 09       	sbc	r21, r7
    125a:	89 89       	ldd	r24, Y+17	; 0x11
    125c:	9a 89       	ldd	r25, Y+18	; 0x12
    125e:	ab 89       	ldd	r26, Y+19	; 0x13
    1260:	bc 89       	ldd	r27, Y+20	; 0x14
    1262:	bc 01       	movw	r22, r24
    1264:	cd 01       	movw	r24, r26
    1266:	6a 19       	sub	r22, r10
    1268:	7b 09       	sbc	r23, r11
    126a:	8c 09       	sbc	r24, r12
    126c:	9d 09       	sbc	r25, r13
    126e:	0e 94 d8 11 	call	0x23b0	; 0x23b0 <__mulsi3>
    1272:	a8 01       	movw	r20, r16
    1274:	97 01       	movw	r18, r14
    1276:	24 19       	sub	r18, r4
    1278:	35 09       	sbc	r19, r5
    127a:	46 09       	sbc	r20, r6
    127c:	57 09       	sbc	r21, r7
    127e:	0e 94 30 12 	call	0x2460	; 0x2460 <__divmodsi4>
    1282:	ca 01       	movw	r24, r20
    1284:	b9 01       	movw	r22, r18
    1286:	6a 0d       	add	r22, r10
    1288:	7b 1d       	adc	r23, r11
    128a:	8c 1d       	adc	r24, r12
    128c:	9d 1d       	adc	r25, r13
}
    128e:	df 91       	pop	r29
    1290:	cf 91       	pop	r28
    1292:	1f 91       	pop	r17
    1294:	0f 91       	pop	r16
    1296:	ff 90       	pop	r15
    1298:	ef 90       	pop	r14
    129a:	df 90       	pop	r13
    129c:	cf 90       	pop	r12
    129e:	bf 90       	pop	r11
    12a0:	af 90       	pop	r10
    12a2:	7f 90       	pop	r7
    12a4:	6f 90       	pop	r6
    12a6:	5f 90       	pop	r5
    12a8:	4f 90       	pop	r4
    12aa:	08 95       	ret

000012ac <Pwr>:
// power: raise base to n-th power; n >= 0
unsigned int Pwr(uint8_t bs, uint8_t n)
{
    unsigned int i, p;
    p = 1;
    for (i = 1; i <= n; ++i)
    12ac:	70 e0       	ldi	r23, 0x00	; 0
    12ae:	61 15       	cp	r22, r1
    12b0:	71 05       	cpc	r23, r1
    12b2:	99 f0       	breq	.+38     	; 0x12da <Pwr+0x2e>
    12b4:	41 e0       	ldi	r20, 0x01	; 1
    12b6:	50 e0       	ldi	r21, 0x00	; 0
    12b8:	21 e0       	ldi	r18, 0x01	; 1
    12ba:	30 e0       	ldi	r19, 0x00	; 0
        p = p * bs;
    12bc:	90 e0       	ldi	r25, 0x00	; 0
    12be:	fa 01       	movw	r30, r20
    12c0:	e8 9f       	mul	r30, r24
    12c2:	a0 01       	movw	r20, r0
    12c4:	e9 9f       	mul	r30, r25
    12c6:	50 0d       	add	r21, r0
    12c8:	f8 9f       	mul	r31, r24
    12ca:	50 0d       	add	r21, r0
    12cc:	11 24       	eor	r1, r1
// power: raise base to n-th power; n >= 0
unsigned int Pwr(uint8_t bs, uint8_t n)
{
    unsigned int i, p;
    p = 1;
    for (i = 1; i <= n; ++i)
    12ce:	2f 5f       	subi	r18, 0xFF	; 255
    12d0:	3f 4f       	sbci	r19, 0xFF	; 255
    12d2:	62 17       	cp	r22, r18
    12d4:	73 07       	cpc	r23, r19
    12d6:	98 f7       	brcc	.-26     	; 0x12be <Pwr+0x12>
    12d8:	02 c0       	rjmp	.+4      	; 0x12de <Pwr+0x32>
}
// power: raise base to n-th power; n >= 0
unsigned int Pwr(uint8_t bs, uint8_t n)
{
    unsigned int i, p;
    p = 1;
    12da:	41 e0       	ldi	r20, 0x01	; 1
    12dc:	50 e0       	ldi	r21, 0x00	; 0
    for (i = 1; i <= n; ++i)
        p = p * bs;
    return p;
}
    12de:	ca 01       	movw	r24, r20
    12e0:	08 95       	ret

000012e2 <StringLength>:
// Function to count the number of characters in a string
int StringLength (const char string[])
{
	int count = 0;
	while ( string[count] != '\0' )
    12e2:	fc 01       	movw	r30, r24
    12e4:	20 81       	ld	r18, Z
    12e6:	22 23       	and	r18, r18
    12e8:	41 f0       	breq	.+16     	; 0x12fa <StringLength+0x18>
    12ea:	31 96       	adiw	r30, 0x01	; 1
    12ec:	80 e0       	ldi	r24, 0x00	; 0
    12ee:	90 e0       	ldi	r25, 0x00	; 0
		++count;
    12f0:	01 96       	adiw	r24, 0x01	; 1
}
// Function to count the number of characters in a string
int StringLength (const char string[])
{
	int count = 0;
	while ( string[count] != '\0' )
    12f2:	21 91       	ld	r18, Z+
    12f4:	21 11       	cpse	r18, r1
    12f6:	fc cf       	rjmp	.-8      	; 0x12f0 <StringLength+0xe>
    12f8:	08 95       	ret
    return p;
}
// Function to count the number of characters in a string
int StringLength (const char string[])
{
	int count = 0;
    12fa:	80 e0       	ldi	r24, 0x00	; 0
    12fc:	90 e0       	ldi	r25, 0x00	; 0
	while ( string[count] != '\0' )
		++count;
	return count;
}
    12fe:	08 95       	ret

00001300 <FUNCtrim>:
	Reverse(FUNCstr);
	return FUNCstr;
}
// trim: remove trailing blanks, tabs, newlines
int FUNCtrim(char s[])
{
    1300:	cf 93       	push	r28
    1302:	df 93       	push	r29
    1304:	ec 01       	movw	r28, r24
	int n;
	for (n = StringLength(s)-1; n >= 0; n--)
    1306:	ed df       	rcall	.-38     	; 0x12e2 <StringLength>
    1308:	9c 01       	movw	r18, r24
    130a:	21 50       	subi	r18, 0x01	; 1
    130c:	31 09       	sbc	r19, r1
    130e:	62 f0       	brmi	.+24     	; 0x1328 <FUNCtrim+0x28>
    1310:	fe 01       	movw	r30, r28
    1312:	e8 0f       	add	r30, r24
    1314:	f9 1f       	adc	r31, r25
		if (s[n] != ' ' && s[n] != '\t' && s[n] != '\n')
    1316:	92 91       	ld	r25, -Z
    1318:	90 32       	cpi	r25, 0x20	; 32
    131a:	19 f0       	breq	.+6      	; 0x1322 <FUNCtrim+0x22>
    131c:	99 50       	subi	r25, 0x09	; 9
    131e:	92 30       	cpi	r25, 0x02	; 2
    1320:	18 f4       	brcc	.+6      	; 0x1328 <FUNCtrim+0x28>
}
// trim: remove trailing blanks, tabs, newlines
int FUNCtrim(char s[])
{
	int n;
	for (n = StringLength(s)-1; n >= 0; n--)
    1322:	21 50       	subi	r18, 0x01	; 1
    1324:	31 09       	sbc	r19, r1
    1326:	b8 f7       	brcc	.-18     	; 0x1316 <FUNCtrim+0x16>
		if (s[n] != ' ' && s[n] != '\t' && s[n] != '\n')
			break;
	s[n+1] = '\0';
    1328:	c2 0f       	add	r28, r18
    132a:	d3 1f       	adc	r29, r19
    132c:	19 82       	std	Y+1, r1	; 0x01
	return n;
}
    132e:	c9 01       	movw	r24, r18
    1330:	df 91       	pop	r29
    1332:	cf 91       	pop	r28
    1334:	08 95       	ret

00001336 <Reverse>:
		++count;
	return count;
}
// reverse: reverse string s in place
void Reverse(char s[])
{
    1336:	cf 93       	push	r28
    1338:	df 93       	push	r29
    133a:	ec 01       	movw	r28, r24
	int c, i, j;
	for (i = 0, j = StringLength(s)-1; i < j; i++, j--){
    133c:	d2 df       	rcall	.-92     	; 0x12e2 <StringLength>
    133e:	9c 01       	movw	r18, r24
    1340:	21 50       	subi	r18, 0x01	; 1
    1342:	31 09       	sbc	r19, r1
    1344:	12 16       	cp	r1, r18
    1346:	13 06       	cpc	r1, r19
    1348:	84 f4       	brge	.+32     	; 0x136a <Reverse+0x34>
    134a:	de 01       	movw	r26, r28
    134c:	a8 0f       	add	r26, r24
    134e:	b9 1f       	adc	r27, r25
    1350:	fe 01       	movw	r30, r28
    1352:	80 e0       	ldi	r24, 0x00	; 0
    1354:	90 e0       	ldi	r25, 0x00	; 0
		c = s[i];
    1356:	40 81       	ld	r20, Z
		s[i] = s[j];
    1358:	5e 91       	ld	r21, -X
    135a:	51 93       	st	Z+, r21
		s[j] = c;
    135c:	4c 93       	st	X, r20
}
// reverse: reverse string s in place
void Reverse(char s[])
{
	int c, i, j;
	for (i = 0, j = StringLength(s)-1; i < j; i++, j--){
    135e:	01 96       	adiw	r24, 0x01	; 1
    1360:	21 50       	subi	r18, 0x01	; 1
    1362:	31 09       	sbc	r19, r1
    1364:	82 17       	cp	r24, r18
    1366:	93 07       	cpc	r25, r19
    1368:	b4 f3       	brlt	.-20     	; 0x1356 <Reverse+0x20>
		c = s[i];
		s[i] = s[j];
		s[j] = c;
	}
}
    136a:	df 91       	pop	r29
    136c:	cf 91       	pop	r28
    136e:	08 95       	ret

00001370 <FUNCi32toa>:
				v[j+gap] = temp;
			}
}
// i32toa: convert n to characters in s
char* FUNCi32toa(int32_t n)
{
    1370:	8f 92       	push	r8
    1372:	9f 92       	push	r9
    1374:	af 92       	push	r10
    1376:	bf 92       	push	r11
    1378:	cf 92       	push	r12
    137a:	df 92       	push	r13
    137c:	ef 92       	push	r14
    137e:	ff 92       	push	r15
    1380:	0f 93       	push	r16
    1382:	1f 93       	push	r17
    1384:	cf 93       	push	r28
    1386:	df 93       	push	r29
    1388:	6b 01       	movw	r12, r22
    138a:	7c 01       	movw	r14, r24
    138c:	dc 01       	movw	r26, r24
    138e:	cb 01       	movw	r24, r22
    1390:	ff 20       	and	r15, r15
    1392:	3c f4       	brge	.+14     	; 0x13a2 <FUNCi32toa+0x32>
    1394:	88 27       	eor	r24, r24
    1396:	99 27       	eor	r25, r25
    1398:	dc 01       	movw	r26, r24
    139a:	8c 19       	sub	r24, r12
    139c:	9d 09       	sbc	r25, r13
    139e:	ae 09       	sbc	r26, r14
    13a0:	bf 09       	sbc	r27, r15
    13a2:	bc 01       	movw	r22, r24
    13a4:	cd 01       	movw	r24, r26
    13a6:	10 e0       	ldi	r17, 0x00	; 0
	int32_t sign;
	if ((sign = n) < 0) // record sign
	n = -n; // make n positive
	i = 0;
	do { // generate digits in reverse order
		FUNCstr[i++] = n % 10 + '0'; // get next digit
    13a8:	0f 2e       	mov	r0, r31
    13aa:	fa e0       	ldi	r31, 0x0A	; 10
    13ac:	8f 2e       	mov	r8, r31
    13ae:	91 2c       	mov	r9, r1
    13b0:	a1 2c       	mov	r10, r1
    13b2:	b1 2c       	mov	r11, r1
    13b4:	f0 2d       	mov	r31, r0
    13b6:	01 c0       	rjmp	.+2      	; 0x13ba <FUNCi32toa+0x4a>
    13b8:	10 2f       	mov	r17, r16
    13ba:	01 e0       	ldi	r16, 0x01	; 1
    13bc:	01 0f       	add	r16, r17
    13be:	c1 2f       	mov	r28, r17
    13c0:	d0 e0       	ldi	r29, 0x00	; 0
    13c2:	c1 50       	subi	r28, 0x01	; 1
    13c4:	de 4f       	sbci	r29, 0xFE	; 254
    13c6:	a5 01       	movw	r20, r10
    13c8:	94 01       	movw	r18, r8
    13ca:	0e 94 30 12 	call	0x2460	; 0x2460 <__divmodsi4>
    13ce:	60 5d       	subi	r22, 0xD0	; 208
    13d0:	68 83       	st	Y, r22
	}while ((n /= 10) > 0); // delete it
    13d2:	62 2f       	mov	r22, r18
    13d4:	73 2f       	mov	r23, r19
    13d6:	84 2f       	mov	r24, r20
    13d8:	95 2f       	mov	r25, r21
    13da:	16 16       	cp	r1, r22
    13dc:	17 06       	cpc	r1, r23
    13de:	18 06       	cpc	r1, r24
    13e0:	19 06       	cpc	r1, r25
    13e2:	54 f3       	brlt	.-44     	; 0x13b8 <FUNCi32toa+0x48>
	if (sign < 0)
    13e4:	ff 20       	and	r15, r15
    13e6:	44 f4       	brge	.+16     	; 0x13f8 <FUNCi32toa+0x88>
	FUNCstr[i++] = '-';
    13e8:	e0 2f       	mov	r30, r16
    13ea:	f0 e0       	ldi	r31, 0x00	; 0
    13ec:	e1 50       	subi	r30, 0x01	; 1
    13ee:	fe 4f       	sbci	r31, 0xFE	; 254
    13f0:	8d e2       	ldi	r24, 0x2D	; 45
    13f2:	80 83       	st	Z, r24
    13f4:	02 e0       	ldi	r16, 0x02	; 2
    13f6:	01 0f       	add	r16, r17
	FUNCstr[i] = '\0';
    13f8:	e0 2f       	mov	r30, r16
    13fa:	f0 e0       	ldi	r31, 0x00	; 0
    13fc:	e1 50       	subi	r30, 0x01	; 1
    13fe:	fe 4f       	sbci	r31, 0xFE	; 254
    1400:	10 82       	st	Z, r1
	Reverse(FUNCstr);
    1402:	8f ef       	ldi	r24, 0xFF	; 255
    1404:	91 e0       	ldi	r25, 0x01	; 1
    1406:	97 df       	rcall	.-210    	; 0x1336 <Reverse>
	return FUNCstr;
}
    1408:	8f ef       	ldi	r24, 0xFF	; 255
    140a:	91 e0       	ldi	r25, 0x01	; 1
    140c:	df 91       	pop	r29
    140e:	cf 91       	pop	r28
    1410:	1f 91       	pop	r17
    1412:	0f 91       	pop	r16
    1414:	ff 90       	pop	r15
    1416:	ef 90       	pop	r14
    1418:	df 90       	pop	r13
    141a:	cf 90       	pop	r12
    141c:	bf 90       	pop	r11
    141e:	af 90       	pop	r10
    1420:	9f 90       	pop	r9
    1422:	8f 90       	pop	r8
    1424:	08 95       	ret

00001426 <FUNCi16toa>:
// i16toa: convert n to characters in s
char* FUNCi16toa(int16_t n)
{
    1426:	0f 93       	push	r16
    1428:	1f 93       	push	r17
    142a:	cf 93       	push	r28
    142c:	df 93       	push	r29
    142e:	ec 01       	movw	r28, r24
    1430:	99 23       	and	r25, r25
    1432:	24 f4       	brge	.+8      	; 0x143c <FUNCi16toa+0x16>
    1434:	88 27       	eor	r24, r24
    1436:	99 27       	eor	r25, r25
    1438:	8c 1b       	sub	r24, r28
    143a:	9d 0b       	sbc	r25, r29
    143c:	20 e0       	ldi	r18, 0x00	; 0
	int16_t sign;
	if ((sign = n) < 0) // record sign
		n = -n; // make n positive
	i = 0;
	do { // generate digits in reverse order
		FUNCstr[i++] = n % 10 + '0'; // get next digit
    143e:	0a e0       	ldi	r16, 0x0A	; 10
    1440:	10 e0       	ldi	r17, 0x00	; 0
    1442:	01 c0       	rjmp	.+2      	; 0x1446 <FUNCi16toa+0x20>
    1444:	23 2f       	mov	r18, r19
    1446:	31 e0       	ldi	r19, 0x01	; 1
    1448:	32 0f       	add	r19, r18
    144a:	e2 2f       	mov	r30, r18
    144c:	f0 e0       	ldi	r31, 0x00	; 0
    144e:	e1 50       	subi	r30, 0x01	; 1
    1450:	fe 4f       	sbci	r31, 0xFE	; 254
    1452:	b8 01       	movw	r22, r16
    1454:	d0 d7       	rcall	.+4000   	; 0x23f6 <__divmodhi4>
    1456:	80 5d       	subi	r24, 0xD0	; 208
    1458:	80 83       	st	Z, r24
	}while ((n /= 10) > 0); // delete it
    145a:	86 2f       	mov	r24, r22
    145c:	97 2f       	mov	r25, r23
    145e:	18 16       	cp	r1, r24
    1460:	19 06       	cpc	r1, r25
    1462:	84 f3       	brlt	.-32     	; 0x1444 <FUNCi16toa+0x1e>
	if (sign < 0)
    1464:	dd 23       	and	r29, r29
    1466:	44 f4       	brge	.+16     	; 0x1478 <FUNCi16toa+0x52>
		FUNCstr[i++] = '-';
    1468:	e3 2f       	mov	r30, r19
    146a:	f0 e0       	ldi	r31, 0x00	; 0
    146c:	e1 50       	subi	r30, 0x01	; 1
    146e:	fe 4f       	sbci	r31, 0xFE	; 254
    1470:	8d e2       	ldi	r24, 0x2D	; 45
    1472:	80 83       	st	Z, r24
    1474:	32 e0       	ldi	r19, 0x02	; 2
    1476:	32 0f       	add	r19, r18
	FUNCstr[i] = '\0';
    1478:	e3 2f       	mov	r30, r19
    147a:	f0 e0       	ldi	r31, 0x00	; 0
    147c:	e1 50       	subi	r30, 0x01	; 1
    147e:	fe 4f       	sbci	r31, 0xFE	; 254
    1480:	10 82       	st	Z, r1
	Reverse(FUNCstr);
    1482:	8f ef       	ldi	r24, 0xFF	; 255
    1484:	91 e0       	ldi	r25, 0x01	; 1
    1486:	57 df       	rcall	.-338    	; 0x1336 <Reverse>
	return FUNCstr;
}
    1488:	8f ef       	ldi	r24, 0xFF	; 255
    148a:	91 e0       	ldi	r25, 0x01	; 1
    148c:	df 91       	pop	r29
    148e:	cf 91       	pop	r28
    1490:	1f 91       	pop	r17
    1492:	0f 91       	pop	r16
    1494:	08 95       	ret

00001496 <FUNCui16toa>:
// ui16toa: convert n to characters in s
char* FUNCui16toa(uint16_t n)
{
    1496:	cf 93       	push	r28
    1498:	ac 01       	movw	r20, r24
	uint8_t i;
	i = 0;
    149a:	e0 e0       	ldi	r30, 0x00	; 0
	do { // generate digits in reverse order
		FUNCstr[i++] = n % 10 + '0'; // get next digit
    149c:	c1 e0       	ldi	r28, 0x01	; 1
    149e:	ce 0f       	add	r28, r30
    14a0:	f0 e0       	ldi	r31, 0x00	; 0
    14a2:	e1 50       	subi	r30, 0x01	; 1
    14a4:	fe 4f       	sbci	r31, 0xFE	; 254
    14a6:	9a 01       	movw	r18, r20
    14a8:	ad ec       	ldi	r26, 0xCD	; 205
    14aa:	bc ec       	ldi	r27, 0xCC	; 204
    14ac:	fe d7       	rcall	.+4092   	; 0x24aa <__umulhisi3>
    14ae:	96 95       	lsr	r25
    14b0:	87 95       	ror	r24
    14b2:	96 95       	lsr	r25
    14b4:	87 95       	ror	r24
    14b6:	96 95       	lsr	r25
    14b8:	87 95       	ror	r24
    14ba:	9c 01       	movw	r18, r24
    14bc:	22 0f       	add	r18, r18
    14be:	33 1f       	adc	r19, r19
    14c0:	88 0f       	add	r24, r24
    14c2:	99 1f       	adc	r25, r25
    14c4:	88 0f       	add	r24, r24
    14c6:	99 1f       	adc	r25, r25
    14c8:	88 0f       	add	r24, r24
    14ca:	99 1f       	adc	r25, r25
    14cc:	82 0f       	add	r24, r18
    14ce:	93 1f       	adc	r25, r19
    14d0:	9a 01       	movw	r18, r20
    14d2:	28 1b       	sub	r18, r24
    14d4:	39 0b       	sbc	r19, r25
    14d6:	c9 01       	movw	r24, r18
    14d8:	80 5d       	subi	r24, 0xD0	; 208
    14da:	80 83       	st	Z, r24
	}while ((n /= 10) > 0); // delete it
    14dc:	9a 01       	movw	r18, r20
    14de:	e5 d7       	rcall	.+4042   	; 0x24aa <__umulhisi3>
    14e0:	ac 01       	movw	r20, r24
    14e2:	56 95       	lsr	r21
    14e4:	47 95       	ror	r20
    14e6:	56 95       	lsr	r21
    14e8:	47 95       	ror	r20
    14ea:	56 95       	lsr	r21
    14ec:	47 95       	ror	r20
char* FUNCui16toa(uint16_t n)
{
	uint8_t i;
	i = 0;
	do { // generate digits in reverse order
		FUNCstr[i++] = n % 10 + '0'; // get next digit
    14ee:	ec 2f       	mov	r30, r28
	}while ((n /= 10) > 0); // delete it
    14f0:	41 15       	cp	r20, r1
    14f2:	51 05       	cpc	r21, r1
    14f4:	99 f6       	brne	.-90     	; 0x149c <FUNCui16toa+0x6>
	FUNCstr[i] = '\0';
    14f6:	ec 2f       	mov	r30, r28
    14f8:	f0 e0       	ldi	r31, 0x00	; 0
    14fa:	e1 50       	subi	r30, 0x01	; 1
    14fc:	fe 4f       	sbci	r31, 0xFE	; 254
    14fe:	10 82       	st	Z, r1
	Reverse(FUNCstr);
    1500:	8f ef       	ldi	r24, 0xFF	; 255
    1502:	91 e0       	ldi	r25, 0x01	; 1
    1504:	18 df       	rcall	.-464    	; 0x1336 <Reverse>
	return FUNCstr;
}
    1506:	8f ef       	ldi	r24, 0xFF	; 255
    1508:	91 e0       	ldi	r25, 0x01	; 1
    150a:	cf 91       	pop	r28
    150c:	08 95       	ret

0000150e <FUNCbcd2bin>:
		s[j] = c;
	}
}
unsigned char FUNCbcd2bin(unsigned char val)
{
	return (val & 0x0f) + (val >> 4) * 10;
    150e:	98 2f       	mov	r25, r24
    1510:	92 95       	swap	r25
    1512:	9f 70       	andi	r25, 0x0F	; 15
    1514:	99 0f       	add	r25, r25
    1516:	29 2f       	mov	r18, r25
    1518:	22 0f       	add	r18, r18
    151a:	22 0f       	add	r18, r18
    151c:	92 0f       	add	r25, r18
    151e:	8f 70       	andi	r24, 0x0F	; 15
}
    1520:	89 0f       	add	r24, r25
    1522:	08 95       	ret

00001524 <FUNCbin2bcd>:
unsigned char FUNCbin2bcd(unsigned val)
{
    1524:	ac 01       	movw	r20, r24
	return ((val / 10) << 4) + val % 10;
    1526:	9c 01       	movw	r18, r24
    1528:	ad ec       	ldi	r26, 0xCD	; 205
    152a:	bc ec       	ldi	r27, 0xCC	; 204
    152c:	be d7       	rcall	.+3964   	; 0x24aa <__umulhisi3>
    152e:	96 95       	lsr	r25
    1530:	87 95       	ror	r24
    1532:	96 95       	lsr	r25
    1534:	87 95       	ror	r24
    1536:	96 95       	lsr	r25
    1538:	87 95       	ror	r24
    153a:	bc 01       	movw	r22, r24
    153c:	66 0f       	add	r22, r22
    153e:	77 1f       	adc	r23, r23
    1540:	9c 01       	movw	r18, r24
    1542:	22 0f       	add	r18, r18
    1544:	33 1f       	adc	r19, r19
    1546:	22 0f       	add	r18, r18
    1548:	33 1f       	adc	r19, r19
    154a:	22 0f       	add	r18, r18
    154c:	33 1f       	adc	r19, r19
    154e:	26 0f       	add	r18, r22
    1550:	37 1f       	adc	r19, r23
    1552:	42 1b       	sub	r20, r18
    1554:	53 0b       	sbc	r21, r19
}
    1556:	34 2f       	mov	r19, r20
    1558:	20 e1       	ldi	r18, 0x10	; 16
    155a:	82 9f       	mul	r24, r18
    155c:	30 0d       	add	r19, r0
    155e:	11 24       	eor	r1, r1
    1560:	83 2f       	mov	r24, r19
    1562:	08 95       	ret

00001564 <FUNCgcd1>:
long FUNCgcd1(long a, long b)
{
    1564:	cf 92       	push	r12
    1566:	df 92       	push	r13
    1568:	ef 92       	push	r14
    156a:	ff 92       	push	r15
    156c:	cf 93       	push	r28
    156e:	df 93       	push	r29
    1570:	cd b7       	in	r28, 0x3d	; 61
    1572:	de b7       	in	r29, 0x3e	; 62
    1574:	28 97       	sbiw	r28, 0x08	; 8
    1576:	0f b6       	in	r0, 0x3f	; 63
    1578:	f8 94       	cli
    157a:	de bf       	out	0x3e, r29	; 62
    157c:	0f be       	out	0x3f, r0	; 63
    157e:	cd bf       	out	0x3d, r28	; 61
    1580:	6b 01       	movw	r12, r22
    1582:	7c 01       	movw	r14, r24
    1584:	69 83       	std	Y+1, r22	; 0x01
    1586:	7a 83       	std	Y+2, r23	; 0x02
    1588:	8b 83       	std	Y+3, r24	; 0x03
    158a:	9c 83       	std	Y+4, r25	; 0x04
    158c:	2d 83       	std	Y+5, r18	; 0x05
    158e:	3e 83       	std	Y+6, r19	; 0x06
    1590:	4f 83       	std	Y+7, r20	; 0x07
    1592:	58 87       	std	Y+8, r21	; 0x08
	long r;
	if (a < b)
    1594:	c2 16       	cp	r12, r18
    1596:	d3 06       	cpc	r13, r19
    1598:	e4 06       	cpc	r14, r20
    159a:	f5 06       	cpc	r15, r21
    159c:	34 f4       	brge	.+12     	; 0x15aa <FUNCgcd1+0x46>
		FUNCswap(&a, &b);
    159e:	be 01       	movw	r22, r28
    15a0:	6b 5f       	subi	r22, 0xFB	; 251
    15a2:	7f 4f       	sbci	r23, 0xFF	; 255
    15a4:	ce 01       	movw	r24, r28
    15a6:	01 96       	adiw	r24, 0x01	; 1
    15a8:	89 dc       	rcall	.-1774   	; 0xebc <FUNCswap>
	if (!b){
    15aa:	8d 81       	ldd	r24, Y+5	; 0x05
    15ac:	9e 81       	ldd	r25, Y+6	; 0x06
    15ae:	af 81       	ldd	r26, Y+7	; 0x07
    15b0:	b8 85       	ldd	r27, Y+8	; 0x08
    15b2:	89 2b       	or	r24, r25
    15b4:	8a 2b       	or	r24, r26
    15b6:	8b 2b       	or	r24, r27
    15b8:	69 f4       	brne	.+26     	; 0x15d4 <FUNCgcd1+0x70>
		while ((r = a % b) != 0) {
    15ba:	69 81       	ldd	r22, Y+1	; 0x01
    15bc:	7a 81       	ldd	r23, Y+2	; 0x02
    15be:	8b 81       	ldd	r24, Y+3	; 0x03
    15c0:	9c 81       	ldd	r25, Y+4	; 0x04
    15c2:	20 e0       	ldi	r18, 0x00	; 0
    15c4:	30 e0       	ldi	r19, 0x00	; 0
    15c6:	a9 01       	movw	r20, r18
    15c8:	4b d7       	rcall	.+3734   	; 0x2460 <__divmodsi4>
    15ca:	61 15       	cp	r22, r1
    15cc:	71 05       	cpc	r23, r1
    15ce:	81 05       	cpc	r24, r1
    15d0:	91 05       	cpc	r25, r1
    15d2:	29 f4       	brne	.+10     	; 0x15de <FUNCgcd1+0x7a>
			a = b;
			b = r;
		}
	}	
	return b;
    15d4:	6d 81       	ldd	r22, Y+5	; 0x05
    15d6:	7e 81       	ldd	r23, Y+6	; 0x06
    15d8:	8f 81       	ldd	r24, Y+7	; 0x07
    15da:	98 85       	ldd	r25, Y+8	; 0x08
    15dc:	05 c0       	rjmp	.+10     	; 0x15e8 <FUNCgcd1+0x84>
	if (a < b)
		FUNCswap(&a, &b);
	if (!b){
		while ((r = a % b) != 0) {
			a = b;
			b = r;
    15de:	6d 83       	std	Y+5, r22	; 0x05
    15e0:	7e 83       	std	Y+6, r23	; 0x06
    15e2:	8f 83       	std	Y+7, r24	; 0x07
    15e4:	98 87       	std	Y+8, r25	; 0x08
    15e6:	f6 cf       	rjmp	.-20     	; 0x15d4 <FUNCgcd1+0x70>
		}
	}	
	return b;
}
    15e8:	28 96       	adiw	r28, 0x08	; 8
    15ea:	0f b6       	in	r0, 0x3f	; 63
    15ec:	f8 94       	cli
    15ee:	de bf       	out	0x3e, r29	; 62
    15f0:	0f be       	out	0x3f, r0	; 63
    15f2:	cd bf       	out	0x3d, r28	; 61
    15f4:	df 91       	pop	r29
    15f6:	cf 91       	pop	r28
    15f8:	ff 90       	pop	r15
    15fa:	ef 90       	pop	r14
    15fc:	df 90       	pop	r13
    15fe:	cf 90       	pop	r12
    1600:	08 95       	ret

00001602 <FUNCpincheck>:
	uint8_t lh;
	if(port & (1<<pin))
		lh=1;
	else
		lh=0;
	return lh;
    1602:	90 e0       	ldi	r25, 0x00	; 0
    1604:	02 c0       	rjmp	.+4      	; 0x160a <FUNCpincheck+0x8>
    1606:	95 95       	asr	r25
    1608:	87 95       	ror	r24
    160a:	6a 95       	dec	r22
    160c:	e2 f7       	brpl	.-8      	; 0x1606 <FUNCpincheck+0x4>
}
    160e:	81 70       	andi	r24, 0x01	; 1
    1610:	08 95       	ret

00001612 <FUNCprint_binary>:
char* FUNCprint_binary(uint8_t number)
{
    1612:	ef ef       	ldi	r30, 0xFF	; 255
    1614:	f1 e0       	ldi	r31, 0x01	; 1
	uint8_t i,c;
    for(i=128,c=0;i;i>>=1,c++){
    1616:	90 e0       	ldi	r25, 0x00	; 0
    1618:	20 e8       	ldi	r18, 0x80	; 128
	(number & i) ? (FUNCstr[c]='1') : (FUNCstr[c]='0');
    161a:	50 e3       	ldi	r21, 0x30	; 48
    161c:	41 e3       	ldi	r20, 0x31	; 49
    161e:	38 2f       	mov	r19, r24
    1620:	32 23       	and	r19, r18
    1622:	11 f0       	breq	.+4      	; 0x1628 <FUNCprint_binary+0x16>
    1624:	40 83       	st	Z, r20
    1626:	01 c0       	rjmp	.+2      	; 0x162a <FUNCprint_binary+0x18>
    1628:	50 83       	st	Z, r21
	return lh;
}
char* FUNCprint_binary(uint8_t number)
{
	uint8_t i,c;
    for(i=128,c=0;i;i>>=1,c++){
    162a:	26 95       	lsr	r18
    162c:	9f 5f       	subi	r25, 0xFF	; 255
    162e:	31 96       	adiw	r30, 0x01	; 1
    1630:	98 30       	cpi	r25, 0x08	; 8
    1632:	a9 f7       	brne	.-22     	; 0x161e <FUNCprint_binary+0xc>
	(number & i) ? (FUNCstr[c]='1') : (FUNCstr[c]='0');
	}
	FUNCstr[c]='\0';
    1634:	10 92 07 02 	sts	0x0207, r1	; 0x800207 <FUNCstr+0x8>
	return FUNCstr;
}
    1638:	8f ef       	ldi	r24, 0xFF	; 255
    163a:	91 e0       	ldi	r25, 0x01	; 1
    163c:	08 95       	ret

0000163e <FUNCmayia>:
// power: raise base to n-th power; n >= 0
unsigned int Pwr(uint8_t bs, uint8_t n)
{
    unsigned int i, p;
    p = 1;
    for (i = 1; i <= n; ++i)
    163e:	a4 2f       	mov	r26, r20
    1640:	b0 e0       	ldi	r27, 0x00	; 0
    1642:	10 97       	sbiw	r26, 0x00	; 0
    1644:	61 f0       	breq	.+24     	; 0x165e <FUNCmayia+0x20>
    1646:	21 e0       	ldi	r18, 0x01	; 1
    1648:	30 e0       	ldi	r19, 0x00	; 0
    164a:	e1 e0       	ldi	r30, 0x01	; 1
    164c:	f0 e0       	ldi	r31, 0x00	; 0
        p = p * bs;
    164e:	ee 0f       	add	r30, r30
    1650:	ff 1f       	adc	r31, r31
// power: raise base to n-th power; n >= 0
unsigned int Pwr(uint8_t bs, uint8_t n)
{
    unsigned int i, p;
    p = 1;
    for (i = 1; i <= n; ++i)
    1652:	2f 5f       	subi	r18, 0xFF	; 255
    1654:	3f 4f       	sbci	r19, 0xFF	; 255
    1656:	a2 17       	cp	r26, r18
    1658:	b3 07       	cpc	r27, r19
    165a:	c8 f7       	brcc	.-14     	; 0x164e <FUNCmayia+0x10>
    165c:	02 c0       	rjmp	.+4      	; 0x1662 <FUNCmayia+0x24>
}
// power: raise base to n-th power; n >= 0
unsigned int Pwr(uint8_t bs, uint8_t n)
{
    unsigned int i, p;
    p = 1;
    165e:	e1 e0       	ldi	r30, 0x01	; 1
    1660:	f0 e0       	ldi	r31, 0x00	; 0
unsigned int FUNCmayia(unsigned int xi, unsigned int xf, uint8_t nbits)
{//magic formula
	unsigned int mask;
	unsigned int diff;
	unsigned int trans;
	mask=Pwr(2,nbits)-1;
    1662:	31 97       	sbiw	r30, 0x01	; 1
	xi&=mask;
	xf&=mask;
    1664:	6e 23       	and	r22, r30
    1666:	7f 23       	and	r23, r31
	diff=xf^xi;
    1668:	8e 23       	and	r24, r30
    166a:	9f 23       	and	r25, r31
    166c:	86 27       	eor	r24, r22
    166e:	97 27       	eor	r25, r23
	trans=diff&xf;
	return (trans<<nbits)|diff;
    1670:	68 23       	and	r22, r24
    1672:	79 23       	and	r23, r25
    1674:	02 c0       	rjmp	.+4      	; 0x167a <FUNCmayia+0x3c>
    1676:	66 0f       	add	r22, r22
    1678:	77 1f       	adc	r23, r23
    167a:	4a 95       	dec	r20
    167c:	e2 f7       	brpl	.-8      	; 0x1676 <FUNCmayia+0x38>
}
    167e:	86 2b       	or	r24, r22
    1680:	97 2b       	or	r25, r23
    1682:	08 95       	ret

00001684 <FUNCenable>:
// uint8_t TRANupdate(struct TRAN *tr, uint8_t idata);
/*
** procedure and function
*/
FUNC FUNCenable( void )
{
    1684:	fc 01       	movw	r30, r24
	uint8_t tSREG;
	tSREG=SREG;
    1686:	9f b7       	in	r25, 0x3f	; 63
	SREG&=~(1<<GLOBAL_INTERRUPT_ENABLE);
    1688:	8f b7       	in	r24, 0x3f	; 63
    168a:	8f 77       	andi	r24, 0x7F	; 127
    168c:	8f bf       	out	0x3f, r24	; 63
	func.putstr=FUNCputstr;
	func.getnum=FUNCgetnum;
	func.getnumv2=FUNCgetnumv2;
	func.readint=FUNCreadint;
	*/
	SREG=tSREG;
    168e:	9f bf       	out	0x3f, r25	; 63
	/******/
	return func;
    1690:	86 e5       	ldi	r24, 0x56	; 86
    1692:	99 e0       	ldi	r25, 0x09	; 9
    1694:	91 83       	std	Z+1, r25	; 0x01
    1696:	80 83       	st	Z, r24
    1698:	81 e7       	ldi	r24, 0x71	; 113
    169a:	99 e0       	ldi	r25, 0x09	; 9
    169c:	93 83       	std	Z+3, r25	; 0x03
    169e:	82 83       	std	Z+2, r24	; 0x02
    16a0:	8b e9       	ldi	r24, 0x9B	; 155
    16a2:	99 e0       	ldi	r25, 0x09	; 9
    16a4:	95 83       	std	Z+5, r25	; 0x05
    16a6:	84 83       	std	Z+4, r24	; 0x04
    16a8:	8f e1       	ldi	r24, 0x1F	; 31
    16aa:	9b e0       	ldi	r25, 0x0B	; 11
    16ac:	97 83       	std	Z+7, r25	; 0x07
    16ae:	86 83       	std	Z+6, r24	; 0x06
    16b0:	83 e4       	ldi	r24, 0x43	; 67
    16b2:	97 e0       	ldi	r25, 0x07	; 7
    16b4:	91 87       	std	Z+9, r25	; 0x09
    16b6:	80 87       	std	Z+8, r24	; 0x08
    16b8:	81 e5       	ldi	r24, 0x51	; 81
    16ba:	97 e0       	ldi	r25, 0x07	; 7
    16bc:	93 87       	std	Z+11, r25	; 0x0b
    16be:	82 87       	std	Z+10, r24	; 0x0a
    16c0:	83 e5       	ldi	r24, 0x53	; 83
    16c2:	97 e0       	ldi	r25, 0x07	; 7
    16c4:	95 87       	std	Z+13, r25	; 0x0d
    16c6:	84 87       	std	Z+12, r24	; 0x0c
    16c8:	86 e5       	ldi	r24, 0x56	; 86
    16ca:	97 e0       	ldi	r25, 0x07	; 7
    16cc:	97 87       	std	Z+15, r25	; 0x0f
    16ce:	86 87       	std	Z+14, r24	; 0x0e
    16d0:	89 e5       	ldi	r24, 0x59	; 89
    16d2:	97 e0       	ldi	r25, 0x07	; 7
    16d4:	91 8b       	std	Z+17, r25	; 0x11
    16d6:	80 8b       	std	Z+16, r24	; 0x10
    16d8:	8c e5       	ldi	r24, 0x5C	; 92
    16da:	97 e0       	ldi	r25, 0x07	; 7
    16dc:	93 8b       	std	Z+19, r25	; 0x13
    16de:	82 8b       	std	Z+18, r24	; 0x12
    16e0:	8d e4       	ldi	r24, 0x4D	; 77
    16e2:	97 e0       	ldi	r25, 0x07	; 7
    16e4:	95 8b       	std	Z+21, r25	; 0x15
    16e6:	84 8b       	std	Z+20, r24	; 0x14
    16e8:	8f e4       	ldi	r24, 0x4F	; 79
    16ea:	97 e0       	ldi	r25, 0x07	; 7
    16ec:	97 8b       	std	Z+23, r25	; 0x17
    16ee:	86 8b       	std	Z+22, r24	; 0x16
    16f0:	8e e5       	ldi	r24, 0x5E	; 94
    16f2:	97 e0       	ldi	r25, 0x07	; 7
    16f4:	91 8f       	std	Z+25, r25	; 0x19
    16f6:	80 8f       	std	Z+24, r24	; 0x18
    16f8:	8f e7       	ldi	r24, 0x7F	; 127
    16fa:	97 e0       	ldi	r25, 0x07	; 7
    16fc:	93 8f       	std	Z+27, r25	; 0x1b
    16fe:	82 8f       	std	Z+26, r24	; 0x1a
    1700:	8d e8       	ldi	r24, 0x8D	; 141
    1702:	97 e0       	ldi	r25, 0x07	; 7
    1704:	95 8f       	std	Z+29, r25	; 0x1d
    1706:	84 8f       	std	Z+28, r24	; 0x1c
    1708:	8f ea       	ldi	r24, 0xAF	; 175
    170a:	97 e0       	ldi	r25, 0x07	; 7
    170c:	97 8f       	std	Z+31, r25	; 0x1f
    170e:	86 8f       	std	Z+30, r24	; 0x1e
    1710:	83 e1       	ldi	r24, 0x13	; 19
    1712:	9a e0       	ldi	r25, 0x0A	; 10
    1714:	91 a3       	std	Z+33, r25	; 0x21
    1716:	80 a3       	std	Z+32, r24	; 0x20
    1718:	8b e4       	ldi	r24, 0x4B	; 75
    171a:	9a e0       	ldi	r25, 0x0A	; 10
    171c:	93 a3       	std	Z+35, r25	; 0x23
    171e:	82 a3       	std	Z+34, r24	; 0x22
    1720:	88 eb       	ldi	r24, 0xB8	; 184
    1722:	99 e0       	ldi	r25, 0x09	; 9
    1724:	95 a3       	std	Z+37, r25	; 0x25
    1726:	84 a3       	std	Z+36, r24	; 0x24
    1728:	80 e8       	ldi	r24, 0x80	; 128
    172a:	99 e0       	ldi	r25, 0x09	; 9
    172c:	97 a3       	std	Z+39, r25	; 0x27
    172e:	86 a3       	std	Z+38, r24	; 0x26
    1730:	85 e5       	ldi	r24, 0x55	; 85
    1732:	98 e0       	ldi	r25, 0x08	; 8
    1734:	91 a7       	std	Z+41, r25	; 0x29
    1736:	80 a7       	std	Z+40, r24	; 0x28
    1738:	8a e5       	ldi	r24, 0x5A	; 90
    173a:	98 e0       	ldi	r25, 0x08	; 8
    173c:	93 a7       	std	Z+43, r25	; 0x2b
    173e:	82 a7       	std	Z+42, r24	; 0x2a
    1740:	89 e6       	ldi	r24, 0x69	; 105
    1742:	98 e0       	ldi	r25, 0x08	; 8
    1744:	95 a7       	std	Z+45, r25	; 0x2d
    1746:	84 a7       	std	Z+44, r24	; 0x2c
    1748:	8d e8       	ldi	r24, 0x8D	; 141
    174a:	98 e0       	ldi	r25, 0x08	; 8
    174c:	97 a7       	std	Z+47, r25	; 0x2f
    174e:	86 a7       	std	Z+46, r24	; 0x2e
    1750:	8f e8       	ldi	r24, 0x8F	; 143
    1752:	98 e0       	ldi	r25, 0x08	; 8
    1754:	91 ab       	std	Z+49, r25	; 0x31
    1756:	80 ab       	std	Z+48, r24	; 0x30
    1758:	89 e9       	ldi	r24, 0x99	; 153
    175a:	98 e0       	ldi	r25, 0x08	; 8
    175c:	93 ab       	std	Z+51, r25	; 0x33
    175e:	82 ab       	std	Z+50, r24	; 0x32
    1760:	86 ea       	ldi	r24, 0xA6	; 166
    1762:	98 e0       	ldi	r25, 0x08	; 8
    1764:	95 ab       	std	Z+53, r25	; 0x35
    1766:	84 ab       	std	Z+52, r24	; 0x34
    1768:	82 eb       	ldi	r24, 0xB2	; 178
    176a:	98 e0       	ldi	r25, 0x08	; 8
    176c:	97 ab       	std	Z+55, r25	; 0x37
    176e:	86 ab       	std	Z+54, r24	; 0x36
    1770:	8a ec       	ldi	r24, 0xCA	; 202
    1772:	98 e0       	ldi	r25, 0x08	; 8
    1774:	91 af       	std	Z+57, r25	; 0x39
    1776:	80 af       	std	Z+56, r24	; 0x38
    1778:	8d ed       	ldi	r24, 0xDD	; 221
    177a:	98 e0       	ldi	r25, 0x08	; 8
    177c:	93 af       	std	Z+59, r25	; 0x3b
    177e:	82 af       	std	Z+58, r24	; 0x3a
    1780:	88 ee       	ldi	r24, 0xE8	; 232
    1782:	98 e0       	ldi	r25, 0x08	; 8
    1784:	95 af       	std	Z+61, r25	; 0x3d
    1786:	84 af       	std	Z+60, r24	; 0x3c
    1788:	85 e1       	ldi	r24, 0x15	; 21
    178a:	99 e0       	ldi	r25, 0x09	; 9
    178c:	97 af       	std	Z+63, r25	; 0x3f
    178e:	86 af       	std	Z+62, r24	; 0x3e
    1790:	df 01       	movw	r26, r30
    1792:	a0 5c       	subi	r26, 0xC0	; 192
    1794:	bf 4f       	sbci	r27, 0xFF	; 255
    1796:	87 e8       	ldi	r24, 0x87	; 135
    1798:	9a e0       	ldi	r25, 0x0A	; 10
    179a:	11 96       	adiw	r26, 0x01	; 1
    179c:	9c 93       	st	X, r25
    179e:	8e 93       	st	-X, r24
    17a0:	12 96       	adiw	r26, 0x02	; 2
    17a2:	82 e9       	ldi	r24, 0x92	; 146
    17a4:	9a e0       	ldi	r25, 0x0A	; 10
    17a6:	11 96       	adiw	r26, 0x01	; 1
    17a8:	9c 93       	st	X, r25
    17aa:	8e 93       	st	-X, r24
    17ac:	12 96       	adiw	r26, 0x02	; 2
    17ae:	82 eb       	ldi	r24, 0xB2	; 178
    17b0:	9a e0       	ldi	r25, 0x0A	; 10
    17b2:	11 96       	adiw	r26, 0x01	; 1
    17b4:	9c 93       	st	X, r25
    17b6:	8e 93       	st	-X, r24
    17b8:	12 96       	adiw	r26, 0x02	; 2
    17ba:	81 e0       	ldi	r24, 0x01	; 1
    17bc:	9b e0       	ldi	r25, 0x0B	; 11
    17be:	11 96       	adiw	r26, 0x01	; 1
    17c0:	9c 93       	st	X, r25
    17c2:	8e 93       	st	-X, r24
    17c4:	12 96       	adiw	r26, 0x02	; 2
    17c6:	89 e0       	ldi	r24, 0x09	; 9
    17c8:	9b e0       	ldi	r25, 0x0B	; 11
    17ca:	8d 93       	st	X+, r24
    17cc:	9c 93       	st	X, r25
}
    17ce:	cf 01       	movw	r24, r30
    17d0:	08 95       	ret

000017d2 <KEYPAD_getkey>:
	//Going to use pull down method.
	//Inic String Vec
	return keypad;
}
char KEYPAD_getkey(void)
{
    17d2:	cf 93       	push	r28
    17d4:	df 93       	push	r29
    17d6:	21 e0       	ldi	r18, 0x01	; 1
	uint8_t HL;
	char c='\0';
    17d8:	80 e0       	ldi	r24, 0x00	; 0
				*keypad_PORT|=(1<<KEYPADLINE_1);
				break;
			case 1: //line 2 index 1
				*keypad_DDR|=(1<<KEYPADLINE_2);
				*keypad_PORT&=~(1<<KEYPADLINE_2);
				keypad_dataf.line_2=*keypad_PIN & ((1<<KEYPADDATA_1) | (1<<KEYPADDATA_2) | (1<<KEYPADDATA_3) | (1<<KEYPADDATA_4));
    17da:	a5 e1       	ldi	r26, 0x15	; 21
    17dc:	b2 e0       	ldi	r27, 0x02	; 2
				HL=KEYPADhl(keypad_datai.line_2,keypad_dataf.line_2);
    17de:	e9 e1       	ldi	r30, 0x19	; 25
    17e0:	f2 e0       	ldi	r31, 0x02	; 2
					if(HL == (1<<KEYPADDATA_2))
						c=keypadvalue[1][1];
					if(HL == (1<<KEYPADDATA_3))
						c=keypadvalue[1][2];
					if(HL == (1<<KEYPADDATA_4))
						c=keypadvalue[1][3];
    17e2:	60 e0       	ldi	r22, 0x00	; 0
    17e4:	71 e0       	ldi	r23, 0x01	; 1
    17e6:	01 c0       	rjmp	.+2      	; 0x17ea <KEYPAD_getkey+0x18>
    17e8:	2f 5f       	subi	r18, 0xFF	; 255
{
	uint8_t HL;
	char c='\0';
	uint8_t keypad_option;
	for(keypad_option=0;keypad_option<KEYPADLINES;keypad_option++){
		switch (keypad_option)
    17ea:	9f ef       	ldi	r25, 0xFF	; 255
    17ec:	92 0f       	add	r25, r18
    17ee:	91 30       	cpi	r25, 0x01	; 1
    17f0:	09 f4       	brne	.+2      	; 0x17f4 <KEYPAD_getkey+0x22>
    17f2:	4b c0       	rjmp	.+150    	; 0x188a <KEYPAD_getkey+0xb8>
    17f4:	38 f0       	brcs	.+14     	; 0x1804 <KEYPAD_getkey+0x32>
    17f6:	92 30       	cpi	r25, 0x02	; 2
    17f8:	09 f4       	brne	.+2      	; 0x17fc <KEYPAD_getkey+0x2a>
    17fa:	8c c0       	rjmp	.+280    	; 0x1914 <KEYPAD_getkey+0x142>
    17fc:	93 30       	cpi	r25, 0x03	; 3
    17fe:	09 f4       	brne	.+2      	; 0x1802 <KEYPAD_getkey+0x30>
    1800:	ce c0       	rjmp	.+412    	; 0x199e <KEYPAD_getkey+0x1cc>
    1802:	0e c1       	rjmp	.+540    	; 0x1a20 <KEYPAD_getkey+0x24e>
		{
			case 0: //line 1 index 0
				*keypad_DDR|=(1<<KEYPADLINE_1);
    1804:	40 91 20 02 	lds	r20, 0x0220	; 0x800220 <keypad_DDR>
    1808:	50 91 21 02 	lds	r21, 0x0221	; 0x800221 <keypad_DDR+0x1>
    180c:	ea 01       	movw	r28, r20
    180e:	98 81       	ld	r25, Y
    1810:	90 68       	ori	r25, 0x80	; 128
    1812:	98 83       	st	Y, r25
				*keypad_PORT&=~(1<<KEYPADLINE_1);
    1814:	40 91 13 02 	lds	r20, 0x0213	; 0x800213 <keypad_PORT>
    1818:	50 91 14 02 	lds	r21, 0x0214	; 0x800214 <keypad_PORT+0x1>
    181c:	ea 01       	movw	r28, r20
    181e:	98 81       	ld	r25, Y
    1820:	9f 77       	andi	r25, 0x7F	; 127
    1822:	98 83       	st	Y, r25
				keypad_dataf.line_1=*keypad_PIN & ((1<<KEYPADDATA_1) | (1<<KEYPADDATA_2) | (1<<KEYPADDATA_3) | (1<<KEYPADDATA_4));
    1824:	40 91 1e 02 	lds	r20, 0x021E	; 0x80021e <keypad_PIN>
    1828:	50 91 1f 02 	lds	r21, 0x021F	; 0x80021f <keypad_PIN+0x1>
    182c:	ea 01       	movw	r28, r20
    182e:	38 81       	ld	r19, Y
    1830:	34 77       	andi	r19, 0x74	; 116
    1832:	3c 93       	st	X, r19
				HL=KEYPADhl(keypad_datai.line_1,keypad_dataf.line_1);
    1834:	90 81       	ld	r25, Z
uint8_t KEYPADhl(uint8_t xi, uint8_t xf)
{
	uint8_t i;
	//printf("KEYPADhl\n");
	i=xf^xi;
	i&=xi;
    1836:	43 2f       	mov	r20, r19
    1838:	49 27       	eor	r20, r25
    183a:	94 23       	and	r25, r20
			case 0: //line 1 index 0
				*keypad_DDR|=(1<<KEYPADLINE_1);
				*keypad_PORT&=~(1<<KEYPADLINE_1);
				keypad_dataf.line_1=*keypad_PIN & ((1<<KEYPADDATA_1) | (1<<KEYPADDATA_2) | (1<<KEYPADDATA_3) | (1<<KEYPADDATA_4));
				HL=KEYPADhl(keypad_datai.line_1,keypad_dataf.line_1);
				keypad_datai.line_1=keypad_dataf.line_1;
    183c:	30 83       	st	Z, r19
				if(HL){
    183e:	99 23       	and	r25, r25
    1840:	99 f0       	breq	.+38     	; 0x1868 <KEYPAD_getkey+0x96>
					//decode index line one column what ?
					if(HL == (1<<KEYPADDATA_1))
    1842:	94 30       	cpi	r25, 0x04	; 4
    1844:	19 f4       	brne	.+6      	; 0x184c <KEYPAD_getkey+0x7a>
						c=keypadvalue[0][0];
    1846:	eb 01       	movw	r28, r22
    1848:	88 81       	ld	r24, Y
    184a:	0a c0       	rjmp	.+20     	; 0x1860 <KEYPAD_getkey+0x8e>
					if(HL == (1<<KEYPADDATA_2))
    184c:	90 31       	cpi	r25, 0x10	; 16
    184e:	19 f4       	brne	.+6      	; 0x1856 <KEYPAD_getkey+0x84>
						c=keypadvalue[0][1];
    1850:	eb 01       	movw	r28, r22
    1852:	89 81       	ldd	r24, Y+1	; 0x01
    1854:	09 c0       	rjmp	.+18     	; 0x1868 <KEYPAD_getkey+0x96>
					if(HL == (1<<KEYPADDATA_3))
    1856:	90 32       	cpi	r25, 0x20	; 32
    1858:	19 f4       	brne	.+6      	; 0x1860 <KEYPAD_getkey+0x8e>
						c=keypadvalue[0][2];
    185a:	eb 01       	movw	r28, r22
    185c:	8a 81       	ldd	r24, Y+2	; 0x02
    185e:	04 c0       	rjmp	.+8      	; 0x1868 <KEYPAD_getkey+0x96>
					if(HL == (1<<KEYPADDATA_4))
    1860:	90 34       	cpi	r25, 0x40	; 64
    1862:	11 f4       	brne	.+4      	; 0x1868 <KEYPAD_getkey+0x96>
						c=keypadvalue[0][3];
    1864:	eb 01       	movw	r28, r22
    1866:	8b 81       	ldd	r24, Y+3	; 0x03
				}
				*keypad_DDR&=~(1<<KEYPADLINE_1);
    1868:	40 91 20 02 	lds	r20, 0x0220	; 0x800220 <keypad_DDR>
    186c:	50 91 21 02 	lds	r21, 0x0221	; 0x800221 <keypad_DDR+0x1>
    1870:	ea 01       	movw	r28, r20
    1872:	98 81       	ld	r25, Y
    1874:	9f 77       	andi	r25, 0x7F	; 127
    1876:	98 83       	st	Y, r25
				*keypad_PORT|=(1<<KEYPADLINE_1);
    1878:	40 91 13 02 	lds	r20, 0x0213	; 0x800213 <keypad_PORT>
    187c:	50 91 14 02 	lds	r21, 0x0214	; 0x800214 <keypad_PORT+0x1>
    1880:	ea 01       	movw	r28, r20
    1882:	98 81       	ld	r25, Y
    1884:	90 68       	ori	r25, 0x80	; 128
    1886:	98 83       	st	Y, r25
				break;
    1888:	af cf       	rjmp	.-162    	; 0x17e8 <KEYPAD_getkey+0x16>
			case 1: //line 2 index 1
				*keypad_DDR|=(1<<KEYPADLINE_2);
    188a:	40 91 20 02 	lds	r20, 0x0220	; 0x800220 <keypad_DDR>
    188e:	50 91 21 02 	lds	r21, 0x0221	; 0x800221 <keypad_DDR+0x1>
    1892:	ea 01       	movw	r28, r20
    1894:	98 81       	ld	r25, Y
    1896:	91 60       	ori	r25, 0x01	; 1
    1898:	98 83       	st	Y, r25
				*keypad_PORT&=~(1<<KEYPADLINE_2);
    189a:	40 91 13 02 	lds	r20, 0x0213	; 0x800213 <keypad_PORT>
    189e:	50 91 14 02 	lds	r21, 0x0214	; 0x800214 <keypad_PORT+0x1>
    18a2:	ea 01       	movw	r28, r20
    18a4:	98 81       	ld	r25, Y
    18a6:	9e 7f       	andi	r25, 0xFE	; 254
    18a8:	98 83       	st	Y, r25
				keypad_dataf.line_2=*keypad_PIN & ((1<<KEYPADDATA_1) | (1<<KEYPADDATA_2) | (1<<KEYPADDATA_3) | (1<<KEYPADDATA_4));
    18aa:	40 91 1e 02 	lds	r20, 0x021E	; 0x80021e <keypad_PIN>
    18ae:	50 91 1f 02 	lds	r21, 0x021F	; 0x80021f <keypad_PIN+0x1>
    18b2:	ea 01       	movw	r28, r20
    18b4:	38 81       	ld	r19, Y
    18b6:	34 77       	andi	r19, 0x74	; 116
    18b8:	11 96       	adiw	r26, 0x01	; 1
    18ba:	3c 93       	st	X, r19
    18bc:	11 97       	sbiw	r26, 0x01	; 1
				HL=KEYPADhl(keypad_datai.line_2,keypad_dataf.line_2);
    18be:	91 81       	ldd	r25, Z+1	; 0x01
uint8_t KEYPADhl(uint8_t xi, uint8_t xf)
{
	uint8_t i;
	//printf("KEYPADhl\n");
	i=xf^xi;
	i&=xi;
    18c0:	43 2f       	mov	r20, r19
    18c2:	49 27       	eor	r20, r25
    18c4:	94 23       	and	r25, r20
			case 1: //line 2 index 1
				*keypad_DDR|=(1<<KEYPADLINE_2);
				*keypad_PORT&=~(1<<KEYPADLINE_2);
				keypad_dataf.line_2=*keypad_PIN & ((1<<KEYPADDATA_1) | (1<<KEYPADDATA_2) | (1<<KEYPADDATA_3) | (1<<KEYPADDATA_4));
				HL=KEYPADhl(keypad_datai.line_2,keypad_dataf.line_2);
				keypad_datai.line_2=keypad_dataf.line_2;
    18c6:	31 83       	std	Z+1, r19	; 0x01
				if(HL){
    18c8:	99 23       	and	r25, r25
    18ca:	99 f0       	breq	.+38     	; 0x18f2 <KEYPAD_getkey+0x120>
					//decode index line two column what ?
					if(HL == (1<<KEYPADDATA_1))
    18cc:	94 30       	cpi	r25, 0x04	; 4
    18ce:	19 f4       	brne	.+6      	; 0x18d6 <KEYPAD_getkey+0x104>
						c=keypadvalue[1][0];
    18d0:	eb 01       	movw	r28, r22
    18d2:	8c 81       	ldd	r24, Y+4	; 0x04
    18d4:	0a c0       	rjmp	.+20     	; 0x18ea <KEYPAD_getkey+0x118>
					if(HL == (1<<KEYPADDATA_2))
    18d6:	90 31       	cpi	r25, 0x10	; 16
    18d8:	19 f4       	brne	.+6      	; 0x18e0 <KEYPAD_getkey+0x10e>
						c=keypadvalue[1][1];
    18da:	eb 01       	movw	r28, r22
    18dc:	8d 81       	ldd	r24, Y+5	; 0x05
    18de:	09 c0       	rjmp	.+18     	; 0x18f2 <KEYPAD_getkey+0x120>
					if(HL == (1<<KEYPADDATA_3))
    18e0:	90 32       	cpi	r25, 0x20	; 32
    18e2:	19 f4       	brne	.+6      	; 0x18ea <KEYPAD_getkey+0x118>
						c=keypadvalue[1][2];
    18e4:	eb 01       	movw	r28, r22
    18e6:	8e 81       	ldd	r24, Y+6	; 0x06
    18e8:	04 c0       	rjmp	.+8      	; 0x18f2 <KEYPAD_getkey+0x120>
					if(HL == (1<<KEYPADDATA_4))
    18ea:	90 34       	cpi	r25, 0x40	; 64
    18ec:	11 f4       	brne	.+4      	; 0x18f2 <KEYPAD_getkey+0x120>
						c=keypadvalue[1][3];
    18ee:	eb 01       	movw	r28, r22
    18f0:	8f 81       	ldd	r24, Y+7	; 0x07
				}
				*keypad_DDR&=~(1<<KEYPADLINE_2);
    18f2:	40 91 20 02 	lds	r20, 0x0220	; 0x800220 <keypad_DDR>
    18f6:	50 91 21 02 	lds	r21, 0x0221	; 0x800221 <keypad_DDR+0x1>
    18fa:	ea 01       	movw	r28, r20
    18fc:	98 81       	ld	r25, Y
    18fe:	9e 7f       	andi	r25, 0xFE	; 254
    1900:	98 83       	st	Y, r25
				*keypad_PORT|=(1<<KEYPADLINE_2);
    1902:	40 91 13 02 	lds	r20, 0x0213	; 0x800213 <keypad_PORT>
    1906:	50 91 14 02 	lds	r21, 0x0214	; 0x800214 <keypad_PORT+0x1>
    190a:	ea 01       	movw	r28, r20
    190c:	98 81       	ld	r25, Y
    190e:	91 60       	ori	r25, 0x01	; 1
    1910:	98 83       	st	Y, r25
				break;
    1912:	6a cf       	rjmp	.-300    	; 0x17e8 <KEYPAD_getkey+0x16>
			case 2: //line 3 index 2
				*keypad_DDR|=(1<<KEYPADLINE_3);
    1914:	40 91 20 02 	lds	r20, 0x0220	; 0x800220 <keypad_DDR>
    1918:	50 91 21 02 	lds	r21, 0x0221	; 0x800221 <keypad_DDR+0x1>
    191c:	ea 01       	movw	r28, r20
    191e:	98 81       	ld	r25, Y
    1920:	92 60       	ori	r25, 0x02	; 2
    1922:	98 83       	st	Y, r25
				*keypad_PORT&=~(1<<KEYPADLINE_3);
    1924:	40 91 13 02 	lds	r20, 0x0213	; 0x800213 <keypad_PORT>
    1928:	50 91 14 02 	lds	r21, 0x0214	; 0x800214 <keypad_PORT+0x1>
    192c:	ea 01       	movw	r28, r20
    192e:	98 81       	ld	r25, Y
    1930:	9d 7f       	andi	r25, 0xFD	; 253
    1932:	98 83       	st	Y, r25
				keypad_dataf.line_3=*keypad_PIN & ((1<<KEYPADDATA_1) | (1<<KEYPADDATA_2) | (1<<KEYPADDATA_3) | (1<<KEYPADDATA_4));
    1934:	40 91 1e 02 	lds	r20, 0x021E	; 0x80021e <keypad_PIN>
    1938:	50 91 1f 02 	lds	r21, 0x021F	; 0x80021f <keypad_PIN+0x1>
    193c:	ea 01       	movw	r28, r20
    193e:	38 81       	ld	r19, Y
    1940:	34 77       	andi	r19, 0x74	; 116
    1942:	12 96       	adiw	r26, 0x02	; 2
    1944:	3c 93       	st	X, r19
    1946:	12 97       	sbiw	r26, 0x02	; 2
				HL=KEYPADhl(keypad_datai.line_3,keypad_dataf.line_3);
    1948:	92 81       	ldd	r25, Z+2	; 0x02
uint8_t KEYPADhl(uint8_t xi, uint8_t xf)
{
	uint8_t i;
	//printf("KEYPADhl\n");
	i=xf^xi;
	i&=xi;
    194a:	43 2f       	mov	r20, r19
    194c:	49 27       	eor	r20, r25
    194e:	94 23       	and	r25, r20
			case 2: //line 3 index 2
				*keypad_DDR|=(1<<KEYPADLINE_3);
				*keypad_PORT&=~(1<<KEYPADLINE_3);
				keypad_dataf.line_3=*keypad_PIN & ((1<<KEYPADDATA_1) | (1<<KEYPADDATA_2) | (1<<KEYPADDATA_3) | (1<<KEYPADDATA_4));
				HL=KEYPADhl(keypad_datai.line_3,keypad_dataf.line_3);
				keypad_datai.line_3=keypad_dataf.line_3;
    1950:	32 83       	std	Z+2, r19	; 0x02
				if(HL){
    1952:	99 23       	and	r25, r25
    1954:	99 f0       	breq	.+38     	; 0x197c <KEYPAD_getkey+0x1aa>
					//decode index line three column what ?
					if(HL == (1<<KEYPADDATA_1))
    1956:	94 30       	cpi	r25, 0x04	; 4
    1958:	19 f4       	brne	.+6      	; 0x1960 <KEYPAD_getkey+0x18e>
						c=keypadvalue[2][0];
    195a:	eb 01       	movw	r28, r22
    195c:	88 85       	ldd	r24, Y+8	; 0x08
    195e:	0a c0       	rjmp	.+20     	; 0x1974 <KEYPAD_getkey+0x1a2>
					if(HL == (1<<KEYPADDATA_2))
    1960:	90 31       	cpi	r25, 0x10	; 16
    1962:	19 f4       	brne	.+6      	; 0x196a <KEYPAD_getkey+0x198>
						c=keypadvalue[2][1];
    1964:	eb 01       	movw	r28, r22
    1966:	89 85       	ldd	r24, Y+9	; 0x09
    1968:	09 c0       	rjmp	.+18     	; 0x197c <KEYPAD_getkey+0x1aa>
					if(HL == (1<<KEYPADDATA_3))
    196a:	90 32       	cpi	r25, 0x20	; 32
    196c:	19 f4       	brne	.+6      	; 0x1974 <KEYPAD_getkey+0x1a2>
						c=keypadvalue[2][2];
    196e:	eb 01       	movw	r28, r22
    1970:	8a 85       	ldd	r24, Y+10	; 0x0a
    1972:	04 c0       	rjmp	.+8      	; 0x197c <KEYPAD_getkey+0x1aa>
					if(HL == (1<<KEYPADDATA_4))
    1974:	90 34       	cpi	r25, 0x40	; 64
    1976:	11 f4       	brne	.+4      	; 0x197c <KEYPAD_getkey+0x1aa>
						c=keypadvalue[2][3];
    1978:	eb 01       	movw	r28, r22
    197a:	8b 85       	ldd	r24, Y+11	; 0x0b
				}
				*keypad_DDR&=~(1<<KEYPADLINE_3);
    197c:	40 91 20 02 	lds	r20, 0x0220	; 0x800220 <keypad_DDR>
    1980:	50 91 21 02 	lds	r21, 0x0221	; 0x800221 <keypad_DDR+0x1>
    1984:	ea 01       	movw	r28, r20
    1986:	98 81       	ld	r25, Y
    1988:	9d 7f       	andi	r25, 0xFD	; 253
    198a:	98 83       	st	Y, r25
				*keypad_PORT|=(1<<KEYPADLINE_3);
    198c:	40 91 13 02 	lds	r20, 0x0213	; 0x800213 <keypad_PORT>
    1990:	50 91 14 02 	lds	r21, 0x0214	; 0x800214 <keypad_PORT+0x1>
    1994:	ea 01       	movw	r28, r20
    1996:	98 81       	ld	r25, Y
    1998:	92 60       	ori	r25, 0x02	; 2
    199a:	98 83       	st	Y, r25
				break;
    199c:	25 cf       	rjmp	.-438    	; 0x17e8 <KEYPAD_getkey+0x16>
			case 3: //line 4 index 3
				*keypad_DDR|=(1<<KEYPADLINE_4);
    199e:	e0 91 20 02 	lds	r30, 0x0220	; 0x800220 <keypad_DDR>
    19a2:	f0 91 21 02 	lds	r31, 0x0221	; 0x800221 <keypad_DDR+0x1>
    19a6:	90 81       	ld	r25, Z
    19a8:	98 60       	ori	r25, 0x08	; 8
    19aa:	90 83       	st	Z, r25
				*keypad_PORT&=~(1<<KEYPADLINE_4);
    19ac:	e0 91 13 02 	lds	r30, 0x0213	; 0x800213 <keypad_PORT>
    19b0:	f0 91 14 02 	lds	r31, 0x0214	; 0x800214 <keypad_PORT+0x1>
    19b4:	90 81       	ld	r25, Z
    19b6:	97 7f       	andi	r25, 0xF7	; 247
    19b8:	90 83       	st	Z, r25
				keypad_dataf.line_4=*keypad_PIN & ((1<<KEYPADDATA_1) | (1<<KEYPADDATA_2) | (1<<KEYPADDATA_3) | (1<<KEYPADDATA_4));
    19ba:	e0 91 1e 02 	lds	r30, 0x021E	; 0x80021e <keypad_PIN>
    19be:	f0 91 1f 02 	lds	r31, 0x021F	; 0x80021f <keypad_PIN+0x1>
    19c2:	20 81       	ld	r18, Z
    19c4:	24 77       	andi	r18, 0x74	; 116
    19c6:	20 93 18 02 	sts	0x0218, r18	; 0x800218 <keypad_dataf+0x3>
				HL=KEYPADhl(keypad_datai.line_4,keypad_dataf.line_4);
    19ca:	e9 e1       	ldi	r30, 0x19	; 25
    19cc:	f2 e0       	ldi	r31, 0x02	; 2
    19ce:	93 81       	ldd	r25, Z+3	; 0x03
uint8_t KEYPADhl(uint8_t xi, uint8_t xf)
{
	uint8_t i;
	//printf("KEYPADhl\n");
	i=xf^xi;
	i&=xi;
    19d0:	32 2f       	mov	r19, r18
    19d2:	39 27       	eor	r19, r25
    19d4:	93 23       	and	r25, r19
			case 3: //line 4 index 3
				*keypad_DDR|=(1<<KEYPADLINE_4);
				*keypad_PORT&=~(1<<KEYPADLINE_4);
				keypad_dataf.line_4=*keypad_PIN & ((1<<KEYPADDATA_1) | (1<<KEYPADDATA_2) | (1<<KEYPADDATA_3) | (1<<KEYPADDATA_4));
				HL=KEYPADhl(keypad_datai.line_4,keypad_dataf.line_4);
				keypad_datai.line_4=keypad_dataf.line_4;
    19d6:	23 83       	std	Z+3, r18	; 0x03
				if(HL){
    19d8:	99 23       	and	r25, r25
    19da:	99 f0       	breq	.+38     	; 0x1a02 <KEYPAD_getkey+0x230>
					//decode index line four column what ?
					if(HL == (1<<KEYPADDATA_1))
    19dc:	94 30       	cpi	r25, 0x04	; 4
    19de:	19 f4       	brne	.+6      	; 0x19e6 <KEYPAD_getkey+0x214>
						c=keypadvalue[3][0];
    19e0:	80 91 0c 01 	lds	r24, 0x010C	; 0x80010c <__DATA_REGION_ORIGIN__+0xc>
    19e4:	0a c0       	rjmp	.+20     	; 0x19fa <KEYPAD_getkey+0x228>
					if(HL == (1<<KEYPADDATA_2))
    19e6:	90 31       	cpi	r25, 0x10	; 16
    19e8:	19 f4       	brne	.+6      	; 0x19f0 <KEYPAD_getkey+0x21e>
						c=keypadvalue[3][1];
    19ea:	80 91 0d 01 	lds	r24, 0x010D	; 0x80010d <__DATA_REGION_ORIGIN__+0xd>
    19ee:	09 c0       	rjmp	.+18     	; 0x1a02 <KEYPAD_getkey+0x230>
					if(HL == (1<<KEYPADDATA_3))
    19f0:	90 32       	cpi	r25, 0x20	; 32
    19f2:	19 f4       	brne	.+6      	; 0x19fa <KEYPAD_getkey+0x228>
						c=keypadvalue[3][2];
    19f4:	80 91 0e 01 	lds	r24, 0x010E	; 0x80010e <__DATA_REGION_ORIGIN__+0xe>
    19f8:	04 c0       	rjmp	.+8      	; 0x1a02 <KEYPAD_getkey+0x230>
					if(HL == (1<<KEYPADDATA_4))
    19fa:	90 34       	cpi	r25, 0x40	; 64
    19fc:	11 f4       	brne	.+4      	; 0x1a02 <KEYPAD_getkey+0x230>
						c=keypadvalue[3][3];
    19fe:	80 91 0f 01 	lds	r24, 0x010F	; 0x80010f <__DATA_REGION_ORIGIN__+0xf>
				}
				*keypad_DDR&=~(1<<KEYPADLINE_4);
    1a02:	e0 91 20 02 	lds	r30, 0x0220	; 0x800220 <keypad_DDR>
    1a06:	f0 91 21 02 	lds	r31, 0x0221	; 0x800221 <keypad_DDR+0x1>
    1a0a:	90 81       	ld	r25, Z
    1a0c:	97 7f       	andi	r25, 0xF7	; 247
    1a0e:	90 83       	st	Z, r25
				*keypad_PORT|=(1<<KEYPADLINE_4);
    1a10:	e0 91 13 02 	lds	r30, 0x0213	; 0x800213 <keypad_PORT>
    1a14:	f0 91 14 02 	lds	r31, 0x0214	; 0x800214 <keypad_PORT+0x1>
    1a18:	90 81       	ld	r25, Z
    1a1a:	98 60       	ori	r25, 0x08	; 8
    1a1c:	90 83       	st	Z, r25
    1a1e:	03 c0       	rjmp	.+6      	; 0x1a26 <KEYPAD_getkey+0x254>
char KEYPAD_getkey(void)
{
	uint8_t HL;
	char c='\0';
	uint8_t keypad_option;
	for(keypad_option=0;keypad_option<KEYPADLINES;keypad_option++){
    1a20:	24 30       	cpi	r18, 0x04	; 4
    1a22:	08 f4       	brcc	.+2      	; 0x1a26 <KEYPAD_getkey+0x254>
    1a24:	e1 ce       	rjmp	.-574    	; 0x17e8 <KEYPAD_getkey+0x16>
			default:
				break;
		}//endswitch
	}//endfor
	return c;
}
    1a26:	df 91       	pop	r29
    1a28:	cf 91       	pop	r28
    1a2a:	08 95       	ret

00001a2c <KEYPAD_get>:
/***get***/
struct keypadata KEYPAD_get(void)
{
    1a2c:	cf 93       	push	r28
    1a2e:	df 93       	push	r29
    1a30:	00 d0       	rcall	.+0      	; 0x1a32 <KEYPAD_get+0x6>
    1a32:	00 d0       	rcall	.+0      	; 0x1a34 <KEYPAD_get+0x8>
    1a34:	1f 92       	push	r1
    1a36:	cd b7       	in	r28, 0x3d	; 61
    1a38:	de b7       	in	r29, 0x3e	; 62
	char c;
	c=KEYPAD_getkey(); //returns null all the time when no entry
    1a3a:	cb de       	rcall	.-618    	; 0x17d2 <KEYPAD_getkey>
	if(c){
    1a3c:	88 23       	and	r24, r24
    1a3e:	91 f1       	breq	.+100    	; 0x1aa4 <KEYPAD_get+0x78>
		data.character=c;
    1a40:	80 93 50 02 	sts	0x0250, r24	; 0x800250 <data>
		if(KEYPADSTRINGINDEX<(KEYPADSTRINGSIZE)){
    1a44:	90 91 1d 02 	lds	r25, 0x021D	; 0x80021d <KEYPADSTRINGINDEX>
    1a48:	94 31       	cpi	r25, 0x14	; 20
    1a4a:	88 f4       	brcc	.+34     	; 0x1a6e <KEYPAD_get+0x42>
			KEYPAD_string[KEYPADSTRINGINDEX]=c;
    1a4c:	e0 91 1d 02 	lds	r30, 0x021D	; 0x80021d <KEYPADSTRINGINDEX>
    1a50:	f0 e0       	ldi	r31, 0x00	; 0
    1a52:	ee 5d       	subi	r30, 0xDE	; 222
    1a54:	fd 4f       	sbci	r31, 0xFD	; 253
    1a56:	80 83       	st	Z, r24
			KEYPADSTRINGINDEX++;
    1a58:	90 91 1d 02 	lds	r25, 0x021D	; 0x80021d <KEYPADSTRINGINDEX>
    1a5c:	9f 5f       	subi	r25, 0xFF	; 255
    1a5e:	90 93 1d 02 	sts	0x021D, r25	; 0x80021d <KEYPADSTRINGINDEX>
			KEYPAD_string[KEYPADSTRINGINDEX]='\0';
    1a62:	e0 91 1d 02 	lds	r30, 0x021D	; 0x80021d <KEYPADSTRINGINDEX>
    1a66:	f0 e0       	ldi	r31, 0x00	; 0
    1a68:	ee 5d       	subi	r30, 0xDE	; 222
    1a6a:	fd 4f       	sbci	r31, 0xFD	; 253
    1a6c:	10 82       	st	Z, r1
		}
		if(c==KEYPADENTERKEY){
    1a6e:	84 34       	cpi	r24, 0x44	; 68
    1a70:	99 f4       	brne	.+38     	; 0x1a98 <KEYPAD_get+0x6c>
			KEYPAD_string[KEYPADSTRINGINDEX-1]='\0';
    1a72:	e0 91 1d 02 	lds	r30, 0x021D	; 0x80021d <KEYPADSTRINGINDEX>
    1a76:	f0 e0       	ldi	r31, 0x00	; 0
    1a78:	ef 5d       	subi	r30, 0xDF	; 223
    1a7a:	fd 4f       	sbci	r31, 0xFD	; 253
    1a7c:	10 82       	st	Z, r1
			KEYPADSTRINGINDEX=0;
    1a7e:	10 92 1d 02 	sts	0x021D, r1	; 0x80021d <KEYPADSTRINGINDEX>
			data.string=KEYPAD_string;
    1a82:	e0 e5       	ldi	r30, 0x50	; 80
    1a84:	f2 e0       	ldi	r31, 0x02	; 2
    1a86:	82 e2       	ldi	r24, 0x22	; 34
    1a88:	92 e0       	ldi	r25, 0x02	; 2
    1a8a:	94 83       	std	Z+4, r25	; 0x04
    1a8c:	83 83       	std	Z+3, r24	; 0x03
			data.printstring="";
    1a8e:	83 e1       	ldi	r24, 0x13	; 19
    1a90:	91 e0       	ldi	r25, 0x01	; 1
    1a92:	92 83       	std	Z+2, r25	; 0x02
    1a94:	81 83       	std	Z+1, r24	; 0x01
    1a96:	06 c0       	rjmp	.+12     	; 0x1aa4 <KEYPAD_get+0x78>
		}else
			data.printstring=KEYPAD_string;
    1a98:	82 e2       	ldi	r24, 0x22	; 34
    1a9a:	92 e0       	ldi	r25, 0x02	; 2
    1a9c:	90 93 52 02 	sts	0x0252, r25	; 0x800252 <data+0x2>
    1aa0:	80 93 51 02 	sts	0x0251, r24	; 0x800251 <data+0x1>
	}
	return data;
    1aa4:	85 e0       	ldi	r24, 0x05	; 5
    1aa6:	e0 e5       	ldi	r30, 0x50	; 80
    1aa8:	f2 e0       	ldi	r31, 0x02	; 2
    1aaa:	de 01       	movw	r26, r28
    1aac:	11 96       	adiw	r26, 0x01	; 1
    1aae:	01 90       	ld	r0, Z+
    1ab0:	0d 92       	st	X+, r0
    1ab2:	8a 95       	dec	r24
    1ab4:	e1 f7       	brne	.-8      	; 0x1aae <KEYPAD_get+0x82>
    1ab6:	29 81       	ldd	r18, Y+1	; 0x01
    1ab8:	3a 81       	ldd	r19, Y+2	; 0x02
    1aba:	4b 81       	ldd	r20, Y+3	; 0x03
    1abc:	5c 81       	ldd	r21, Y+4	; 0x04
    1abe:	6d 81       	ldd	r22, Y+5	; 0x05
}
    1ac0:	70 e0       	ldi	r23, 0x00	; 0
    1ac2:	80 e0       	ldi	r24, 0x00	; 0
    1ac4:	90 e0       	ldi	r25, 0x00	; 0
    1ac6:	0f 90       	pop	r0
    1ac8:	0f 90       	pop	r0
    1aca:	0f 90       	pop	r0
    1acc:	0f 90       	pop	r0
    1ace:	0f 90       	pop	r0
    1ad0:	df 91       	pop	r29
    1ad2:	cf 91       	pop	r28
    1ad4:	08 95       	ret

00001ad6 <KEYPADenable>:
uint8_t KEYPADhl(uint8_t xi, uint8_t xf);
/*
** procedure and function
*/
KEYPAD KEYPADenable(volatile uint8_t *ddr, volatile uint8_t *pin, volatile uint8_t *port)
{
    1ad6:	fc 01       	movw	r30, r24
	//LOCAL VARIABLES
	uint8_t tSREG;
	tSREG=SREG;
    1ad8:	2f b7       	in	r18, 0x3f	; 63
	data.character=' ';
    1ada:	80 e2       	ldi	r24, 0x20	; 32
    1adc:	80 93 50 02 	sts	0x0250, r24	; 0x800250 <data>
	SREG&=~(1<<GLOBAL_INTERRUPT_ENABLE);
    1ae0:	9f b7       	in	r25, 0x3f	; 63
    1ae2:	9f 77       	andi	r25, 0x7F	; 127
    1ae4:	9f bf       	out	0x3f, r25	; 63
	//ALLOCAO MEMORIA PARA Estrutura
	KEYPAD keypad;
	//import parametros
	keypad_DDR=ddr;
    1ae6:	f0 93 21 02 	sts	0x0221, r31	; 0x800221 <keypad_DDR+0x1>
    1aea:	e0 93 20 02 	sts	0x0220, r30	; 0x800220 <keypad_DDR>
	keypad_PIN=pin;
    1aee:	70 93 1f 02 	sts	0x021F, r23	; 0x80021f <keypad_PIN+0x1>
    1af2:	60 93 1e 02 	sts	0x021E, r22	; 0x80021e <keypad_PIN>
	keypad_PORT=port;
    1af6:	50 93 14 02 	sts	0x0214, r21	; 0x800214 <keypad_PORT+0x1>
    1afa:	40 93 13 02 	sts	0x0213, r20	; 0x800213 <keypad_PORT>
	//inic variables
	*keypad_DDR=(1<<KEYPADLINE_1) | (1<<KEYPADLINE_2) | (1<<KEYPADLINE_3) | (1<<KEYPADLINE_4);
    1afe:	8b e8       	ldi	r24, 0x8B	; 139
    1b00:	80 83       	st	Z, r24
	*keypad_PORT=(1<<KEYPADDATA_1) | (1<<KEYPADDATA_2) | (1<<KEYPADDATA_3) | (1<<KEYPADDATA_4);
    1b02:	e0 91 13 02 	lds	r30, 0x0213	; 0x800213 <keypad_PORT>
    1b06:	f0 91 14 02 	lds	r31, 0x0214	; 0x800214 <keypad_PORT+0x1>
    1b0a:	84 e7       	ldi	r24, 0x74	; 116
    1b0c:	80 83       	st	Z, r24
	keypad_datai.line_1=keypad_dataf.line_1=(1<<KEYPADDATA_1) | (1<<KEYPADDATA_2) | (1<<KEYPADDATA_3) | (1<<KEYPADDATA_4);
    1b0e:	a5 e1       	ldi	r26, 0x15	; 21
    1b10:	b2 e0       	ldi	r27, 0x02	; 2
    1b12:	8c 93       	st	X, r24
    1b14:	e9 e1       	ldi	r30, 0x19	; 25
    1b16:	f2 e0       	ldi	r31, 0x02	; 2
    1b18:	80 83       	st	Z, r24
	keypad_datai.line_2=keypad_dataf.line_2=(1<<KEYPADDATA_1) | (1<<KEYPADDATA_2) | (1<<KEYPADDATA_3) | (1<<KEYPADDATA_4);
    1b1a:	11 96       	adiw	r26, 0x01	; 1
    1b1c:	8c 93       	st	X, r24
    1b1e:	11 97       	sbiw	r26, 0x01	; 1
    1b20:	81 83       	std	Z+1, r24	; 0x01
	keypad_datai.line_3=keypad_dataf.line_3=(1<<KEYPADDATA_1) | (1<<KEYPADDATA_2) | (1<<KEYPADDATA_3) | (1<<KEYPADDATA_4);
    1b22:	12 96       	adiw	r26, 0x02	; 2
    1b24:	8c 93       	st	X, r24
    1b26:	12 97       	sbiw	r26, 0x02	; 2
    1b28:	82 83       	std	Z+2, r24	; 0x02
	keypad_datai.line_4=keypad_dataf.line_4=(1<<KEYPADDATA_1) | (1<<KEYPADDATA_2) | (1<<KEYPADDATA_3) | (1<<KEYPADDATA_4);
    1b2a:	13 96       	adiw	r26, 0x03	; 3
    1b2c:	8c 93       	st	X, r24
    1b2e:	83 83       	std	Z+3, r24	; 0x03
	KEYPADSTRINGINDEX=0;
    1b30:	10 92 1d 02 	sts	0x021D, r1	; 0x80021d <KEYPADSTRINGINDEX>
	//Direccionar apontadores para PROTOTIPOS
	keypad.getkey=KEYPAD_getkey;
	keypad.get=KEYPAD_get;
	SREG=tSREG;
    1b34:	2f bf       	out	0x3f, r18	; 63
	//
	*keypad_PORT|=(1<<KEYPADLINE_1) | (1<<KEYPADLINE_2) | (1<<KEYPADLINE_3) | (1<<KEYPADLINE_4);
    1b36:	e0 91 13 02 	lds	r30, 0x0213	; 0x800213 <keypad_PORT>
    1b3a:	f0 91 14 02 	lds	r31, 0x0214	; 0x800214 <keypad_PORT+0x1>
    1b3e:	80 81       	ld	r24, Z
    1b40:	8b 68       	ori	r24, 0x8B	; 139
    1b42:	80 83       	st	Z, r24
	//Going to use pull down method.
	//Inic String Vec
	return keypad;
    1b44:	69 ee       	ldi	r22, 0xE9	; 233
    1b46:	7b e0       	ldi	r23, 0x0B	; 11
    1b48:	86 e1       	ldi	r24, 0x16	; 22
    1b4a:	9d e0       	ldi	r25, 0x0D	; 13
}
    1b4c:	08 95       	ret

00001b4e <LCD0_write>:
	#else
		//round up by default
		__ticks_dc = (uint32_t)(ceil(fabs(__tmp)));
	#endif

	__builtin_avr_delay_cycles(__ticks_dc);
    1b4e:	e0 91 41 02 	lds	r30, 0x0241	; 0x800241 <lcd0_PORT>
    1b52:	f0 91 42 02 	lds	r31, 0x0242	; 0x800242 <lcd0_PORT+0x1>
    1b56:	90 81       	ld	r25, Z
    1b58:	9d 7f       	andi	r25, 0xFD	; 253
    1b5a:	90 83       	st	Z, r25
    1b5c:	67 2b       	or	r22, r23
    1b5e:	41 f0       	breq	.+16     	; 0x1b70 <LCD0_write+0x22>
    1b60:	e0 91 41 02 	lds	r30, 0x0241	; 0x800241 <lcd0_PORT>
    1b64:	f0 91 42 02 	lds	r31, 0x0242	; 0x800242 <lcd0_PORT+0x1>
    1b68:	90 81       	ld	r25, Z
    1b6a:	91 60       	ori	r25, 0x01	; 1
    1b6c:	90 83       	st	Z, r25
    1b6e:	07 c0       	rjmp	.+14     	; 0x1b7e <LCD0_write+0x30>
    1b70:	e0 91 41 02 	lds	r30, 0x0241	; 0x800241 <lcd0_PORT>
    1b74:	f0 91 42 02 	lds	r31, 0x0242	; 0x800242 <lcd0_PORT+0x1>
    1b78:	90 81       	ld	r25, Z
    1b7a:	9e 7f       	andi	r25, 0xFE	; 254
    1b7c:	90 83       	st	Z, r25
    1b7e:	e0 91 3e 02 	lds	r30, 0x023E	; 0x80023e <lcd0_DDR>
    1b82:	f0 91 3f 02 	lds	r31, 0x023F	; 0x80023f <lcd0_DDR+0x1>
    1b86:	90 81       	ld	r25, Z
    1b88:	90 6f       	ori	r25, 0xF0	; 240
    1b8a:	90 83       	st	Z, r25
    1b8c:	e0 91 41 02 	lds	r30, 0x0241	; 0x800241 <lcd0_PORT>
    1b90:	f0 91 42 02 	lds	r31, 0x0242	; 0x800242 <lcd0_PORT+0x1>
    1b94:	90 81       	ld	r25, Z
    1b96:	94 60       	ori	r25, 0x04	; 4
    1b98:	90 83       	st	Z, r25
    1b9a:	88 23       	and	r24, r24
    1b9c:	44 f4       	brge	.+16     	; 0x1bae <LCD0_write+0x60>
    1b9e:	e0 91 41 02 	lds	r30, 0x0241	; 0x800241 <lcd0_PORT>
    1ba2:	f0 91 42 02 	lds	r31, 0x0242	; 0x800242 <lcd0_PORT+0x1>
    1ba6:	90 81       	ld	r25, Z
    1ba8:	90 68       	ori	r25, 0x80	; 128
    1baa:	90 83       	st	Z, r25
    1bac:	07 c0       	rjmp	.+14     	; 0x1bbc <LCD0_write+0x6e>
    1bae:	e0 91 41 02 	lds	r30, 0x0241	; 0x800241 <lcd0_PORT>
    1bb2:	f0 91 42 02 	lds	r31, 0x0242	; 0x800242 <lcd0_PORT+0x1>
    1bb6:	90 81       	ld	r25, Z
    1bb8:	9f 77       	andi	r25, 0x7F	; 127
    1bba:	90 83       	st	Z, r25
    1bbc:	86 ff       	sbrs	r24, 6
    1bbe:	08 c0       	rjmp	.+16     	; 0x1bd0 <LCD0_write+0x82>
    1bc0:	e0 91 41 02 	lds	r30, 0x0241	; 0x800241 <lcd0_PORT>
    1bc4:	f0 91 42 02 	lds	r31, 0x0242	; 0x800242 <lcd0_PORT+0x1>
    1bc8:	90 81       	ld	r25, Z
    1bca:	90 64       	ori	r25, 0x40	; 64
    1bcc:	90 83       	st	Z, r25
    1bce:	07 c0       	rjmp	.+14     	; 0x1bde <LCD0_write+0x90>
    1bd0:	e0 91 41 02 	lds	r30, 0x0241	; 0x800241 <lcd0_PORT>
    1bd4:	f0 91 42 02 	lds	r31, 0x0242	; 0x800242 <lcd0_PORT+0x1>
    1bd8:	90 81       	ld	r25, Z
    1bda:	9f 7b       	andi	r25, 0xBF	; 191
    1bdc:	90 83       	st	Z, r25
    1bde:	85 ff       	sbrs	r24, 5
    1be0:	08 c0       	rjmp	.+16     	; 0x1bf2 <LCD0_write+0xa4>
    1be2:	e0 91 41 02 	lds	r30, 0x0241	; 0x800241 <lcd0_PORT>
    1be6:	f0 91 42 02 	lds	r31, 0x0242	; 0x800242 <lcd0_PORT+0x1>
    1bea:	90 81       	ld	r25, Z
    1bec:	90 62       	ori	r25, 0x20	; 32
    1bee:	90 83       	st	Z, r25
    1bf0:	07 c0       	rjmp	.+14     	; 0x1c00 <LCD0_write+0xb2>
    1bf2:	e0 91 41 02 	lds	r30, 0x0241	; 0x800241 <lcd0_PORT>
    1bf6:	f0 91 42 02 	lds	r31, 0x0242	; 0x800242 <lcd0_PORT+0x1>
    1bfa:	90 81       	ld	r25, Z
    1bfc:	9f 7d       	andi	r25, 0xDF	; 223
    1bfe:	90 83       	st	Z, r25
    1c00:	84 ff       	sbrs	r24, 4
    1c02:	08 c0       	rjmp	.+16     	; 0x1c14 <LCD0_write+0xc6>
    1c04:	e0 91 41 02 	lds	r30, 0x0241	; 0x800241 <lcd0_PORT>
    1c08:	f0 91 42 02 	lds	r31, 0x0242	; 0x800242 <lcd0_PORT+0x1>
    1c0c:	90 81       	ld	r25, Z
    1c0e:	90 61       	ori	r25, 0x10	; 16
    1c10:	90 83       	st	Z, r25
    1c12:	07 c0       	rjmp	.+14     	; 0x1c22 <LCD0_write+0xd4>
    1c14:	e0 91 41 02 	lds	r30, 0x0241	; 0x800241 <lcd0_PORT>
    1c18:	f0 91 42 02 	lds	r31, 0x0242	; 0x800242 <lcd0_PORT+0x1>
    1c1c:	90 81       	ld	r25, Z
    1c1e:	9f 7e       	andi	r25, 0xEF	; 239
    1c20:	90 83       	st	Z, r25
    1c22:	e0 91 41 02 	lds	r30, 0x0241	; 0x800241 <lcd0_PORT>
    1c26:	f0 91 42 02 	lds	r31, 0x0242	; 0x800242 <lcd0_PORT+0x1>
    1c2a:	90 81       	ld	r25, Z
    1c2c:	9b 7f       	andi	r25, 0xFB	; 251
    1c2e:	90 83       	st	Z, r25
    1c30:	e0 91 41 02 	lds	r30, 0x0241	; 0x800241 <lcd0_PORT>
    1c34:	f0 91 42 02 	lds	r31, 0x0242	; 0x800242 <lcd0_PORT+0x1>
    1c38:	90 81       	ld	r25, Z
    1c3a:	94 60       	ori	r25, 0x04	; 4
    1c3c:	90 83       	st	Z, r25
    1c3e:	83 ff       	sbrs	r24, 3
    1c40:	08 c0       	rjmp	.+16     	; 0x1c52 <LCD0_write+0x104>
    1c42:	e0 91 41 02 	lds	r30, 0x0241	; 0x800241 <lcd0_PORT>
    1c46:	f0 91 42 02 	lds	r31, 0x0242	; 0x800242 <lcd0_PORT+0x1>
    1c4a:	90 81       	ld	r25, Z
    1c4c:	90 68       	ori	r25, 0x80	; 128
    1c4e:	90 83       	st	Z, r25
    1c50:	07 c0       	rjmp	.+14     	; 0x1c60 <LCD0_write+0x112>
    1c52:	e0 91 41 02 	lds	r30, 0x0241	; 0x800241 <lcd0_PORT>
    1c56:	f0 91 42 02 	lds	r31, 0x0242	; 0x800242 <lcd0_PORT+0x1>
    1c5a:	90 81       	ld	r25, Z
    1c5c:	9f 77       	andi	r25, 0x7F	; 127
    1c5e:	90 83       	st	Z, r25
    1c60:	82 ff       	sbrs	r24, 2
    1c62:	08 c0       	rjmp	.+16     	; 0x1c74 <LCD0_write+0x126>
    1c64:	e0 91 41 02 	lds	r30, 0x0241	; 0x800241 <lcd0_PORT>
    1c68:	f0 91 42 02 	lds	r31, 0x0242	; 0x800242 <lcd0_PORT+0x1>
    1c6c:	90 81       	ld	r25, Z
    1c6e:	90 64       	ori	r25, 0x40	; 64
    1c70:	90 83       	st	Z, r25
    1c72:	07 c0       	rjmp	.+14     	; 0x1c82 <LCD0_write+0x134>
    1c74:	e0 91 41 02 	lds	r30, 0x0241	; 0x800241 <lcd0_PORT>
    1c78:	f0 91 42 02 	lds	r31, 0x0242	; 0x800242 <lcd0_PORT+0x1>
    1c7c:	90 81       	ld	r25, Z
    1c7e:	9f 7b       	andi	r25, 0xBF	; 191
    1c80:	90 83       	st	Z, r25
    1c82:	81 ff       	sbrs	r24, 1
    1c84:	08 c0       	rjmp	.+16     	; 0x1c96 <LCD0_write+0x148>
    1c86:	e0 91 41 02 	lds	r30, 0x0241	; 0x800241 <lcd0_PORT>
    1c8a:	f0 91 42 02 	lds	r31, 0x0242	; 0x800242 <lcd0_PORT+0x1>
    1c8e:	90 81       	ld	r25, Z
    1c90:	90 62       	ori	r25, 0x20	; 32
    1c92:	90 83       	st	Z, r25
    1c94:	07 c0       	rjmp	.+14     	; 0x1ca4 <LCD0_write+0x156>
    1c96:	e0 91 41 02 	lds	r30, 0x0241	; 0x800241 <lcd0_PORT>
    1c9a:	f0 91 42 02 	lds	r31, 0x0242	; 0x800242 <lcd0_PORT+0x1>
    1c9e:	90 81       	ld	r25, Z
    1ca0:	9f 7d       	andi	r25, 0xDF	; 223
    1ca2:	90 83       	st	Z, r25
    1ca4:	80 ff       	sbrs	r24, 0
    1ca6:	08 c0       	rjmp	.+16     	; 0x1cb8 <LCD0_write+0x16a>
    1ca8:	e0 91 41 02 	lds	r30, 0x0241	; 0x800241 <lcd0_PORT>
    1cac:	f0 91 42 02 	lds	r31, 0x0242	; 0x800242 <lcd0_PORT+0x1>
    1cb0:	80 81       	ld	r24, Z
    1cb2:	80 61       	ori	r24, 0x10	; 16
    1cb4:	80 83       	st	Z, r24
    1cb6:	07 c0       	rjmp	.+14     	; 0x1cc6 <LCD0_write+0x178>
    1cb8:	e0 91 41 02 	lds	r30, 0x0241	; 0x800241 <lcd0_PORT>
    1cbc:	f0 91 42 02 	lds	r31, 0x0242	; 0x800242 <lcd0_PORT+0x1>
    1cc0:	80 81       	ld	r24, Z
    1cc2:	8f 7e       	andi	r24, 0xEF	; 239
    1cc4:	80 83       	st	Z, r24
    1cc6:	e0 91 41 02 	lds	r30, 0x0241	; 0x800241 <lcd0_PORT>
    1cca:	f0 91 42 02 	lds	r31, 0x0242	; 0x800242 <lcd0_PORT+0x1>
    1cce:	80 81       	ld	r24, Z
    1cd0:	8b 7f       	andi	r24, 0xFB	; 251
    1cd2:	80 83       	st	Z, r24
    1cd4:	08 95       	ret

00001cd6 <LCD0_read>:
    1cd6:	e0 91 3e 02 	lds	r30, 0x023E	; 0x80023e <lcd0_DDR>
    1cda:	f0 91 3f 02 	lds	r31, 0x023F	; 0x80023f <lcd0_DDR+0x1>
    1cde:	20 81       	ld	r18, Z
    1ce0:	2f 70       	andi	r18, 0x0F	; 15
    1ce2:	20 83       	st	Z, r18
    1ce4:	e0 91 41 02 	lds	r30, 0x0241	; 0x800241 <lcd0_PORT>
    1ce8:	f0 91 42 02 	lds	r31, 0x0242	; 0x800242 <lcd0_PORT+0x1>
    1cec:	20 81       	ld	r18, Z
    1cee:	20 6f       	ori	r18, 0xF0	; 240
    1cf0:	20 83       	st	Z, r18
    1cf2:	e0 91 41 02 	lds	r30, 0x0241	; 0x800241 <lcd0_PORT>
    1cf6:	f0 91 42 02 	lds	r31, 0x0242	; 0x800242 <lcd0_PORT+0x1>
    1cfa:	20 81       	ld	r18, Z
    1cfc:	22 60       	ori	r18, 0x02	; 2
    1cfe:	20 83       	st	Z, r18
    1d00:	89 2b       	or	r24, r25
    1d02:	41 f0       	breq	.+16     	; 0x1d14 <LCD0_read+0x3e>
    1d04:	e0 91 41 02 	lds	r30, 0x0241	; 0x800241 <lcd0_PORT>
    1d08:	f0 91 42 02 	lds	r31, 0x0242	; 0x800242 <lcd0_PORT+0x1>
    1d0c:	80 81       	ld	r24, Z
    1d0e:	81 60       	ori	r24, 0x01	; 1
    1d10:	80 83       	st	Z, r24
    1d12:	07 c0       	rjmp	.+14     	; 0x1d22 <LCD0_read+0x4c>
    1d14:	e0 91 41 02 	lds	r30, 0x0241	; 0x800241 <lcd0_PORT>
    1d18:	f0 91 42 02 	lds	r31, 0x0242	; 0x800242 <lcd0_PORT+0x1>
    1d1c:	80 81       	ld	r24, Z
    1d1e:	8e 7f       	andi	r24, 0xFE	; 254
    1d20:	80 83       	st	Z, r24
    1d22:	e0 91 41 02 	lds	r30, 0x0241	; 0x800241 <lcd0_PORT>
    1d26:	f0 91 42 02 	lds	r31, 0x0242	; 0x800242 <lcd0_PORT+0x1>
    1d2a:	80 81       	ld	r24, Z
    1d2c:	84 60       	ori	r24, 0x04	; 4
    1d2e:	80 83       	st	Z, r24
    1d30:	e0 91 37 02 	lds	r30, 0x0237	; 0x800237 <lcd0_PIN>
    1d34:	f0 91 38 02 	lds	r31, 0x0238	; 0x800238 <lcd0_PIN+0x1>
    1d38:	80 81       	ld	r24, Z
    1d3a:	88 23       	and	r24, r24
    1d3c:	14 f0       	brlt	.+4      	; 0x1d42 <LCD0_read+0x6c>
    1d3e:	80 e0       	ldi	r24, 0x00	; 0
    1d40:	01 c0       	rjmp	.+2      	; 0x1d44 <LCD0_read+0x6e>
    1d42:	80 e8       	ldi	r24, 0x80	; 128
    1d44:	90 81       	ld	r25, Z
    1d46:	96 ff       	sbrs	r25, 6
    1d48:	02 c0       	rjmp	.+4      	; 0x1d4e <LCD0_read+0x78>
    1d4a:	80 64       	ori	r24, 0x40	; 64
    1d4c:	01 c0       	rjmp	.+2      	; 0x1d50 <LCD0_read+0x7a>
    1d4e:	8f 7b       	andi	r24, 0xBF	; 191
    1d50:	90 81       	ld	r25, Z
    1d52:	95 ff       	sbrs	r25, 5
    1d54:	02 c0       	rjmp	.+4      	; 0x1d5a <LCD0_read+0x84>
    1d56:	80 62       	ori	r24, 0x20	; 32
    1d58:	01 c0       	rjmp	.+2      	; 0x1d5c <LCD0_read+0x86>
    1d5a:	8f 7d       	andi	r24, 0xDF	; 223
    1d5c:	90 81       	ld	r25, Z
    1d5e:	94 ff       	sbrs	r25, 4
    1d60:	02 c0       	rjmp	.+4      	; 0x1d66 <LCD0_read+0x90>
    1d62:	80 61       	ori	r24, 0x10	; 16
    1d64:	01 c0       	rjmp	.+2      	; 0x1d68 <LCD0_read+0x92>
    1d66:	8f 7e       	andi	r24, 0xEF	; 239
    1d68:	e0 91 41 02 	lds	r30, 0x0241	; 0x800241 <lcd0_PORT>
    1d6c:	f0 91 42 02 	lds	r31, 0x0242	; 0x800242 <lcd0_PORT+0x1>
    1d70:	90 81       	ld	r25, Z
    1d72:	9b 7f       	andi	r25, 0xFB	; 251
    1d74:	90 83       	st	Z, r25
    1d76:	e0 91 41 02 	lds	r30, 0x0241	; 0x800241 <lcd0_PORT>
    1d7a:	f0 91 42 02 	lds	r31, 0x0242	; 0x800242 <lcd0_PORT+0x1>
    1d7e:	90 81       	ld	r25, Z
    1d80:	94 60       	ori	r25, 0x04	; 4
    1d82:	90 83       	st	Z, r25
    1d84:	e0 91 37 02 	lds	r30, 0x0237	; 0x800237 <lcd0_PIN>
    1d88:	f0 91 38 02 	lds	r31, 0x0238	; 0x800238 <lcd0_PIN+0x1>
    1d8c:	90 81       	ld	r25, Z
    1d8e:	99 23       	and	r25, r25
    1d90:	14 f4       	brge	.+4      	; 0x1d96 <LCD0_read+0xc0>
    1d92:	88 60       	ori	r24, 0x08	; 8
    1d94:	01 c0       	rjmp	.+2      	; 0x1d98 <LCD0_read+0xc2>
    1d96:	87 7f       	andi	r24, 0xF7	; 247
    1d98:	90 81       	ld	r25, Z
    1d9a:	96 ff       	sbrs	r25, 6
    1d9c:	02 c0       	rjmp	.+4      	; 0x1da2 <LCD0_read+0xcc>
    1d9e:	84 60       	ori	r24, 0x04	; 4
    1da0:	01 c0       	rjmp	.+2      	; 0x1da4 <LCD0_read+0xce>
    1da2:	8b 7f       	andi	r24, 0xFB	; 251
    1da4:	90 81       	ld	r25, Z
    1da6:	95 ff       	sbrs	r25, 5
    1da8:	02 c0       	rjmp	.+4      	; 0x1dae <LCD0_read+0xd8>
    1daa:	82 60       	ori	r24, 0x02	; 2
    1dac:	01 c0       	rjmp	.+2      	; 0x1db0 <LCD0_read+0xda>
    1dae:	8d 7f       	andi	r24, 0xFD	; 253
    1db0:	90 81       	ld	r25, Z
    1db2:	94 ff       	sbrs	r25, 4
    1db4:	02 c0       	rjmp	.+4      	; 0x1dba <LCD0_read+0xe4>
    1db6:	81 60       	ori	r24, 0x01	; 1
    1db8:	01 c0       	rjmp	.+2      	; 0x1dbc <LCD0_read+0xe6>
    1dba:	8e 7f       	andi	r24, 0xFE	; 254
    1dbc:	e0 91 41 02 	lds	r30, 0x0241	; 0x800241 <lcd0_PORT>
    1dc0:	f0 91 42 02 	lds	r31, 0x0242	; 0x800242 <lcd0_PORT+0x1>
    1dc4:	90 81       	ld	r25, Z
    1dc6:	9b 7f       	andi	r25, 0xFB	; 251
    1dc8:	90 83       	st	Z, r25
    1dca:	08 95       	ret

00001dcc <LCD0_BF>:
    1dcc:	cf 93       	push	r28
    1dce:	df 93       	push	r29
    1dd0:	80 e0       	ldi	r24, 0x00	; 0
    1dd2:	90 e0       	ldi	r25, 0x00	; 0
    1dd4:	80 df       	rcall	.-256    	; 0x1cd6 <LCD0_read>
    1dd6:	cb e0       	ldi	r28, 0x0B	; 11
    1dd8:	d0 e0       	ldi	r29, 0x00	; 0
    1dda:	05 c0       	rjmp	.+10     	; 0x1de6 <LCD0_BF+0x1a>
    1ddc:	80 e0       	ldi	r24, 0x00	; 0
    1dde:	90 e0       	ldi	r25, 0x00	; 0
    1de0:	7a df       	rcall	.-268    	; 0x1cd6 <LCD0_read>
    1de2:	21 97       	sbiw	r28, 0x01	; 1
    1de4:	11 f0       	breq	.+4      	; 0x1dea <LCD0_BF+0x1e>
    1de6:	88 23       	and	r24, r24
    1de8:	cc f3       	brlt	.-14     	; 0x1ddc <LCD0_BF+0x10>
    1dea:	df 91       	pop	r29
    1dec:	cf 91       	pop	r28
    1dee:	08 95       	ret

00001df0 <LCD0_putch>:
    1df0:	61 e0       	ldi	r22, 0x01	; 1
    1df2:	70 e0       	ldi	r23, 0x00	; 0
    1df4:	ac de       	rcall	.-680    	; 0x1b4e <LCD0_write>
    1df6:	ea cf       	rjmp	.-44     	; 0x1dcc <LCD0_BF>
    1df8:	08 95       	ret

00001dfa <LCD0_getch>:
    1dfa:	cf 93       	push	r28
    1dfc:	81 e0       	ldi	r24, 0x01	; 1
    1dfe:	90 e0       	ldi	r25, 0x00	; 0
    1e00:	6a df       	rcall	.-300    	; 0x1cd6 <LCD0_read>
    1e02:	c8 2f       	mov	r28, r24
    1e04:	e3 df       	rcall	.-58     	; 0x1dcc <LCD0_BF>
    1e06:	8c 2f       	mov	r24, r28
    1e08:	cf 91       	pop	r28
    1e0a:	08 95       	ret

00001e0c <LCD0_string>:
    1e0c:	cf 93       	push	r28
    1e0e:	df 93       	push	r29
    1e10:	ec 01       	movw	r28, r24
    1e12:	88 81       	ld	r24, Y
    1e14:	88 23       	and	r24, r24
    1e16:	41 f0       	breq	.+16     	; 0x1e28 <LCD0_string+0x1c>
    1e18:	21 96       	adiw	r28, 0x01	; 1
    1e1a:	61 e0       	ldi	r22, 0x01	; 1
    1e1c:	70 e0       	ldi	r23, 0x00	; 0
    1e1e:	97 de       	rcall	.-722    	; 0x1b4e <LCD0_write>
    1e20:	d5 df       	rcall	.-86     	; 0x1dcc <LCD0_BF>
    1e22:	89 91       	ld	r24, Y+
    1e24:	81 11       	cpse	r24, r1
    1e26:	f9 cf       	rjmp	.-14     	; 0x1e1a <LCD0_string+0xe>
    1e28:	df 91       	pop	r29
    1e2a:	cf 91       	pop	r28
    1e2c:	08 95       	ret

00001e2e <LCD0_string_size>:
    1e2e:	0f 93       	push	r16
    1e30:	1f 93       	push	r17
    1e32:	cf 93       	push	r28
    1e34:	df 93       	push	r29
    1e36:	fc 01       	movw	r30, r24
    1e38:	d6 2f       	mov	r29, r22
    1e3a:	80 81       	ld	r24, Z
    1e3c:	88 23       	and	r24, r24
    1e3e:	51 f0       	breq	.+20     	; 0x1e54 <LCD0_string_size+0x26>
    1e40:	8f 01       	movw	r16, r30
    1e42:	0f 5f       	subi	r16, 0xFF	; 255
    1e44:	1f 4f       	sbci	r17, 0xFF	; 255
    1e46:	61 11       	cpse	r22, r1
    1e48:	09 c0       	rjmp	.+18     	; 0x1e5c <LCD0_string_size+0x2e>
    1e4a:	1b c0       	rjmp	.+54     	; 0x1e82 <LCD0_string_size+0x54>
    1e4c:	cf 5f       	subi	r28, 0xFF	; 255
    1e4e:	dc 17       	cp	r29, r28
    1e50:	30 f4       	brcc	.+12     	; 0x1e5e <LCD0_string_size+0x30>
    1e52:	01 c0       	rjmp	.+2      	; 0x1e56 <LCD0_string_size+0x28>
    1e54:	c0 e0       	ldi	r28, 0x00	; 0
    1e56:	cd 17       	cp	r28, r29
    1e58:	60 f0       	brcs	.+24     	; 0x1e72 <LCD0_string_size+0x44>
    1e5a:	13 c0       	rjmp	.+38     	; 0x1e82 <LCD0_string_size+0x54>
    1e5c:	c1 e0       	ldi	r28, 0x01	; 1
    1e5e:	61 e0       	ldi	r22, 0x01	; 1
    1e60:	70 e0       	ldi	r23, 0x00	; 0
    1e62:	75 de       	rcall	.-790    	; 0x1b4e <LCD0_write>
    1e64:	b3 df       	rcall	.-154    	; 0x1dcc <LCD0_BF>
    1e66:	f8 01       	movw	r30, r16
    1e68:	81 91       	ld	r24, Z+
    1e6a:	8f 01       	movw	r16, r30
    1e6c:	81 11       	cpse	r24, r1
    1e6e:	ee cf       	rjmp	.-36     	; 0x1e4c <LCD0_string_size+0x1e>
    1e70:	f2 cf       	rjmp	.-28     	; 0x1e56 <LCD0_string_size+0x28>
    1e72:	cf 5f       	subi	r28, 0xFF	; 255
    1e74:	61 e0       	ldi	r22, 0x01	; 1
    1e76:	70 e0       	ldi	r23, 0x00	; 0
    1e78:	80 e2       	ldi	r24, 0x20	; 32
    1e7a:	69 de       	rcall	.-814    	; 0x1b4e <LCD0_write>
    1e7c:	a7 df       	rcall	.-178    	; 0x1dcc <LCD0_BF>
    1e7e:	cd 17       	cp	r28, r29
    1e80:	c0 f3       	brcs	.-16     	; 0x1e72 <LCD0_string_size+0x44>
    1e82:	df 91       	pop	r29
    1e84:	cf 91       	pop	r28
    1e86:	1f 91       	pop	r17
    1e88:	0f 91       	pop	r16
    1e8a:	08 95       	ret

00001e8c <LCD0_hspace>:
    1e8c:	cf 93       	push	r28
    1e8e:	c8 2f       	mov	r28, r24
    1e90:	88 23       	and	r24, r24
    1e92:	39 f0       	breq	.+14     	; 0x1ea2 <LCD0_hspace+0x16>
    1e94:	61 e0       	ldi	r22, 0x01	; 1
    1e96:	70 e0       	ldi	r23, 0x00	; 0
    1e98:	80 e2       	ldi	r24, 0x20	; 32
    1e9a:	59 de       	rcall	.-846    	; 0x1b4e <LCD0_write>
    1e9c:	97 df       	rcall	.-210    	; 0x1dcc <LCD0_BF>
    1e9e:	c1 50       	subi	r28, 0x01	; 1
    1ea0:	c9 f7       	brne	.-14     	; 0x1e94 <LCD0_hspace+0x8>
    1ea2:	cf 91       	pop	r28
    1ea4:	08 95       	ret

00001ea6 <LCD0_gotoxy>:
    1ea6:	26 2f       	mov	r18, r22
    1ea8:	81 30       	cpi	r24, 0x01	; 1
    1eaa:	91 05       	cpc	r25, r1
    1eac:	71 f0       	breq	.+28     	; 0x1eca <LCD0_gotoxy+0x24>
    1eae:	30 f0       	brcs	.+12     	; 0x1ebc <LCD0_gotoxy+0x16>
    1eb0:	82 30       	cpi	r24, 0x02	; 2
    1eb2:	91 05       	cpc	r25, r1
    1eb4:	89 f0       	breq	.+34     	; 0x1ed8 <LCD0_gotoxy+0x32>
    1eb6:	03 97       	sbiw	r24, 0x03	; 3
    1eb8:	b1 f0       	breq	.+44     	; 0x1ee6 <LCD0_gotoxy+0x40>
    1eba:	08 95       	ret
    1ebc:	60 e0       	ldi	r22, 0x00	; 0
    1ebe:	70 e0       	ldi	r23, 0x00	; 0
    1ec0:	80 e8       	ldi	r24, 0x80	; 128
    1ec2:	82 0f       	add	r24, r18
    1ec4:	44 de       	rcall	.-888    	; 0x1b4e <LCD0_write>
    1ec6:	82 cf       	rjmp	.-252    	; 0x1dcc <LCD0_BF>
    1ec8:	08 95       	ret
    1eca:	60 e0       	ldi	r22, 0x00	; 0
    1ecc:	70 e0       	ldi	r23, 0x00	; 0
    1ece:	80 ec       	ldi	r24, 0xC0	; 192
    1ed0:	82 0f       	add	r24, r18
    1ed2:	3d de       	rcall	.-902    	; 0x1b4e <LCD0_write>
    1ed4:	7b cf       	rjmp	.-266    	; 0x1dcc <LCD0_BF>
    1ed6:	08 95       	ret
    1ed8:	60 e0       	ldi	r22, 0x00	; 0
    1eda:	70 e0       	ldi	r23, 0x00	; 0
    1edc:	84 e9       	ldi	r24, 0x94	; 148
    1ede:	82 0f       	add	r24, r18
    1ee0:	36 de       	rcall	.-916    	; 0x1b4e <LCD0_write>
    1ee2:	74 cf       	rjmp	.-280    	; 0x1dcc <LCD0_BF>
    1ee4:	08 95       	ret
    1ee6:	60 e0       	ldi	r22, 0x00	; 0
    1ee8:	70 e0       	ldi	r23, 0x00	; 0
    1eea:	84 ed       	ldi	r24, 0xD4	; 212
    1eec:	82 0f       	add	r24, r18
    1eee:	2f de       	rcall	.-930    	; 0x1b4e <LCD0_write>
    1ef0:	6d cf       	rjmp	.-294    	; 0x1dcc <LCD0_BF>
    1ef2:	08 95       	ret

00001ef4 <LCD0_clear>:
    1ef4:	60 e0       	ldi	r22, 0x00	; 0
    1ef6:	70 e0       	ldi	r23, 0x00	; 0
    1ef8:	81 e0       	ldi	r24, 0x01	; 1
    1efa:	29 de       	rcall	.-942    	; 0x1b4e <LCD0_write>
    1efc:	87 ee       	ldi	r24, 0xE7	; 231
    1efe:	97 e1       	ldi	r25, 0x17	; 23
    1f00:	01 97       	sbiw	r24, 0x01	; 1
    1f02:	f1 f7       	brne	.-4      	; 0x1f00 <LCD0_clear+0xc>
    1f04:	00 c0       	rjmp	.+0      	; 0x1f06 <LCD0_clear+0x12>
    1f06:	00 00       	nop
    1f08:	08 95       	ret

00001f0a <LCD0_inic>:
	return lcd0;
}
void LCD0_inic(void)
{
	//LCD INIC
	*lcd0_DDR=(1<<RS)|(1<<RW)|(1<<EN)|(0<<NC);
    1f0a:	e0 91 3e 02 	lds	r30, 0x023E	; 0x80023e <lcd0_DDR>
    1f0e:	f0 91 3f 02 	lds	r31, 0x023F	; 0x80023f <lcd0_DDR+0x1>
    1f12:	87 e0       	ldi	r24, 0x07	; 7
    1f14:	80 83       	st	Z, r24
	*lcd0_PORT=(1<<NC);
    1f16:	e0 91 41 02 	lds	r30, 0x0241	; 0x800241 <lcd0_PORT>
    1f1a:	f0 91 42 02 	lds	r31, 0x0242	; 0x800242 <lcd0_PORT+0x1>
    1f1e:	88 e0       	ldi	r24, 0x08	; 8
    1f20:	80 83       	st	Z, r24
    1f22:	2f ef       	ldi	r18, 0xFF	; 255
    1f24:	83 ef       	ldi	r24, 0xF3	; 243
    1f26:	91 e0       	ldi	r25, 0x01	; 1
    1f28:	21 50       	subi	r18, 0x01	; 1
    1f2a:	80 40       	sbci	r24, 0x00	; 0
    1f2c:	90 40       	sbci	r25, 0x00	; 0
    1f2e:	e1 f7       	brne	.-8      	; 0x1f28 <LCD0_inic+0x1e>
    1f30:	00 c0       	rjmp	.+0      	; 0x1f32 <LCD0_inic+0x28>
    1f32:	00 00       	nop
	/***INICIALIZACAO LCD**datasheet*/
	_delay_ms(40);
	LCD0_write(0x33,INST); //function set
    1f34:	60 e0       	ldi	r22, 0x00	; 0
    1f36:	70 e0       	ldi	r23, 0x00	; 0
    1f38:	83 e3       	ldi	r24, 0x33	; 51
    1f3a:	09 de       	rcall	.-1006   	; 0x1b4e <LCD0_write>
	#else
		//round up by default
		__ticks_dc = (uint32_t)(ceil(fabs(__tmp)));
	#endif

	__builtin_avr_delay_cycles(__ticks_dc);
    1f3c:	20 ed       	ldi	r18, 0xD0	; 208
    1f3e:	2a 95       	dec	r18
    1f40:	f1 f7       	brne	.-4      	; 0x1f3e <LCD0_inic+0x34>
	_delay_us(39);
	LCD0_write(0x33,INST); //function set
    1f42:	60 e0       	ldi	r22, 0x00	; 0
    1f44:	70 e0       	ldi	r23, 0x00	; 0
    1f46:	83 e3       	ldi	r24, 0x33	; 51
    1f48:	02 de       	rcall	.-1020   	; 0x1b4e <LCD0_write>
    1f4a:	80 ed       	ldi	r24, 0xD0	; 208
    1f4c:	8a 95       	dec	r24
    1f4e:	f1 f7       	brne	.-4      	; 0x1f4c <LCD0_inic+0x42>
	_delay_us(39);
	LCD0_write(0x2B,INST); //function set
    1f50:	60 e0       	ldi	r22, 0x00	; 0
    1f52:	70 e0       	ldi	r23, 0x00	; 0
    1f54:	8b e2       	ldi	r24, 0x2B	; 43
    1f56:	fb dd       	rcall	.-1034   	; 0x1b4e <LCD0_write>
    1f58:	95 ec       	ldi	r25, 0xC5	; 197
    1f5a:	9a 95       	dec	r25
    1f5c:	f1 f7       	brne	.-4      	; 0x1f5a <LCD0_inic+0x50>
    1f5e:	00 00       	nop
	_delay_us(37);
	LCD0_write(0x0C,INST);// display on/off control
    1f60:	60 e0       	ldi	r22, 0x00	; 0
    1f62:	70 e0       	ldi	r23, 0x00	; 0
    1f64:	8c e0       	ldi	r24, 0x0C	; 12
    1f66:	f3 dd       	rcall	.-1050   	; 0x1b4e <LCD0_write>
    1f68:	25 ec       	ldi	r18, 0xC5	; 197
    1f6a:	2a 95       	dec	r18
    1f6c:	f1 f7       	brne	.-4      	; 0x1f6a <LCD0_inic+0x60>
	_delay_us(37);
	LCD0_write(0x01,INST);// clear display
    1f6e:	00 00       	nop
    1f70:	60 e0       	ldi	r22, 0x00	; 0
    1f72:	70 e0       	ldi	r23, 0x00	; 0
    1f74:	81 e0       	ldi	r24, 0x01	; 1
    1f76:	eb dd       	rcall	.-1066   	; 0x1b4e <LCD0_write>
	#else
		//round up by default
		__ticks_dc = (uint32_t)(ceil(fabs(__tmp)));
	#endif

	__builtin_avr_delay_cycles(__ticks_dc);
    1f78:	87 ee       	ldi	r24, 0xE7	; 231
    1f7a:	97 e1       	ldi	r25, 0x17	; 23
    1f7c:	01 97       	sbiw	r24, 0x01	; 1
    1f7e:	f1 f7       	brne	.-4      	; 0x1f7c <LCD0_inic+0x72>
    1f80:	00 c0       	rjmp	.+0      	; 0x1f82 <LCD0_inic+0x78>
	_delay_ms(1.53);
	LCD0_write(0x06,INST);// entry mode set (crazy settings)
    1f82:	00 00       	nop
    1f84:	60 e0       	ldi	r22, 0x00	; 0
    1f86:	70 e0       	ldi	r23, 0x00	; 0
    1f88:	86 e0       	ldi	r24, 0x06	; 6
    1f8a:	e1 dd       	rcall	.-1086   	; 0x1b4e <LCD0_write>
	#else
		//round up by default
		__ticks_dc = (uint32_t)(ceil(fabs(__tmp)));
	#endif

	__builtin_avr_delay_cycles(__ticks_dc);
    1f8c:	95 ec       	ldi	r25, 0xC5	; 197
    1f8e:	9a 95       	dec	r25
    1f90:	f1 f7       	brne	.-4      	; 0x1f8e <LCD0_inic+0x84>
    1f92:	00 00       	nop
    1f94:	08 95       	ret

00001f96 <LCD0enable>:
unsigned int LCD_ticks(unsigned int num);
/*
** procedure and function
*/
LCD0 LCD0enable(volatile uint8_t *ddr, volatile uint8_t *pin, volatile uint8_t *port)
{
    1f96:	1f 93       	push	r17
    1f98:	cf 93       	push	r28
    1f9a:	df 93       	push	r29
    1f9c:	ec 01       	movw	r28, r24
	//LOCAL VARIABLES
	uint8_t tSREG;
	tSREG=SREG;
    1f9e:	1f b7       	in	r17, 0x3f	; 63
	SREG&=~(1<<GLOBAL_INTERRUPT_ENABLE);
    1fa0:	8f b7       	in	r24, 0x3f	; 63
    1fa2:	8f 77       	andi	r24, 0x7F	; 127
    1fa4:	8f bf       	out	0x3f, r24	; 63
	//ALLOCAO MEMORIA PARA Estrutura
	LCD0 lcd0;
	//import parametros
	lcd0_DDR=ddr;
    1fa6:	70 93 3f 02 	sts	0x023F, r23	; 0x80023f <lcd0_DDR+0x1>
    1faa:	60 93 3e 02 	sts	0x023E, r22	; 0x80023e <lcd0_DDR>
	lcd0_PIN=pin;
    1fae:	50 93 38 02 	sts	0x0238, r21	; 0x800238 <lcd0_PIN+0x1>
    1fb2:	40 93 37 02 	sts	0x0237, r20	; 0x800237 <lcd0_PIN>
	lcd0_PORT=port;
    1fb6:	30 93 42 02 	sts	0x0242, r19	; 0x800242 <lcd0_PORT+0x1>
    1fba:	20 93 41 02 	sts	0x0241, r18	; 0x800241 <lcd0_PORT>
	//inic variables
	*lcd0_DDR=0x00;
    1fbe:	fb 01       	movw	r30, r22
    1fc0:	10 82       	st	Z, r1
	*lcd0_PORT=0xFF;
    1fc2:	e0 91 41 02 	lds	r30, 0x0241	; 0x800241 <lcd0_PORT>
    1fc6:	f0 91 42 02 	lds	r31, 0x0242	; 0x800242 <lcd0_PORT+0x1>
    1fca:	8f ef       	ldi	r24, 0xFF	; 255
    1fcc:	80 83       	st	Z, r24
	lcd0_detect=*lcd0_PIN & (1<<NC);
    1fce:	e0 91 37 02 	lds	r30, 0x0237	; 0x800237 <lcd0_PIN>
    1fd2:	f0 91 38 02 	lds	r31, 0x0238	; 0x800238 <lcd0_PIN+0x1>
    1fd6:	80 81       	ld	r24, Z
    1fd8:	88 70       	andi	r24, 0x08	; 8
    1fda:	80 93 40 02 	sts	0x0240, r24	; 0x800240 <lcd0_detect>
	lcd0.hspace=LCD0_hspace;
	lcd0.clear=LCD0_clear;
	lcd0.gotoxy=LCD0_gotoxy;
	lcd0.reboot=LCD0_reboot;
	//LCD INIC
	LCD0_inic();
    1fde:	95 df       	rcall	.-214    	; 0x1f0a <LCD0_inic>
	SREG=tSREG;
    1fe0:	1f bf       	out	0x3f, r17	; 63
	//
	return lcd0;
    1fe2:	87 ea       	ldi	r24, 0xA7	; 167
    1fe4:	9d e0       	ldi	r25, 0x0D	; 13
    1fe6:	99 83       	std	Y+1, r25	; 0x01
    1fe8:	88 83       	st	Y, r24
    1fea:	8b e6       	ldi	r24, 0x6B	; 107
    1fec:	9e e0       	ldi	r25, 0x0E	; 14
    1fee:	9b 83       	std	Y+3, r25	; 0x03
    1ff0:	8a 83       	std	Y+2, r24	; 0x02
    1ff2:	86 ee       	ldi	r24, 0xE6	; 230
    1ff4:	9e e0       	ldi	r25, 0x0E	; 14
    1ff6:	9d 83       	std	Y+5, r25	; 0x05
    1ff8:	8c 83       	std	Y+4, r24	; 0x04
    1ffa:	88 ef       	ldi	r24, 0xF8	; 248
    1ffc:	9e e0       	ldi	r25, 0x0E	; 14
    1ffe:	9f 83       	std	Y+7, r25	; 0x07
    2000:	8e 83       	std	Y+6, r24	; 0x06
    2002:	8d ef       	ldi	r24, 0xFD	; 253
    2004:	9e e0       	ldi	r25, 0x0E	; 14
    2006:	99 87       	std	Y+9, r25	; 0x09
    2008:	88 87       	std	Y+8, r24	; 0x08
    200a:	86 e0       	ldi	r24, 0x06	; 6
    200c:	9f e0       	ldi	r25, 0x0F	; 15
    200e:	9b 87       	std	Y+11, r25	; 0x0b
    2010:	8a 87       	std	Y+10, r24	; 0x0a
    2012:	87 e1       	ldi	r24, 0x17	; 23
    2014:	9f e0       	ldi	r25, 0x0F	; 15
    2016:	9d 87       	std	Y+13, r25	; 0x0d
    2018:	8c 87       	std	Y+12, r24	; 0x0c
    201a:	86 e4       	ldi	r24, 0x46	; 70
    201c:	9f e0       	ldi	r25, 0x0F	; 15
    201e:	9f 87       	std	Y+15, r25	; 0x0f
    2020:	8e 87       	std	Y+14, r24	; 0x0e
    2022:	8a e7       	ldi	r24, 0x7A	; 122
    2024:	9f e0       	ldi	r25, 0x0F	; 15
    2026:	99 8b       	std	Y+17, r25	; 0x11
    2028:	88 8b       	std	Y+16, r24	; 0x10
    202a:	83 e5       	ldi	r24, 0x53	; 83
    202c:	9f e0       	ldi	r25, 0x0F	; 15
    202e:	9b 8b       	std	Y+19, r25	; 0x13
    2030:	8a 8b       	std	Y+18, r24	; 0x12
    2032:	82 e2       	ldi	r24, 0x22	; 34
    2034:	90 e1       	ldi	r25, 0x10	; 16
    2036:	9d 8b       	std	Y+21, r25	; 0x15
    2038:	8c 8b       	std	Y+20, r24	; 0x14
}
    203a:	ce 01       	movw	r24, r28
    203c:	df 91       	pop	r29
    203e:	cf 91       	pop	r28
    2040:	1f 91       	pop	r17
    2042:	08 95       	ret

00002044 <LCD0_reboot>:
	*lcd0_PORT|=(1<<EN);
	LCD_ticks(num);
	*lcd0_PORT&=~(1<<EN);
}
void LCD0_reboot(void)
{
    2044:	cf 93       	push	r28
	//low high detect pin NC
	uint8_t i;
	uint8_t tmp;
	tmp=*lcd0_PIN & (1<<NC);
    2046:	e0 91 37 02 	lds	r30, 0x0237	; 0x800237 <lcd0_PIN>
    204a:	f0 91 38 02 	lds	r31, 0x0238	; 0x800238 <lcd0_PIN+0x1>
    204e:	c0 81       	ld	r28, Z
    2050:	c8 70       	andi	r28, 0x08	; 8
	i=tmp^lcd0_detect;
    2052:	80 91 40 02 	lds	r24, 0x0240	; 0x800240 <lcd0_detect>
    2056:	8c 27       	eor	r24, r28
	i&=tmp;
	if(i)
    2058:	8c 23       	and	r24, r28
    205a:	09 f0       	breq	.+2      	; 0x205e <LCD0_reboot+0x1a>
		LCD0_inic();
    205c:	56 df       	rcall	.-340    	; 0x1f0a <LCD0_inic>
	lcd0_detect=tmp;
    205e:	c0 93 40 02 	sts	0x0240, r28	; 0x800240 <lcd0_detect>
}
    2062:	cf 91       	pop	r28
    2064:	08 95       	ret

00002066 <PORTINIT>:
** procedure and function
*/
void PORTINIT()
{
	//INPUT
	DDRF=0x00;
    2066:	10 92 61 00 	sts	0x0061, r1	; 0x800061 <__TEXT_REGION_LENGTH__+0x7e0061>
	PORTF=0x0F;
    206a:	8f e0       	ldi	r24, 0x0F	; 15
    206c:	80 93 62 00 	sts	0x0062, r24	; 0x800062 <__TEXT_REGION_LENGTH__+0x7e0062>
	DDRE=0X00;
    2070:	12 b8       	out	0x02, r1	; 2
	PORTE=0XFF;
    2072:	8f ef       	ldi	r24, 0xFF	; 255
    2074:	83 b9       	out	0x03, r24	; 3
	DDRD=0X00;
    2076:	11 ba       	out	0x11, r1	; 17
	PORTD=0XFF;
    2078:	82 bb       	out	0x12, r24	; 18
	//OUTPUT
	DDRC=0XFF;
    207a:	84 bb       	out	0x14, r24	; 20
	PORTC=0x00;
    207c:	15 ba       	out	0x15, r1	; 21
	DDRB|=(1<<5) | (1<<6) | (1<<7);
    207e:	87 b3       	in	r24, 0x17	; 23
    2080:	80 6e       	ori	r24, 0xE0	; 224
    2082:	87 bb       	out	0x17, r24	; 23
	//UART0
	//DDRE=0X02;
	SREG|=(1<<GI);
    2084:	8f b7       	in	r24, 0x3f	; 63
    2086:	80 68       	ori	r24, 0x80	; 128
    2088:	8f bf       	out	0x3f, r24	; 63
    208a:	08 95       	ret

0000208c <main>:
** procedure and function header
*/
void PORTINIT();
/****MAIN****/
int main(void)
{
    208c:	cf 93       	push	r28
    208e:	df 93       	push	r29
    2090:	cd b7       	in	r28, 0x3d	; 61
    2092:	de b7       	in	r29, 0x3e	; 62
    2094:	c6 5b       	subi	r28, 0xB6	; 182
    2096:	d1 09       	sbc	r29, r1
    2098:	0f b6       	in	r0, 0x3f	; 63
    209a:	f8 94       	cli
    209c:	de bf       	out	0x3e, r29	; 62
    209e:	0f be       	out	0x3f, r0	; 63
    20a0:	cd bf       	out	0x3d, r28	; 61
	PORTINIT();
    20a2:	e1 df       	rcall	.-62     	; 0x2066 <PORTINIT>
	/***INICIALIZE OBJECTS***/
	FUNC function= FUNCenable();
    20a4:	ce 01       	movw	r24, r28
    20a6:	4f 96       	adiw	r24, 0x1f	; 31
    20a8:	ed da       	rcall	.-2598   	; 0x1684 <FUNCenable>
	LCD0 lcd0 = LCD0enable(&DDRA,&PINA,&PORTA);
    20aa:	2b e3       	ldi	r18, 0x3B	; 59
    20ac:	30 e0       	ldi	r19, 0x00	; 0
    20ae:	49 e3       	ldi	r20, 0x39	; 57
    20b0:	50 e0       	ldi	r21, 0x00	; 0
    20b2:	6a e3       	ldi	r22, 0x3A	; 58
    20b4:	70 e0       	ldi	r23, 0x00	; 0
    20b6:	ce 01       	movw	r24, r28
    20b8:	87 59       	subi	r24, 0x97	; 151
    20ba:	9f 4f       	sbci	r25, 0xFF	; 255
    20bc:	6c df       	rcall	.-296    	; 0x1f96 <LCD0enable>
    20be:	e7 96       	adiw	r28, 0x37	; 55
    20c0:	8e ad       	ldd	r24, Y+62	; 0x3e
    20c2:	9f ad       	ldd	r25, Y+63	; 0x3f
    20c4:	e7 97       	sbiw	r28, 0x37	; 55
    20c6:	cd 54       	subi	r28, 0x4D	; 77
    20c8:	df 4f       	sbci	r29, 0xFF	; 255
    20ca:	99 83       	std	Y+1, r25	; 0x01
    20cc:	88 83       	st	Y, r24
    20ce:	c3 5b       	subi	r28, 0xB3	; 179
    20d0:	d0 40       	sbci	r29, 0x00	; 0
    20d2:	ed 96       	adiw	r28, 0x3d	; 61
    20d4:	2e ac       	ldd	r2, Y+62	; 0x3e
    20d6:	3f ac       	ldd	r3, Y+63	; 0x3f
    20d8:	ed 97       	sbiw	r28, 0x3d	; 61
	KEYPAD keypad = KEYPADenable(&DDRE,&PINE,&PORTE);
    20da:	43 e2       	ldi	r20, 0x23	; 35
    20dc:	50 e0       	ldi	r21, 0x00	; 0
    20de:	61 e2       	ldi	r22, 0x21	; 33
    20e0:	70 e0       	ldi	r23, 0x00	; 0
    20e2:	82 e2       	ldi	r24, 0x22	; 34
    20e4:	90 e0       	ldi	r25, 0x00	; 0
    20e6:	f7 dc       	rcall	.-1554   	; 0x1ad6 <KEYPADenable>
    20e8:	4c 01       	movw	r8, r24
	ANALOG analog = ANALOGenable(1, 128, 1, 0); // channel 0 for position
    20ea:	1f 92       	push	r1
    20ec:	1f 92       	push	r1
    20ee:	1f 92       	push	r1
    20f0:	81 e0       	ldi	r24, 0x01	; 1
    20f2:	8f 93       	push	r24
    20f4:	90 e8       	ldi	r25, 0x80	; 128
    20f6:	9f 93       	push	r25
    20f8:	8f 93       	push	r24
    20fa:	0e 94 8b 00 	call	0x116	; 0x116 <ANALOGenable>
    20fe:	2b 01       	movw	r4, r22
    2100:	3c 01       	movw	r6, r24
	TIMER_COUNTER0 timer0 = TIMER_COUNTER0enable(2,2); // for clock
    2102:	42 e0       	ldi	r20, 0x02	; 2
    2104:	62 e0       	ldi	r22, 0x02	; 2
    2106:	ce 01       	movw	r24, r28
    2108:	81 58       	subi	r24, 0x81	; 129
    210a:	9f 4f       	sbci	r25, 0xFF	; 255
    210c:	0e 94 a2 02 	call	0x544	; 0x544 <TIMER_COUNTER0enable>
	TIMER_COUNTER1 timer1 = TIMER_COUNTER1enable(9,0); // PWM positioning
    2110:	40 e0       	ldi	r20, 0x00	; 0
    2112:	69 e0       	ldi	r22, 0x09	; 9
    2114:	ce 01       	movw	r24, r28
    2116:	81 57       	subi	r24, 0x71	; 113
    2118:	9f 4f       	sbci	r25, 0xFF	; 255
    211a:	0e 94 e4 02 	call	0x5c8	; 0x5c8 <TIMER_COUNTER1enable>
	//TIMER_COUNTER3 timer3 = TIMER_COUNTER3enable(12,12);
	relogio=CLOCKenable(12,0,0);
    211e:	20 e0       	ldi	r18, 0x00	; 0
    2120:	40 e0       	ldi	r20, 0x00	; 0
    2122:	6c e0       	ldi	r22, 0x0C	; 12
    2124:	ce 01       	movw	r24, r28
    2126:	81 56       	subi	r24, 0x61	; 97
    2128:	9f 4f       	sbci	r25, 0xFF	; 255
    212a:	0e 94 0b 07 	call	0xe16	; 0xe16 <CLOCKenable>
    212e:	84 e1       	ldi	r24, 0x14	; 20
    2130:	fe 01       	movw	r30, r28
    2132:	e1 56       	subi	r30, 0x61	; 97
    2134:	ff 4f       	sbci	r31, 0xFF	; 255
    2136:	a8 e6       	ldi	r26, 0x68	; 104
    2138:	b2 e0       	ldi	r27, 0x02	; 2
    213a:	01 90       	ld	r0, Z+
    213c:	0d 92       	st	X+, r0
    213e:	8a 95       	dec	r24
    2140:	e1 f7       	brne	.-8      	; 0x213a <main+0xae>
	char Menu='1';
	char* str;
	char chr;
	int adcvalue;
	/***Parameters timers***/
	timer0.compare(249);
    2142:	cb 57       	subi	r28, 0x7B	; 123
    2144:	df 4f       	sbci	r29, 0xFF	; 255
    2146:	e8 81       	ld	r30, Y
    2148:	f9 81       	ldd	r31, Y+1	; 0x01
    214a:	c5 58       	subi	r28, 0x85	; 133
    214c:	d0 40       	sbci	r29, 0x00	; 0
    214e:	89 ef       	ldi	r24, 0xF9	; 249
    2150:	09 95       	icall
	timer1.compoutmodeB(2);
    2152:	cf 56       	subi	r28, 0x6F	; 111
    2154:	df 4f       	sbci	r29, 0xFF	; 255
    2156:	e8 81       	ld	r30, Y
    2158:	f9 81       	ldd	r31, Y+1	; 0x01
    215a:	c1 59       	subi	r28, 0x91	; 145
    215c:	d0 40       	sbci	r29, 0x00	; 0
    215e:	82 e0       	ldi	r24, 0x02	; 2
    2160:	09 95       	icall
	timer1.compareA(20000);
    2162:	cb 56       	subi	r28, 0x6B	; 107
    2164:	df 4f       	sbci	r29, 0xFF	; 255
    2166:	e8 81       	ld	r30, Y
    2168:	f9 81       	ldd	r31, Y+1	; 0x01
    216a:	c5 59       	subi	r28, 0x95	; 149
    216c:	d0 40       	sbci	r29, 0x00	; 0
    216e:	80 e2       	ldi	r24, 0x20	; 32
    2170:	9e e4       	ldi	r25, 0x4E	; 78
    2172:	09 95       	icall
	timer1.start(8);
    2174:	c5 56       	subi	r28, 0x65	; 101
    2176:	df 4f       	sbci	r29, 0xFF	; 255
    2178:	e8 81       	ld	r30, Y
    217a:	f9 81       	ldd	r31, Y+1	; 0x01
    217c:	cb 59       	subi	r28, 0x9B	; 155
    217e:	d0 40       	sbci	r29, 0x00	; 0
    2180:	88 e0       	ldi	r24, 0x08	; 8
    2182:	90 e0       	ldi	r25, 0x00	; 0
    2184:	09 95       	icall
	timer0.start(64);
    2186:	c5 57       	subi	r28, 0x75	; 117
    2188:	df 4f       	sbci	r29, 0xFF	; 255
    218a:	e8 81       	ld	r30, Y
    218c:	f9 81       	ldd	r31, Y+1	; 0x01
    218e:	cb 58       	subi	r28, 0x8B	; 139
    2190:	d0 40       	sbci	r29, 0x00	; 0
    2192:	80 e4       	ldi	r24, 0x40	; 64
    2194:	90 e0       	ldi	r25, 0x00	; 0
    2196:	09 95       	icall
    2198:	0f 90       	pop	r0
    219a:	0f 90       	pop	r0
    219c:	0f 90       	pop	r0
    219e:	0f 90       	pop	r0
    21a0:	0f 90       	pop	r0
    21a2:	0f 90       	pop	r0
		if(keypad.get().character==KEYPADENTERKEY && !strcmp(keypad.get().string,"A")){
			lcd0.gotoxy(2,0);
			lcd0.string_size("nothing here",16);
		}
		/***Reading***/
		adcvalue=analog.read(0);
    21a4:	cb 54       	subi	r28, 0x4B	; 75
    21a6:	df 4f       	sbci	r29, 0xFF	; 255
    21a8:	79 82       	std	Y+1, r7	; 0x01
    21aa:	68 82       	st	Y, r6
    21ac:	c5 5b       	subi	r28, 0xB5	; 181
    21ae:	d0 40       	sbci	r29, 0x00	; 0
	//timer3.start(255);
	/**********/
	//TODO:: Please write your application code
	while(TRUE){
		//PREAMBLE
		lcd0.reboot();
    21b0:	ef 96       	adiw	r28, 0x3f	; 63
    21b2:	ee ad       	ldd	r30, Y+62	; 0x3e
    21b4:	ff ad       	ldd	r31, Y+63	; 0x3f
    21b6:	ef 97       	sbiw	r28, 0x3f	; 63
    21b8:	09 95       	icall
		/***Entry***/
		chr=keypad.get().character;
    21ba:	f4 01       	movw	r30, r8
    21bc:	09 95       	icall
    21be:	72 2e       	mov	r7, r18
		lcd0.gotoxy(3,0);
    21c0:	60 e0       	ldi	r22, 0x00	; 0
    21c2:	70 e0       	ldi	r23, 0x00	; 0
    21c4:	83 e0       	ldi	r24, 0x03	; 3
    21c6:	90 e0       	ldi	r25, 0x00	; 0
    21c8:	f1 01       	movw	r30, r2
    21ca:	09 95       	icall
		lcd0.putch(chr);
    21cc:	e1 96       	adiw	r28, 0x31	; 49
    21ce:	ee ad       	ldd	r30, Y+62	; 0x3e
    21d0:	ff ad       	ldd	r31, Y+63	; 0x3f
    21d2:	e1 97       	sbiw	r28, 0x31	; 49
    21d4:	87 2d       	mov	r24, r7
    21d6:	09 95       	icall
		lcd0.gotoxy(3,10);
    21d8:	6a e0       	ldi	r22, 0x0A	; 10
    21da:	70 e0       	ldi	r23, 0x00	; 0
    21dc:	83 e0       	ldi	r24, 0x03	; 3
    21de:	90 e0       	ldi	r25, 0x00	; 0
    21e0:	f1 01       	movw	r30, r2
    21e2:	09 95       	icall
		lcd0.string_size(keypad.get().printstring,10);
    21e4:	f4 01       	movw	r30, r8
    21e6:	09 95       	icall
    21e8:	3e 8b       	std	Y+22, r19	; 0x16
    21ea:	4f 8b       	std	Y+23, r20	; 0x17
    21ec:	6a e0       	ldi	r22, 0x0A	; 10
    21ee:	8e 89       	ldd	r24, Y+22	; 0x16
    21f0:	9f 89       	ldd	r25, Y+23	; 0x17
    21f2:	cd 54       	subi	r28, 0x4D	; 77
    21f4:	df 4f       	sbci	r29, 0xFF	; 255
    21f6:	e8 81       	ld	r30, Y
    21f8:	f9 81       	ldd	r31, Y+1	; 0x01
    21fa:	c3 5b       	subi	r28, 0xB3	; 179
    21fc:	d0 40       	sbci	r29, 0x00	; 0
    21fe:	09 95       	icall
		if(keypad.get().character==KEYPADENTERKEY && !strcmp(keypad.get().string,"123")){
    2200:	f4 01       	movw	r30, r8
    2202:	09 95       	icall
    2204:	24 34       	cpi	r18, 0x44	; 68
    2206:	d9 f4       	brne	.+54     	; 0x223e <main+0x1b2>
    2208:	f4 01       	movw	r30, r8
    220a:	09 95       	icall
    220c:	5e 87       	std	Y+14, r21	; 0x0e
    220e:	6f 87       	std	Y+15, r22	; 0x0f
    2210:	60 e1       	ldi	r22, 0x10	; 16
    2212:	71 e0       	ldi	r23, 0x01	; 1
    2214:	8e 85       	ldd	r24, Y+14	; 0x0e
    2216:	9f 85       	ldd	r25, Y+15	; 0x0f
    2218:	61 d1       	rcall	.+706    	; 0x24dc <strcmp>
    221a:	89 2b       	or	r24, r25
    221c:	81 f4       	brne	.+32     	; 0x223e <main+0x1b2>
			lcd0.gotoxy(2,0);
    221e:	60 e0       	ldi	r22, 0x00	; 0
    2220:	70 e0       	ldi	r23, 0x00	; 0
    2222:	82 e0       	ldi	r24, 0x02	; 2
    2224:	90 e0       	ldi	r25, 0x00	; 0
    2226:	f1 01       	movw	r30, r2
    2228:	09 95       	icall
			lcd0.string_size("mcu responde ola",16);
    222a:	60 e1       	ldi	r22, 0x10	; 16
    222c:	84 e1       	ldi	r24, 0x14	; 20
    222e:	91 e0       	ldi	r25, 0x01	; 1
    2230:	cd 54       	subi	r28, 0x4D	; 77
    2232:	df 4f       	sbci	r29, 0xFF	; 255
    2234:	e8 81       	ld	r30, Y
    2236:	f9 81       	ldd	r31, Y+1	; 0x01
    2238:	c3 5b       	subi	r28, 0xB3	; 179
    223a:	d0 40       	sbci	r29, 0x00	; 0
    223c:	09 95       	icall
		}
		if(keypad.get().character==KEYPADENTERKEY && !strcmp(keypad.get().string,"A")){
    223e:	f4 01       	movw	r30, r8
    2240:	09 95       	icall
    2242:	24 34       	cpi	r18, 0x44	; 68
    2244:	d9 f4       	brne	.+54     	; 0x227c <main+0x1f0>
    2246:	f4 01       	movw	r30, r8
    2248:	09 95       	icall
    224a:	5c 83       	std	Y+4, r21	; 0x04
    224c:	6d 83       	std	Y+5, r22	; 0x05
    224e:	65 e2       	ldi	r22, 0x25	; 37
    2250:	71 e0       	ldi	r23, 0x01	; 1
    2252:	8c 81       	ldd	r24, Y+4	; 0x04
    2254:	9d 81       	ldd	r25, Y+5	; 0x05
    2256:	42 d1       	rcall	.+644    	; 0x24dc <strcmp>
    2258:	89 2b       	or	r24, r25
    225a:	81 f4       	brne	.+32     	; 0x227c <main+0x1f0>
			lcd0.gotoxy(2,0);
    225c:	60 e0       	ldi	r22, 0x00	; 0
    225e:	70 e0       	ldi	r23, 0x00	; 0
    2260:	82 e0       	ldi	r24, 0x02	; 2
    2262:	90 e0       	ldi	r25, 0x00	; 0
    2264:	f1 01       	movw	r30, r2
    2266:	09 95       	icall
			lcd0.string_size("nothing here",16);
    2268:	60 e1       	ldi	r22, 0x10	; 16
    226a:	87 e2       	ldi	r24, 0x27	; 39
    226c:	91 e0       	ldi	r25, 0x01	; 1
    226e:	cd 54       	subi	r28, 0x4D	; 77
    2270:	df 4f       	sbci	r29, 0xFF	; 255
    2272:	e8 81       	ld	r30, Y
    2274:	f9 81       	ldd	r31, Y+1	; 0x01
    2276:	c3 5b       	subi	r28, 0xB3	; 179
    2278:	d0 40       	sbci	r29, 0x00	; 0
    227a:	09 95       	icall
		}
		/***Reading***/
		adcvalue=analog.read(0);
    227c:	80 e0       	ldi	r24, 0x00	; 0
    227e:	90 e0       	ldi	r25, 0x00	; 0
    2280:	cb 54       	subi	r28, 0x4B	; 75
    2282:	df 4f       	sbci	r29, 0xFF	; 255
    2284:	e8 81       	ld	r30, Y
    2286:	f9 81       	ldd	r31, Y+1	; 0x01
    2288:	c5 5b       	subi	r28, 0xB5	; 181
    228a:	d0 40       	sbci	r29, 0x00	; 0
    228c:	09 95       	icall
    228e:	3c 01       	movw	r6, r24
		/***Set Position***/
		timer1.compareB(function.trimmer(adcvalue,0,1023,450,2450));
    2290:	c9 56       	subi	r28, 0x69	; 105
    2292:	df 4f       	sbci	r29, 0xFF	; 255
    2294:	48 80       	ld	r4, Y
    2296:	59 80       	ldd	r5, Y+1	; 0x01
    2298:	c7 59       	subi	r28, 0x97	; 151
    229a:	d0 40       	sbci	r29, 0x00	; 0
    229c:	bc 01       	movw	r22, r24
    229e:	99 0f       	add	r25, r25
    22a0:	88 0b       	sbc	r24, r24
    22a2:	99 0b       	sbc	r25, r25
    22a4:	1f 92       	push	r1
    22a6:	1f 92       	push	r1
    22a8:	f9 e0       	ldi	r31, 0x09	; 9
    22aa:	ff 93       	push	r31
    22ac:	22 e9       	ldi	r18, 0x92	; 146
    22ae:	2f 93       	push	r18
    22b0:	6f 96       	adiw	r28, 0x1f	; 31
    22b2:	ee ad       	ldd	r30, Y+62	; 0x3e
    22b4:	ff ad       	ldd	r31, Y+63	; 0x3f
    22b6:	6f 97       	sbiw	r28, 0x1f	; 31
    22b8:	0f 2e       	mov	r0, r31
    22ba:	f2 ec       	ldi	r31, 0xC2	; 194
    22bc:	af 2e       	mov	r10, r31
    22be:	bb 24       	eor	r11, r11
    22c0:	b3 94       	inc	r11
    22c2:	c1 2c       	mov	r12, r1
    22c4:	d1 2c       	mov	r13, r1
    22c6:	f0 2d       	mov	r31, r0
    22c8:	ee 24       	eor	r14, r14
    22ca:	ea 94       	dec	r14
    22cc:	13 e0       	ldi	r17, 0x03	; 3
    22ce:	f1 2e       	mov	r15, r17
    22d0:	00 e0       	ldi	r16, 0x00	; 0
    22d2:	10 e0       	ldi	r17, 0x00	; 0
    22d4:	20 e0       	ldi	r18, 0x00	; 0
    22d6:	30 e0       	ldi	r19, 0x00	; 0
    22d8:	a9 01       	movw	r20, r18
    22da:	09 95       	icall
    22dc:	cb 01       	movw	r24, r22
    22de:	f2 01       	movw	r30, r4
    22e0:	09 95       	icall
		switch(Menu){
			case '1': //Show readings
				lcd0.gotoxy(0,0);
    22e2:	60 e0       	ldi	r22, 0x00	; 0
    22e4:	70 e0       	ldi	r23, 0x00	; 0
    22e6:	80 e0       	ldi	r24, 0x00	; 0
    22e8:	90 e0       	ldi	r25, 0x00	; 0
    22ea:	f1 01       	movw	r30, r2
    22ec:	09 95       	icall
				str=function.i16toa(adcvalue);
    22ee:	21 96       	adiw	r28, 0x01	; 1
    22f0:	ee ad       	ldd	r30, Y+62	; 0x3e
    22f2:	ff ad       	ldd	r31, Y+63	; 0x3f
    22f4:	21 97       	sbiw	r28, 0x01	; 1
    22f6:	c3 01       	movw	r24, r6
    22f8:	09 95       	icall
				lcd0.string_size(str,5);
    22fa:	65 e0       	ldi	r22, 0x05	; 5
    22fc:	cd 54       	subi	r28, 0x4D	; 77
    22fe:	df 4f       	sbci	r29, 0xFF	; 255
    2300:	e8 81       	ld	r30, Y
    2302:	f9 81       	ldd	r31, Y+1	; 0x01
    2304:	c3 5b       	subi	r28, 0xB3	; 179
    2306:	d0 40       	sbci	r29, 0x00	; 0
    2308:	09 95       	icall
					strcpy(str,keypad.get().string);
				timer1.compareB(function.trimmer(function.strToInt(str),0,1023,450,2450));
				break;
				*/
		};
		lcd0.hspace(3);
    230a:	e9 96       	adiw	r28, 0x39	; 57
    230c:	ee ad       	ldd	r30, Y+62	; 0x3e
    230e:	ff ad       	ldd	r31, Y+63	; 0x3f
    2310:	e9 97       	sbiw	r28, 0x39	; 57
    2312:	83 e0       	ldi	r24, 0x03	; 3
    2314:	09 95       	icall
		lcd0.string(relogio.show());
    2316:	e5 96       	adiw	r28, 0x35	; 53
    2318:	6e ac       	ldd	r6, Y+62	; 0x3e
    231a:	7f ac       	ldd	r7, Y+63	; 0x3f
    231c:	e5 97       	sbiw	r28, 0x35	; 53
    231e:	e0 91 7a 02 	lds	r30, 0x027A	; 0x80027a <relogio+0x12>
    2322:	f0 91 7b 02 	lds	r31, 0x027B	; 0x80027b <relogio+0x13>
    2326:	09 95       	icall
    2328:	f3 01       	movw	r30, r6
    232a:	09 95       	icall
	}
    232c:	0f 90       	pop	r0
    232e:	0f 90       	pop	r0
    2330:	0f 90       	pop	r0
    2332:	0f 90       	pop	r0
    2334:	3d cf       	rjmp	.-390    	; 0x21b0 <main+0x124>

00002336 <__vector_15>:
}
/*
** interrupt
*/
ISR(TIMER0_COMP_vect) // TIMER0_COMP_vect used for clock
{
    2336:	1f 92       	push	r1
    2338:	0f 92       	push	r0
    233a:	0f b6       	in	r0, 0x3f	; 63
    233c:	0f 92       	push	r0
    233e:	11 24       	eor	r1, r1
    2340:	0b b6       	in	r0, 0x3b	; 59
    2342:	0f 92       	push	r0
    2344:	2f 93       	push	r18
    2346:	3f 93       	push	r19
    2348:	4f 93       	push	r20
    234a:	5f 93       	push	r21
    234c:	6f 93       	push	r22
    234e:	7f 93       	push	r23
    2350:	8f 93       	push	r24
    2352:	9f 93       	push	r25
    2354:	af 93       	push	r26
    2356:	bf 93       	push	r27
    2358:	ef 93       	push	r30
    235a:	ff 93       	push	r31
	TIMER0_COMPARE_MATCH++;
    235c:	80 91 66 02 	lds	r24, 0x0266	; 0x800266 <TIMER0_COMPARE_MATCH>
    2360:	90 91 67 02 	lds	r25, 0x0267	; 0x800267 <TIMER0_COMPARE_MATCH+0x1>
    2364:	01 96       	adiw	r24, 0x01	; 1
	if(TIMER0_COMPARE_MATCH > 999){
    2366:	88 3e       	cpi	r24, 0xE8	; 232
    2368:	23 e0       	ldi	r18, 0x03	; 3
    236a:	92 07       	cpc	r25, r18
    236c:	28 f4       	brcc	.+10     	; 0x2378 <__vector_15+0x42>
/*
** interrupt
*/
ISR(TIMER0_COMP_vect) // TIMER0_COMP_vect used for clock
{
	TIMER0_COMPARE_MATCH++;
    236e:	90 93 67 02 	sts	0x0267, r25	; 0x800267 <TIMER0_COMPARE_MATCH+0x1>
    2372:	80 93 66 02 	sts	0x0266, r24	; 0x800266 <TIMER0_COMPARE_MATCH>
    2376:	09 c0       	rjmp	.+18     	; 0x238a <__vector_15+0x54>
	if(TIMER0_COMPARE_MATCH > 999){
		TIMER0_COMPARE_MATCH=0;
    2378:	10 92 67 02 	sts	0x0267, r1	; 0x800267 <TIMER0_COMPARE_MATCH+0x1>
    237c:	10 92 66 02 	sts	0x0266, r1	; 0x800266 <TIMER0_COMPARE_MATCH>
		relogio.increment();
    2380:	e0 91 6a 02 	lds	r30, 0x026A	; 0x80026a <relogio+0x2>
    2384:	f0 91 6b 02 	lds	r31, 0x026B	; 0x80026b <relogio+0x3>
    2388:	09 95       	icall
	}
}
    238a:	ff 91       	pop	r31
    238c:	ef 91       	pop	r30
    238e:	bf 91       	pop	r27
    2390:	af 91       	pop	r26
    2392:	9f 91       	pop	r25
    2394:	8f 91       	pop	r24
    2396:	7f 91       	pop	r23
    2398:	6f 91       	pop	r22
    239a:	5f 91       	pop	r21
    239c:	4f 91       	pop	r20
    239e:	3f 91       	pop	r19
    23a0:	2f 91       	pop	r18
    23a2:	0f 90       	pop	r0
    23a4:	0b be       	out	0x3b, r0	; 59
    23a6:	0f 90       	pop	r0
    23a8:	0f be       	out	0x3f, r0	; 63
    23aa:	0f 90       	pop	r0
    23ac:	1f 90       	pop	r1
    23ae:	18 95       	reti

000023b0 <__mulsi3>:
    23b0:	db 01       	movw	r26, r22
    23b2:	8f 93       	push	r24
    23b4:	9f 93       	push	r25
    23b6:	88 d0       	rcall	.+272    	; 0x24c8 <__muluhisi3>
    23b8:	bf 91       	pop	r27
    23ba:	af 91       	pop	r26
    23bc:	a2 9f       	mul	r26, r18
    23be:	80 0d       	add	r24, r0
    23c0:	91 1d       	adc	r25, r1
    23c2:	a3 9f       	mul	r26, r19
    23c4:	90 0d       	add	r25, r0
    23c6:	b2 9f       	mul	r27, r18
    23c8:	90 0d       	add	r25, r0
    23ca:	11 24       	eor	r1, r1
    23cc:	08 95       	ret

000023ce <__udivmodhi4>:
    23ce:	aa 1b       	sub	r26, r26
    23d0:	bb 1b       	sub	r27, r27
    23d2:	51 e1       	ldi	r21, 0x11	; 17
    23d4:	07 c0       	rjmp	.+14     	; 0x23e4 <__udivmodhi4_ep>

000023d6 <__udivmodhi4_loop>:
    23d6:	aa 1f       	adc	r26, r26
    23d8:	bb 1f       	adc	r27, r27
    23da:	a6 17       	cp	r26, r22
    23dc:	b7 07       	cpc	r27, r23
    23de:	10 f0       	brcs	.+4      	; 0x23e4 <__udivmodhi4_ep>
    23e0:	a6 1b       	sub	r26, r22
    23e2:	b7 0b       	sbc	r27, r23

000023e4 <__udivmodhi4_ep>:
    23e4:	88 1f       	adc	r24, r24
    23e6:	99 1f       	adc	r25, r25
    23e8:	5a 95       	dec	r21
    23ea:	a9 f7       	brne	.-22     	; 0x23d6 <__udivmodhi4_loop>
    23ec:	80 95       	com	r24
    23ee:	90 95       	com	r25
    23f0:	bc 01       	movw	r22, r24
    23f2:	cd 01       	movw	r24, r26
    23f4:	08 95       	ret

000023f6 <__divmodhi4>:
    23f6:	97 fb       	bst	r25, 7
    23f8:	07 2e       	mov	r0, r23
    23fa:	16 f4       	brtc	.+4      	; 0x2400 <__divmodhi4+0xa>
    23fc:	00 94       	com	r0
    23fe:	06 d0       	rcall	.+12     	; 0x240c <__divmodhi4_neg1>
    2400:	77 fd       	sbrc	r23, 7
    2402:	08 d0       	rcall	.+16     	; 0x2414 <__divmodhi4_neg2>
    2404:	e4 df       	rcall	.-56     	; 0x23ce <__udivmodhi4>
    2406:	07 fc       	sbrc	r0, 7
    2408:	05 d0       	rcall	.+10     	; 0x2414 <__divmodhi4_neg2>
    240a:	3e f4       	brtc	.+14     	; 0x241a <__divmodhi4_exit>

0000240c <__divmodhi4_neg1>:
    240c:	90 95       	com	r25
    240e:	81 95       	neg	r24
    2410:	9f 4f       	sbci	r25, 0xFF	; 255
    2412:	08 95       	ret

00002414 <__divmodhi4_neg2>:
    2414:	70 95       	com	r23
    2416:	61 95       	neg	r22
    2418:	7f 4f       	sbci	r23, 0xFF	; 255

0000241a <__divmodhi4_exit>:
    241a:	08 95       	ret

0000241c <__udivmodsi4>:
    241c:	a1 e2       	ldi	r26, 0x21	; 33
    241e:	1a 2e       	mov	r1, r26
    2420:	aa 1b       	sub	r26, r26
    2422:	bb 1b       	sub	r27, r27
    2424:	fd 01       	movw	r30, r26
    2426:	0d c0       	rjmp	.+26     	; 0x2442 <__udivmodsi4_ep>

00002428 <__udivmodsi4_loop>:
    2428:	aa 1f       	adc	r26, r26
    242a:	bb 1f       	adc	r27, r27
    242c:	ee 1f       	adc	r30, r30
    242e:	ff 1f       	adc	r31, r31
    2430:	a2 17       	cp	r26, r18
    2432:	b3 07       	cpc	r27, r19
    2434:	e4 07       	cpc	r30, r20
    2436:	f5 07       	cpc	r31, r21
    2438:	20 f0       	brcs	.+8      	; 0x2442 <__udivmodsi4_ep>
    243a:	a2 1b       	sub	r26, r18
    243c:	b3 0b       	sbc	r27, r19
    243e:	e4 0b       	sbc	r30, r20
    2440:	f5 0b       	sbc	r31, r21

00002442 <__udivmodsi4_ep>:
    2442:	66 1f       	adc	r22, r22
    2444:	77 1f       	adc	r23, r23
    2446:	88 1f       	adc	r24, r24
    2448:	99 1f       	adc	r25, r25
    244a:	1a 94       	dec	r1
    244c:	69 f7       	brne	.-38     	; 0x2428 <__udivmodsi4_loop>
    244e:	60 95       	com	r22
    2450:	70 95       	com	r23
    2452:	80 95       	com	r24
    2454:	90 95       	com	r25
    2456:	9b 01       	movw	r18, r22
    2458:	ac 01       	movw	r20, r24
    245a:	bd 01       	movw	r22, r26
    245c:	cf 01       	movw	r24, r30
    245e:	08 95       	ret

00002460 <__divmodsi4>:
    2460:	05 2e       	mov	r0, r21
    2462:	97 fb       	bst	r25, 7
    2464:	16 f4       	brtc	.+4      	; 0x246a <__divmodsi4+0xa>
    2466:	00 94       	com	r0
    2468:	0f d0       	rcall	.+30     	; 0x2488 <__negsi2>
    246a:	57 fd       	sbrc	r21, 7
    246c:	05 d0       	rcall	.+10     	; 0x2478 <__divmodsi4_neg2>
    246e:	d6 df       	rcall	.-84     	; 0x241c <__udivmodsi4>
    2470:	07 fc       	sbrc	r0, 7
    2472:	02 d0       	rcall	.+4      	; 0x2478 <__divmodsi4_neg2>
    2474:	46 f4       	brtc	.+16     	; 0x2486 <__divmodsi4_exit>
    2476:	08 c0       	rjmp	.+16     	; 0x2488 <__negsi2>

00002478 <__divmodsi4_neg2>:
    2478:	50 95       	com	r21
    247a:	40 95       	com	r20
    247c:	30 95       	com	r19
    247e:	21 95       	neg	r18
    2480:	3f 4f       	sbci	r19, 0xFF	; 255
    2482:	4f 4f       	sbci	r20, 0xFF	; 255
    2484:	5f 4f       	sbci	r21, 0xFF	; 255

00002486 <__divmodsi4_exit>:
    2486:	08 95       	ret

00002488 <__negsi2>:
    2488:	90 95       	com	r25
    248a:	80 95       	com	r24
    248c:	70 95       	com	r23
    248e:	61 95       	neg	r22
    2490:	7f 4f       	sbci	r23, 0xFF	; 255
    2492:	8f 4f       	sbci	r24, 0xFF	; 255
    2494:	9f 4f       	sbci	r25, 0xFF	; 255
    2496:	08 95       	ret

00002498 <__tablejump2__>:
    2498:	ee 0f       	add	r30, r30
    249a:	ff 1f       	adc	r31, r31
    249c:	00 24       	eor	r0, r0
    249e:	00 1c       	adc	r0, r0
    24a0:	0b be       	out	0x3b, r0	; 59
    24a2:	07 90       	elpm	r0, Z+
    24a4:	f6 91       	elpm	r31, Z
    24a6:	e0 2d       	mov	r30, r0
    24a8:	09 94       	ijmp

000024aa <__umulhisi3>:
    24aa:	a2 9f       	mul	r26, r18
    24ac:	b0 01       	movw	r22, r0
    24ae:	b3 9f       	mul	r27, r19
    24b0:	c0 01       	movw	r24, r0
    24b2:	a3 9f       	mul	r26, r19
    24b4:	70 0d       	add	r23, r0
    24b6:	81 1d       	adc	r24, r1
    24b8:	11 24       	eor	r1, r1
    24ba:	91 1d       	adc	r25, r1
    24bc:	b2 9f       	mul	r27, r18
    24be:	70 0d       	add	r23, r0
    24c0:	81 1d       	adc	r24, r1
    24c2:	11 24       	eor	r1, r1
    24c4:	91 1d       	adc	r25, r1
    24c6:	08 95       	ret

000024c8 <__muluhisi3>:
    24c8:	f0 df       	rcall	.-32     	; 0x24aa <__umulhisi3>
    24ca:	a5 9f       	mul	r26, r21
    24cc:	90 0d       	add	r25, r0
    24ce:	b4 9f       	mul	r27, r20
    24d0:	90 0d       	add	r25, r0
    24d2:	a4 9f       	mul	r26, r20
    24d4:	80 0d       	add	r24, r0
    24d6:	91 1d       	adc	r25, r1
    24d8:	11 24       	eor	r1, r1
    24da:	08 95       	ret

000024dc <strcmp>:
    24dc:	fb 01       	movw	r30, r22
    24de:	dc 01       	movw	r26, r24
    24e0:	8d 91       	ld	r24, X+
    24e2:	01 90       	ld	r0, Z+
    24e4:	80 19       	sub	r24, r0
    24e6:	01 10       	cpse	r0, r1
    24e8:	d9 f3       	breq	.-10     	; 0x24e0 <strcmp+0x4>
    24ea:	99 0b       	sbc	r25, r25
    24ec:	08 95       	ret

000024ee <_exit>:
    24ee:	f8 94       	cli

000024f0 <__stop_program>:
    24f0:	ff cf       	rjmp	.-2      	; 0x24f0 <__stop_program>
