
Atmega88.elf:     file format elf32-avr

Sections:
Idx Name          Size      VMA       LMA       File off  Algn
  0 .data         00000000  00800100  00800100  00000128  2**0
                  CONTENTS, ALLOC, LOAD, DATA
  1 .text         000000d4  00000000  00000000  00000054  2**1
                  CONTENTS, ALLOC, LOAD, READONLY, CODE
  2 .comment      00000030  00000000  00000000  00000128  2**0
                  CONTENTS, READONLY
  3 .note.gnu.avr.deviceinfo 0000003c  00000000  00000000  00000158  2**2
                  CONTENTS, READONLY
  4 .debug_aranges 00000038  00000000  00000000  00000194  2**0
                  CONTENTS, READONLY, DEBUGGING
  5 .debug_info   000007ce  00000000  00000000  000001cc  2**0
                  CONTENTS, READONLY, DEBUGGING
  6 .debug_abbrev 00000704  00000000  00000000  0000099a  2**0
                  CONTENTS, READONLY, DEBUGGING
  7 .debug_line   00000321  00000000  00000000  0000109e  2**0
                  CONTENTS, READONLY, DEBUGGING
  8 .debug_frame  00000070  00000000  00000000  000013c0  2**2
                  CONTENTS, READONLY, DEBUGGING
  9 .debug_str    000003c4  00000000  00000000  00001430  2**0
                  CONTENTS, READONLY, DEBUGGING
 10 .debug_loc    00000101  00000000  00000000  000017f4  2**0
                  CONTENTS, READONLY, DEBUGGING
 11 .debug_ranges 00000028  00000000  00000000  000018f5  2**0
                  CONTENTS, READONLY, DEBUGGING

Disassembly of section .text:

00000000 <__vectors>:
   0:	19 c0       	rjmp	.+50     	; 0x34 <__ctors_end>
   2:	20 c0       	rjmp	.+64     	; 0x44 <__bad_interrupt>
   4:	1f c0       	rjmp	.+62     	; 0x44 <__bad_interrupt>
   6:	1e c0       	rjmp	.+60     	; 0x44 <__bad_interrupt>
   8:	1d c0       	rjmp	.+58     	; 0x44 <__bad_interrupt>
   a:	1c c0       	rjmp	.+56     	; 0x44 <__bad_interrupt>
   c:	1b c0       	rjmp	.+54     	; 0x44 <__bad_interrupt>
   e:	1a c0       	rjmp	.+52     	; 0x44 <__bad_interrupt>
  10:	19 c0       	rjmp	.+50     	; 0x44 <__bad_interrupt>
  12:	18 c0       	rjmp	.+48     	; 0x44 <__bad_interrupt>
  14:	17 c0       	rjmp	.+46     	; 0x44 <__bad_interrupt>
  16:	16 c0       	rjmp	.+44     	; 0x44 <__bad_interrupt>
  18:	15 c0       	rjmp	.+42     	; 0x44 <__bad_interrupt>
  1a:	14 c0       	rjmp	.+40     	; 0x44 <__bad_interrupt>
  1c:	13 c0       	rjmp	.+38     	; 0x44 <__bad_interrupt>
  1e:	12 c0       	rjmp	.+36     	; 0x44 <__bad_interrupt>
  20:	11 c0       	rjmp	.+34     	; 0x44 <__bad_interrupt>
  22:	10 c0       	rjmp	.+32     	; 0x44 <__bad_interrupt>
  24:	0f c0       	rjmp	.+30     	; 0x44 <__bad_interrupt>
  26:	0e c0       	rjmp	.+28     	; 0x44 <__bad_interrupt>
  28:	0d c0       	rjmp	.+26     	; 0x44 <__bad_interrupt>
  2a:	0c c0       	rjmp	.+24     	; 0x44 <__bad_interrupt>
  2c:	0b c0       	rjmp	.+22     	; 0x44 <__bad_interrupt>
  2e:	0a c0       	rjmp	.+20     	; 0x44 <__bad_interrupt>
  30:	09 c0       	rjmp	.+18     	; 0x44 <__bad_interrupt>
  32:	08 c0       	rjmp	.+16     	; 0x44 <__bad_interrupt>

00000034 <__ctors_end>:
  34:	11 24       	eor	r1, r1
  36:	1f be       	out	0x3f, r1	; 63
  38:	cf ef       	ldi	r28, 0xFF	; 255
  3a:	d4 e0       	ldi	r29, 0x04	; 4
  3c:	de bf       	out	0x3e, r29	; 62
  3e:	cd bf       	out	0x3d, r28	; 61
  40:	3b d0       	rcall	.+118    	; 0xb8 <main>
  42:	46 c0       	rjmp	.+140    	; 0xd0 <_exit>

00000044 <__bad_interrupt>:
  44:	dd cf       	rjmp	.-70     	; 0x0 <__vectors>

00000046 <PORTINIT>:
			
    }
}
void PORTINIT()
{
	DDRD = (1<<4); //Serial Data
  46:	80 e1       	ldi	r24, 0x10	; 16
  48:	8a b9       	out	0x0a, r24	; 10
	DDRD |= (1<<5); //Serial Clock
  4a:	55 9a       	sbi	0x0a, 5	; 10
	DDRD |= (1<<7); //Serial Store
  4c:	57 9a       	sbi	0x0a, 7	; 10
	PORTD = ~(1<<4); //Serial Data
  4e:	8f ee       	ldi	r24, 0xEF	; 239
  50:	8b b9       	out	0x0b, r24	; 11
	PORTD &= ~(1<<5); //Serial Clock
  52:	5d 98       	cbi	0x0b, 5	; 11
	PORTD &= ~(1<<7); //Serial Store
  54:	5f 98       	cbi	0x0b, 7	; 11
  56:	08 95       	ret

00000058 <shift_bit>:
	#else
		//round up by default
		__ticks_dc = (uint32_t)(ceil(fabs(__tmp)));
	#endif

	__builtin_avr_delay_cycles(__ticks_dc);
  58:	2f ef       	ldi	r18, 0xFF	; 255
  5a:	30 e7       	ldi	r19, 0x70	; 112
  5c:	92 e0       	ldi	r25, 0x02	; 2
  5e:	21 50       	subi	r18, 0x01	; 1
  60:	30 40       	sbci	r19, 0x00	; 0
  62:	90 40       	sbci	r25, 0x00	; 0
  64:	e1 f7       	brne	.-8      	; 0x5e <shift_bit+0x6>
  66:	00 c0       	rjmp	.+0      	; 0x68 <shift_bit+0x10>
  68:	00 00       	nop
}
void shift_bit(uint8_t bool)
{
	_delay_ms(100);
	if (bool)
  6a:	88 23       	and	r24, r24
  6c:	11 f0       	breq	.+4      	; 0x72 <shift_bit+0x1a>
		PORTD |= (1<<4); //Data bit HIGH
  6e:	5c 9a       	sbi	0x0b, 4	; 11
  70:	01 c0       	rjmp	.+2      	; 0x74 <shift_bit+0x1c>
	else
		PORTD &= ~(1<<4); //Data bit LOW
  72:	5c 98       	cbi	0x0b, 4	; 11
	PORTD |= (1<<5); // shift bit
  74:	5d 9a       	sbi	0x0b, 5	; 11
	PORTD &= ~(1<<5); //shift disable
  76:	5d 98       	cbi	0x0b, 5	; 11
  78:	08 95       	ret

0000007a <shift_byte>:
}
void shift_byte(uint8_t byte)
{
  7a:	ff 92       	push	r15
  7c:	0f 93       	push	r16
  7e:	1f 93       	push	r17
  80:	cf 93       	push	r28
  82:	df 93       	push	r29
  84:	f8 2e       	mov	r15, r24
  86:	c0 e0       	ldi	r28, 0x00	; 0
  88:	d0 e0       	ldi	r29, 0x00	; 0
	uint8_t i;
	for(i=0;i<8;i++)
		shift_bit(byte & (1<<i));
  8a:	01 e0       	ldi	r16, 0x01	; 1
  8c:	10 e0       	ldi	r17, 0x00	; 0
  8e:	c8 01       	movw	r24, r16
  90:	0c 2e       	mov	r0, r28
  92:	02 c0       	rjmp	.+4      	; 0x98 <shift_byte+0x1e>
  94:	88 0f       	add	r24, r24
  96:	99 1f       	adc	r25, r25
  98:	0a 94       	dec	r0
  9a:	e2 f7       	brpl	.-8      	; 0x94 <shift_byte+0x1a>
  9c:	8f 21       	and	r24, r15
  9e:	dc df       	rcall	.-72     	; 0x58 <shift_bit>
  a0:	21 96       	adiw	r28, 0x01	; 1
	PORTD &= ~(1<<5); //shift disable
}
void shift_byte(uint8_t byte)
{
	uint8_t i;
	for(i=0;i<8;i++)
  a2:	c8 30       	cpi	r28, 0x08	; 8
  a4:	d1 05       	cpc	r29, r1
  a6:	99 f7       	brne	.-26     	; 0x8e <shift_byte+0x14>
		shift_bit(byte & (1<<i));
	PORTD |= (1<<7); //output enable
  a8:	5f 9a       	sbi	0x0b, 7	; 11
	PORTD &= ~(1<<7); //output disable
  aa:	5f 98       	cbi	0x0b, 7	; 11
  ac:	df 91       	pop	r29
  ae:	cf 91       	pop	r28
  b0:	1f 91       	pop	r17
  b2:	0f 91       	pop	r16
  b4:	ff 90       	pop	r15
  b6:	08 95       	ret

000000b8 <main>:
void shift_byte(uint8_t byte);
/***MAINMAIN***/
int main(void)
{
	//uint8_t i;
	PORTINIT();
  b8:	c6 df       	rcall	.-116    	; 0x46 <PORTINIT>
    /* Replace with your application code */
	PORTD &= ~(1<<7); //output clock
  ba:	5f 98       	cbi	0x0b, 7	; 11
	PORTD &= ~(1<<5); //shift CLOCK input disable
  bc:	5d 98       	cbi	0x0b, 5	; 11
			//shift_bit(1);
		 
		//for(i=0;i<8;i++)
			//shift_bit(0);
			
		shift_byte(85);
  be:	85 e5       	ldi	r24, 0x55	; 85
  c0:	dc df       	rcall	.-72     	; 0x7a <shift_byte>
		shift_byte(170);
  c2:	8a ea       	ldi	r24, 0xAA	; 170
  c4:	da df       	rcall	.-76     	; 0x7a <shift_byte>
		shift_byte(255);
  c6:	8f ef       	ldi	r24, 0xFF	; 255
  c8:	d8 df       	rcall	.-80     	; 0x7a <shift_byte>
		shift_byte(0);
  ca:	80 e0       	ldi	r24, 0x00	; 0
  cc:	d6 df       	rcall	.-84     	; 0x7a <shift_byte>
  ce:	f7 cf       	rjmp	.-18     	; 0xbe <main+0x6>

000000d0 <_exit>:
  d0:	f8 94       	cli

000000d2 <__stop_program>:
  d2:	ff cf       	rjmp	.-2      	; 0xd2 <__stop_program>
